Hc:_glClearStencil
sUi:_InternalEnumerator_1_System_Collections_IEnumerator_get_Current_m2926811098_AdjustorThunk
uNf:_UnmanagedMemoryStream_set_Position_m413343525
tnf:_Array_InternalArray__get_Item_TisParameterModifier_t1448691540_m2136569243_gshared
e_d:__ZN6il2cpp2vm5Array13GetByteLengthEP11Il2CppArray
U5h:__Z50RuntimeInvoker_Void_t3431959231_OpCode_t3679360004PFvvEPK10MethodInfoPvPS4_
a0e:_DateTime_Equals_m2226220803_AdjustorThunk
hRa:__Z30GetIntermediateRendererManagerv
HI:__ZN10StateRange8TransferI14SafeBinaryReadEEvRT_
iuf:_SmallXmlParser_HandleBufferedContent_m1368970559
Lra:__Z21SourceMipLevelForBlitiiii
PVa:__ZN31CanvasBatchIntermediateRenderer15AddAsRenderNodeER15RenderNodeQueueRK20DeprecatedSourceData
UKg:_MethodReturnDictionary__cctor_m1181111430
iUh:_GenericTypeParameterBuilder_IsValueTypeImpl_m1435181787
dUf:_Enumerator_System_Collections_IEnumerator_get_Current_m1019216302_AdjustorThunk
N6e:_CCGregorianCalendar_GetMonth_m2575893554
Rng:_MD4_Create_m967174789
RXh:_MethodInfo_get_MemberType_m1886998702
tw:__ZN11UnityEngine9Animation28GenericAnimationBindingCacheD2Ev
ghf:_Array_InternalArray__ICollection_CopyTo_TisWebCamDevice_t2290386459_m37627067_gshared
Z7i:_SynchronizationAttribute_IsContextOK_m24121090
XRh:_DerivedType_GetMethodImpl_m3862114347
a4b:__Z18RestoreRenderStateR20CameraRenderOldStateR17ShaderPassContext
IGb:__Z18Transfer_BlittableI18StreamedBinaryReadILb1EELb1E5RectTIfEEvRK29SerializationCommandArgumentsR31RuntimeSerializationCommandInfo
sXg:_UTF8Encoding_GetDecoder_m796723436
ACb:__Z18Transfer_BlittableI24GenerateTypeTreeTransferLb0E11ColorRGBA32EvRK29SerializationCommandArgumentsR31RuntimeSerializationCommandInfo
K9:__Z25scripting_class_from_name17ScriptingImagePtrPKcS1_
gNd:__ZN14dense_hash_mapI10KeyWrapperINSt3__24pairIPK12PropertyInfoP11Il2CppClassEEEj17ReflectionMapHashIS8_ENS9_14EqualsComparerINS1_8equal_toIS8_EEEENS1_9allocatorINS2_IKS9_jEEEEE15set_deleted_keyERSH_
MMb:__Z29scripting_class_enum_basetype17ScriptingClassPtr
l_f:_List_1_RemoveAt_m2574061728_gshared
jRc:__ZN16PhysicsManager2D7RaycastERK3RayfiR12RaycastHit2D
Gxh:__ZL69PersistentCall_t1134781144_CustomAttributesCacheGenerator_m_CallStateP21CustomAttributesCache
bub:__ZNK20LocalFileSystemPosix6ParentERK13FileEntryDataRN4core12basic_stringIcNS3_20StringStorageDefaultIcEEEE
lYi:_InternalEnumerator_1_get_Current_m1178991466_gshared
ple:_String_System_IConvertible_ToUInt16_m1403798471
opa:__ZN7ApiGLES17CopyBufferSubDataEjjlll
I0e:_DateTimeOffset__ctor_m2385466889_AdjustorThunk
Ooj:_U3CInvokeMessageIdSubscribersU3Ec__AnonStorey0_U3CU3Em__0_m4173548717
hCc:__ZN5Unity9rapidjson15GenericDocumentINS0_4UTF8IcEE13JSONAllocatorS4_E11ParseStreamILj1ES3_NS0_25GenericInsituStringStreamIS3_EEEERS5_RT1_
QYi:_InternalEnumerator_1_System_Collections_IEnumerator_get_Current_m1071982125_AdjustorThunk
aYb:__ZN25CameraStackRenderingState20GetOrCreateBuiltinRTE24BuiltinRenderTextureTypeii17DepthBufferFormat19RenderTextureFormatj22RenderTextureReadWrite14VRTextureUsagei
Wxg:_SslStreamBase_Flush_m2604051305
t8a:__ZNK14Texture2DArray26CanReuploadDataToGfxDeviceEv
v0b:__ZN17PrePassRenderLoop14RenderBasePassEP13RenderTextureRK14LightingLayersR13dynamic_arrayI16RenderObjectDataLj4EERbR10MinMaxAABB
Nqg:_CipherSuiteCollection_System_Collections_IList_IndexOf_m3838655345
Xzc:__ZN5IMGUI18RepaintModalWindowER8GUIState
IMj:_Event_get_type_m2108277021
ZPa:__ZNK15dense_hashtableINSt3__24pairIKN9ShaderLab7Program23ShaderKeywordSetAndHashEPKNS2_10SubProgramEEES4_NS3_24ShaderKeywordHashFunctorEN14dense_hash_mapIS4_S8_SA_NS0_8equal_toIS4_EE13stl_allocatorIS9_L18MemLabelIdentifier67ELi16EEE9SelectKeyESD_SG_E23find_position_with_hashERS5_j
a7a:__Z23SetSpriteMeshIndexCountP14SharedMeshDataj
l1h:__Z73RuntimeInvoker_RuntimeObject_RuntimeObject_RuntimeObject_Int32_t497012075PFvvEPK10MethodInfoPvPS4_
GXa:__ZN7Texture13SetFilterModeEi
DHj:_Predicate_1_BeginInvoke_m2753378216_gshared
oPf:_MonoType_GetConstructors_m576436409
Q2j:_AnimationOffsetPlayable__ctor_m1339561572
d0d:__ZN6il2cpp8metadata13GenericMethod9GetMethodEPK19Il2CppGenericMethod
Mq:__ZNSt3__26vectorIN4core12basic_stringIcNS1_20StringStorageDefaultIcEEEENS_9allocatorIS5_EEE7reserveEj
mwi:_Enumerator_System_Collections_IEnumerator_Reset_m4271720079_AdjustorThunk
pUj:_AudioSource_get_clip_m3567699615
xja:__ZN13GfxDeviceGLES11SetViewportERK5RectTIiE
Zwf:_X509CertificateCollection_GetEnumerator_m1793102636
e5e:_Enum_System_IConvertible_ToSByte_m3332081825
uPi:_Toggle_set_group_m857193318
_wc:__Z24Time_Get_Custom_PropTimev
Zd:_emscripten_glDepthRange
ANi:_Slider_set_minValue_m4266633211
wNj:_GUILayoutUtility_Internal_GetWindowRect_m2602694565
j6b:__ZNSt3__26vectorINS_4pairIN4core12basic_stringIcNS2_20StringStorageDefaultIcEEEES6_EE13stl_allocatorIS7_L18MemLabelIdentifier38ELi16EEE12__move_rangeEPS7_SC_SC_
anb:__Z14resize_trimmedINSt3__26vectorIN9ShaderLab20SerializedSubProgram12UAVParameterENS0_9allocatorIS4_EEEEEvRT_j
BCc:__ZN5Unity9rapidjson13GenericReaderINS0_4UTF8IcEES3_13JSONAllocatorE11ParseObjectILj1ENS0_25GenericInsituStringStreamIS3_EENS0_15GenericDocumentIS3_S4_S4_EEEEvRT0_RT1_
TRg:_SByte_ToString_m4287213948
smc:__ZN13BuildSettings34ConvertScenePathToDisplayScenePathERKN4core12basic_stringIcNS0_20StringStorageDefaultIcEEEE
Qba:__ZNSt3__218__insertion_sort_3IRNS_6__lessI14ObjectLoadDataS2_EEPS2_EEvT0_S6_T_
XZh:_MonoProperty_CachePropertyInfo_m36888628
jra:__ZN4crndL20crnd_default_reallocEPvjPjbS0_
vUj:_AudioSource_set_pitch_m3367246825
S8j:__ZNSt3__212basic_stringIcNS_11char_traitsIcEENS_9allocatorIcEEEC2ERKS5_
S7a:__ZN18SpriteAtlasManager19AddRequestingSpriteE4PPtrI6SpriteE
Wkc:__ZN16PackedQuatVector9PackQuatsEP11Quaternionfi
NMj:_Event_get_keyCode_m4159725358
jwc:__Z33Texture_CUSTOM_Internal_GetHeightP12Il2CppObject
e3b:__ZN23ScriptableRenderContextC2Ev
Gu:__ZN7mecanim9animation18ClipMuscleConstant8TransferI24GenerateTypeTreeTransferEEvRT_
kik:_emscripten_glTexSubImage2D__wrapper
iBg:_IPv6Address__ctor_m2209585047
Jne:_Decoder_get_FallbackBuffer_m2180300949
dbd:_UNITY_FT_Stream_GetChar
kag:_Collection_1_CheckWritable_m3660074737_gshared
hHb:__Z18Transfer_BlittableI18StreamedBinaryReadILb1EELb1EdEvRK29SerializationCommandArgumentsR31RuntimeSerializationCommandInfo
zke:_Single_System_IConvertible_ToUInt64_m1137697803
vGg:_X509ExtensionCollection_System_Collections_ICollection_CopyTo_m1925512065
VMb:__Z26BuildSerializationCacheFor17ScriptingClassPtrRb
dug:_TlsStream_Write_m3292783913
pxa:__ZN7ApiGLES15BlitFramebufferEN2gl6HandleILNS0_10ObjectTypeE9EEENS0_15FramebufferReadES3_S3_iiiiiiiiNS0_15FramebufferTypeE
W1e:_Decimal_System_IConvertible_ToChar_m2965798175
jdi:__Z112RuntimeInvoker_RuntimeObject_RuntimeObject_RuntimeObject_RuntimeObject_RuntimeObject_RuntimeObject_RuntimeObjectPFvvEPK10MethodInfoPvPS4_
v8f:_Collection_1_System_Collections_IList_set_Item_m3123923543_gshared
Tei:__Z84RuntimeInvoker_RuntimeObject_RuntimeObject_Vector3_t831627742_Quaternion_t1017567289PFvvEPK10MethodInfoPvPS4_
o9g:__ZL52Hashtable_t3967312552_CustomAttributesCacheGeneratorP21CustomAttributesCache
AL:__ZN13ProduceHelperI8AnimatorLb0EE7ProduceE18MemLabelIdentifier18ObjectCreationMode
mOb:__Z9InitInputv
yDb:__Z29Transfer_Blittable_ArrayFieldI24GenerateTypeTreeTransfer11ColorRGBA32EvRT_R9ArrayInfoRK23StaticTransferFieldInfo
LAg:_HttpVersion__cctor_m813061672
HId:__ZN6il2cpp2gc19AppendOnlyGCHashMapINSt3__24pairIPK10MethodInfoP11Il2CppClassEEP22Il2CppReflectionMethod17ReflectionMapHashIS9_ENS2_8equal_toIS9_EEE3AddERKS9_SB_
gvb:__ZN16MemoryFileSystem6DeleteER13FileEntryDatab
bsa:__ZL21BlitScaleStbImageImplRK14ImageReferenceRS_NS_10ColorSpaceE
DHe:_LayoutRebuilder_PerformLayoutControl_m2216109809
bUc:__ZNSt3__26__sortIR31RayHitsByInverseDepthComparitorP12RaycastHit2DEEvT0_S5_T_
syb:__Z29Transfer_Blittable_ArrayFieldI14SafeBinaryReadyEvRT_R9ArrayInfoRK23StaticTransferFieldInfo
IT:__ZN20SoundChannelInstance15setChannelGroupEPN4FMOD12ChannelGroupE
ZGj:_CompositeProfile_get_materialBleeding_m3490568515
Icj:_Group_Compile_m3784121580
Cig:_ReadOnlyCollection_1_System_Collections_IList_Contains_m3600507482_gshared
w_g:_TimeSpan_FromDays_m244453466
Kij:_Logger__ctor_m351729453
vc:invoke_vifffii
JRd:__ZN6il2cpp2vm9Exception27RaiseNullReferenceExceptionEv
ygi:__Z44RuntimeInvoker_RuntimeObject_Ray_t1925111898PFvvEPK10MethodInfoPvPS4_
SYf:_List_1_System_Collections_IList_get_Item_m109212516_gshared
fKa:__ZNK25MultiBlocksMemoryFileData5CloneEv
J5d:_GC_add_ext_descriptor
NHi:_MaskableGraphic_RecalculateClipping_m2111593259
qSi:_InternalEnumerator_1_System_Collections_IEnumerator_get_Current_m3696349118_AdjustorThunk
t7e:_CompareInfo_LastIndexOf_m700639217
Wak:dynCall_iiiiiiiiiiii
l_j:_TextGenerator_get_lines_m1502963721
Krb:__ZL26KeywordSetToStringDontSortRKNSt3__26vectorIN4core12basic_stringIcNS1_20StringStorageDefaultIcEEEENS_9allocatorIS5_EEEERS5_
nkd:__Z54Register_UnityEngine_Analytics_CustomEventData_AddCharv
Vta:__ZN6prcoreL17RemapGenericFloatI16TexFormatRGFloat17TexFormatRGBAHalfEEvPKNS_9InnerInfoE
r_h:_MonoProperty_GetOptionalCustomModifiers_m247065867
dO:__ZN12AudioManager22CreateFMODSoundFromWWWEP10IWWWStream15FMOD_SOUND_TYPE17FMOD_SOUND_FORMATjjbbP10SampleClip
kgc:__ZNK32RendererMaterialAnimationBinding15GenerateBindingERKN4core12basic_stringIcNS0_20StringStorageDefaultIcEEEEbRN11UnityEngine9Animation14GenericBindingE
UDg:_X509ExtensionCollection__ctor_m1163752396
KFe:_InputField_IsSelectionVisible_m651546454
Z8:__ZN8Remapper23GetOrGenerateInstanceIDERK26SerializedObjectIdentifier
Xt:__ZN17AnimationCurveTplI8Vector3fEC2ERKS1_
$a:invoke_iiiiiifffiiifii
xCf:_Int16_System_IConvertible_ToUInt16_m3495697259_AdjustorThunk
j_h:_MonoProperty_IsDefined_m530856065
sGh:__ZL116PointerEventData_t3890758728_CustomAttributesCacheGenerator_PointerEventData_t3890758728____worldNormal_PropertyInfoP21CustomAttributesCache
n7a:__ZN6Sprite8TransferI24GenerateTypeTreeTransferEEvRT_
HGg:_X509SubjectKeyIdentifierExtension__ctor_m294808691
Zxc:__Z48Register_UnityEngine_Transform_SetAsFirstSiblingv
q7a:__ZN7SubMesh8TransferI24GenerateTypeTreeTransferEEvRT_
AZe:_Convert_ToSingle_m2566818051
qZi:_InternalEnumerator_1_System_Collections_IEnumerator_get_Current_m295092784_gshared
gYf:_List_1_Find_m4253520248_gshared
PDg:_X509BasicConstraintsExtension_CopyFrom_m166883810
qui:_Enumerator_Reset_m801018488_AdjustorThunk
Vle:_String_CompareTo_m276232110
GBd:__ZN6il2cpp6icalls8mscorlib6SystemL16CheckMemberMatchI9FieldInfoNS_5utils10functional6FilterINSt3__212basic_stringIcNS8_11char_traitsIcEENS8_9allocatorIcEEEENS5_13VmStringUtils23CaseInsensitiveComparerEEEEEbPKT_PK11Il2CppClassSN_iRKT0_
aQh:_Default_GetBetterMethod_m402284033
Q7j:_poll
dec:__ZN13ProduceHelperI14Texture2DArrayLb0EE7ProduceE18MemLabelIdentifier18ObjectCreationMode
sv:__ZN7mecanim5human9HumanGoal8TransferI18StreamedBinaryReadILb0EEEEvRT_
gZc:__Z55Register_UnityEngine_Rigidbody2D_INTERNAL_CALL_AddForcev
nnc:__ZN9Transform23SetSiblingIndexInternalEib
$di:__Z67RuntimeInvoker_Void_t3431959231_Single_t209704323_Single_t209704323PFvvEPK10MethodInfoPvPS4_
jYe:_Convert_ToDouble_m3094600687
LDe:_InputField_GetLineEndPosition_m4284373434
ry:__ZN7mecanim5human12HumanPoseSubERNS0_9HumanPoseERKS1_S4_
FEi:_EqualityComparer_1_System_Collections_IEqualityComparer_Equals_m1274063087_gshared
fWd:__ZN6il2cpp8metadata15GenericMetadata15GetGenericClassEiPK17Il2CppGenericInst
Twb:__Z18Transfer_BlittableI14SafeBinaryReadLb0E10Matrix4x4fEvRK29SerializationCommandArgumentsR31RuntimeSerializationCommandInfo
lMb:__Z24GetFixedBehaviourManagerv
_Gh:__ZL78AnimationTriggers_t4063481465_CustomAttributesCacheGenerator_m_DisabledTriggerP21CustomAttributesCache
jBd:__ZN6il2cpp2vm10ThreadPool4WaitEP17Il2CppAsyncResultPPv
gne:_String_CharCopy_m1891124032
vWc:__ZN11Rigidbody2D8TransferI14SafeBinaryReadEEvRT_
$Tf:_Enumerator_System_Collections_IEnumerator_Reset_m2418727556_gshared
uAc:__ZN10GUIManager12AddGUIScriptER8ListNodeI13MonoBehaviourE
wMh:__ZL57BaseVertexEffect_t79310551_CustomAttributesCacheGeneratorP21CustomAttributesCache
Zuj:_SpaceAttribute__ctor_m3692501426
gVa:__ZN19ShaderPropertySheet20ReservePropertyCountEj
XVb:__ZN20DynamicPropertySheetD0Ev
NBj:_X509CertificateEnumerator_System_Collections_IEnumerator_MoveNext_m3375356039
o6b:__ZN14SafeBinaryRead17RegisterConverterEPKcS1_PFbPvRS_E
F4:__ZN35RegisterRuntimeInitializeAndCleanup8RegisterEPFvPvES2_iS0_
Due:_ButtonClickedEvent__ctor_m171499251
Os:__ZN7mecanim6memory16ChainedAllocator7ReserveEj
_he:_String_IndexOfAnyUnchecked_m668096782
Yqg:_CipherSuiteCollection_get_IsFixedSize_m3813673124
D1e:_DBNull_System_IConvertible_ToUInt64_m3882836884
cyc:__Z21Object_CUSTOM_DestroyP12Il2CppObjectf
orb:__ZN8Material26ResetAllCachedMaterialDataEP6Shader
lzg:_ListDictionary_GetEnumerator_m695908000
nbd:_UNITY_TT_Get_MM_Var
joe:_BaseEventData_get_selectedObject_m3865547301
ba:invoke_diddi
sdd:__ZNK2UI6Canvas13GetRenderModeEv
dwb:__Z18Transfer_BlittableI14SafeBinaryReadLb0EiEvRK29SerializationCommandArgumentsR31RuntimeSerializationCommandInfo
Zzd:__ZN6il2cpp2vm13MetadataCache30GetPropertyDefinitionFromIndexEi
nZj:_Font_add_textureRebuilt_m4264375229
Pnd:__ZN22BaseUnityConnectClient17InitializeSessionERKN4core12basic_stringIcNS0_20StringStorageDefaultIcEEEES6_N19CloudServiceHandler13InitModeFlagsE
Trf:_BigInteger_GeneratePseudoPrime_m3286647923
NJ:__ZN15SerializeTraitsI9OffsetPtrIN7mecanim9animation23BlendDirectDataConstantEEE8TransferI24GenerateTypeTreeTransferEEvRS4_RT_
dpc:__ZN13MonoBehaviour34StopCoroutineFromEnumeratorManagedE18ScriptingObjectPtr
XHe:_Array_GetValueImpl_m479043526
Wjf:_Array_Resize_TisCustomAttributeNamedArgument_t3990136598_m3508422787_gshared
P7e:_CultureInfo_get_CompareInfo_m2004795973
t_e:_Convert_ToUInt64_m3853508874
SJc:__ZN11UnityEngine9Analytics18SceneLoadTimeEvent12SetSceneLoadERKN4core12basic_stringIcNS2_20StringStorageDefaultIcEEEEiyyyy
yib:__ZN30RuntimeInitializeOnLoadManager8TransferI18StreamedBinaryReadILb0EEEEvRT_
F3c:_UNITY_tt_face_load_pclt
yoc:__ZL34GetComponentsImplementationRecurseILb1ELi0ELi2EEbR10GameObjectbRK17CompareParametersRK39GetComponentsImplementation_ReturnValue
ROc:__ZN10ClipperLib7Clipper24InsertLocalMinimaIntoAELEx
Wdh:__ZL59_ConstructorInfo_t4262632258_CustomAttributesCacheGeneratorP21CustomAttributesCache
Tkf:_Array_Sort_TisUILineInfo_t233092741_m3517886725_gshared
rVb:__ZNK6Camera18WorldToScreenPointERK8Vector3fPb
Qid:__ZN14UnityAnalyticsD0Ev
gPg:_ObjectReader_ReadBoxedPrimitiveTypeValue_m208116862
nee:_RNGCryptoServiceProvider_RngClose_m829538322
Lwa:__Z18IsCompressedFormat14GraphicsFormat
uGf:_IntPtr__ctor_m3993326531_AdjustorThunk
Ave:_ClipperRegistry_Cull_m1326885139
tqj:_PropertyName_Equals_m1745871989
Y0j:_CanvasRenderer_SplitUIVertexStreamsInternal_m2227407042
j8:__ZNSt3__227__insertion_sort_incompleteIRPFbRKN18AwakeFromLoadQueue4ItemES4_EPS2_EEbT0_S9_T_
Nzj:_KeyUsageExtension_Encode_m282348256
E7j:_strrchr
bKg:_RemotingServices_FindInterfaceMethod_m1308361382
byd:__ZN14dense_hash_mapI10KeyWrapperIN6il2cpp5utils13dynamic_arrayIPK10Il2CppTypeLj4EEEEPFvvENS1_8metadata19Il2CppSignatureHashENS8_14EqualsComparerINSB_22Il2CppSignatureCompareEEENSt3__29allocatorINSG_4pairIKS8_SA_EEEEE15set_deleted_keyERSJ_
t3a:__ZN26EnlightenSystemInformation8TransferI14SafeBinaryReadEEvRT_
yDe:_InputField_get_text_m4266876128
hpd:__ZN11UnityEngine15PlatformWrapper20SetPlayerPrefsUInt64ERKN4core12basic_stringIcNS1_20StringStorageDefaultIcEEEEy
kbb:__ZN12MeshRendererD0Ev
EX:__ZN12AudioManager35GetCurrentSpatializerDefinitionNameEv
Trg:_SendRecordAsyncResult_get_CompletedWithError_m4132121855
Mh:_utime
TF:__Z28SetExposedSkeletonTransformsRKN7mecanim9animation14AvatarConstantERKN11UnityEngine9Animation30AnimatorGenericBindingConstantERKNS_8skeleton13SkeletonPoseTIN4math4trsXEEERKNSA_INSB_7affineXEEERNS5_21AvatarBindingConstantEy
gGd:__ZNSt3__26vectorIN6il2cpp2vm17TypeNameParseInfoENS_9allocatorIS3_EEE8allocateEj
_Bj:_X509Store_CheckStore_m374665321
Kn:FUNCTION_TABLE_viiiiif
QAi:_Dictionary_2_ContainsKeyValuePair_m1920128112_gshared
yci:__Z115RuntimeInvoker_RuntimeObject_RuntimeObject_RuntimeObject_RuntimeObject_Int32_t497012075_RuntimeObject_RuntimeObjectPFvvEPK10MethodInfoPvPS4_
Pn:FUNCTION_TABLE_viiiiii
GZf:_List_1_System_Collections_IList_Contains_m569064117_gshared
wmf:_GameObject_GetComponentsInParent_TisRuntimeObject_m3251941908_gshared
qH:__ZN7mecanim9animation22DestroyAvatarWorkspaceEPNS0_15AvatarWorkspaceERNS_6memory9AllocatorE
krf:_BigInteger_op_Equality_m3401471560
bxg:_SslHandshakeHash_initializePad_m3709302110
tAj:_X509ExtensionCollection__ctor_m1281835295
B0b:__ZN15LightmapSTCacheC2ER13BatchRendererR15RenderLoopStats
Szc:__ZNSt3__210__list_impIN10GUIManager12SortedScriptE11memory_poolIS2_EE5clearEv
$$a:__ZN14PlayableOutput17SetSourcePlayableEP8Playable
qib:__ZNSt3__26vectorIN4core12basic_stringIcNS1_20StringStorageDefaultIcEEEE13stl_allocatorIS5_L18MemLabelIdentifier13ELi16EEE8__appendEj
IG:__ZN7mecanim9animation29MotionOutputGetDeltaTransformEPKNS0_12MotionOutputE
juf:_SmallXmlParser_Error_m1708260337
tff:_Array_InternalArray__ICollection_Add_TisCustomAttributeTypedArgument_t694350192_m3009094312_gshared
Gle:_String_IndexOf_m3324545538
RJc:__ZN27PerformanceReportingManager21OnSceneTimingCallbackERK15SceneLoadTimingRKN4core12basic_stringIcNS3_20StringStorageDefaultIcEEEE
iM:__ZN8Animator14OnAddComponentEPN5Unity9ComponentE
uxc:__Z43Transform_CUSTOM_INTERNAL_get_localRotationP12Il2CppObjectP11Quaternionf
uvj:_StackTraceUtility_IsSystemStacktraceType_m3852793481
BYf:_List_1_set_Item_m538649755_gshared
jfk:_glGetShaderInfoLog__wrapper
_Ke:_Boolean_System_IConvertible_ToChar_m62425391
pi:_emscripten_glGetTexParameteriv
cIe:_Array_System_Collections_IList_Contains_m3070281075
UQc:__ZN9Polygon2D8TransferI18StreamedBinaryReadILb0EEEEvRT_
hcc:__Z13RegisterClassI4MeshEvv
y$a:__ZN8PlayableD0Ev
yxj:_WorkRequest_Invoke_m3647195735
GP:__ZN12AudioManager8TransferI19StreamedBinaryWriteILb0EEEEvRT_
fwg:_RSASslSignatureDeformatter_SetKey_m618968579
g4h:__Z103RuntimeInvoker_Void_t3431959231_SByte_t1872536467_SByte_t1872536467_SByte_t1872536467_SByte_t1872536467PFvvEPK10MethodInfoPvPS4_
oPe:_ArrayList_Clone_m2304585478
$Ve:_Convert_ToByte_m4263970695
Ltb:__ZN22LocalFileSystemHandler9MakeLocalER13FileEntryDatab
M1d:__ZN6il2cpp2vm8Profiler10AllocationEP12Il2CppObjectP11Il2CppClass
xNe:_Convert_ToInt16_m1017722015
dVh:_MethodBuilder_Invoke_m434546155
wti:_Enumerator_VerifyCurrent_m1065335868_AdjustorThunk
f1c:__ZNSt3__23mapIN20TextRenderingPrivate7FontRefENS1_6OSFontENS_4lessIS2_EENS_9allocatorINS_4pairIKS2_S3_EEEEEixERS8_
xha:__Z13FormatOrderedPKcz
KCd:__ZN6il2cpp2vm8basepathEPKc
WVi:_InternalEnumerator_1_get_Current_m777708084_AdjustorThunk
XDg:_X509Certificate2_get_NotBefore_m3113827182
u_c:__ZN14SafeBinaryRead21TransferSTLStyleArrayI10vector_mapINSt3__24pairIttEEfN20TextRenderingPrivate8FontImpl14KerningCompareENS2_9allocatorINS3_IS4_fEEEEEEEvRT_17TransferMetaFlags
Ecc:__Z13RegisterClassI15QualitySettingsEvv
u0d:__ZN6il2cpp2vm6String21InitializeEmptyStringEP11Il2CppClass
k0b:__ZN25DeferredRenderLoopScratchD0Ev
OA:__ZN27AnimationLayerMixerPlayable14SetInputWeightEif
ny:__ZN7mecanim9animation17EvaluateHumanPoseERKNS0_18ClipMuscleConstantERKNS0_15ClipMuscleInputEPKfRKNS0_12MotionOutputERNS_5human9HumanPoseE
LZ:__ZN23CloudWebServicesManager23VirtualRedirectTransferER14SafeBinaryRead
NVf:_List_1__ctor_m3390625470_gshared
UQf:_NumberFormatter_NumberToString_m3403695117
Cjf:_Array_qsort_TisColor32_t1926316813_m2475192994_gshared
Jmb:__ZN15dense_hashtableINSt3__24pairIKiN4core17string_with_labelILi1EEEEEi18SInt32HashFunctionN14dense_hash_mapIiS5_S7_NS0_8equal_toIiEE13stl_allocatorIS6_L18MemLabelIdentifier1ELi16EEE9SelectKeyESA_SD_E9copy_fromERKSG_j
mRa:__ZN6Camera11ResetAspectEv
_gb:__ZN15ResourceManagerD0Ev
fVa:__ZNK17InstancedPropInfo22FillInstancePropertiesER19ShaderPropertySheetjPK17BatchInstanceDatajRK15RenderNodeQueue
jQa:__ZN22CreateGpuProgramOutputD2Ev
ZGg:_CaptureCollection__ctor_m2036539049
fmh:__ZL57FlagsAttribute_t4082381309_CustomAttributesCacheGeneratorP21CustomAttributesCache
lX:__ZN13ProduceHelperI13AudioListenerLb0EE7ProduceE18MemLabelIdentifier18ObjectCreationMode
lJ:__ZN7mecanim9animation23BlendDirectDataConstant8TransferI14SafeBinaryReadEEvRT_
Wsb:__ZN12HandlerChain4OpenER13FileEntryData14FilePermission16FileAutoBehavior
LId:__ZN15dense_hashtableINSt3__24pairIK10KeyWrapperINS1_IPK10MethodInfoP11Il2CppClassEEEjEES9_17ReflectionMapHashIS8_EN14dense_hash_mapIS9_jSD_NS9_14EqualsComparerINS0_8equal_toIS8_EEEENS0_9allocatorISB_EEE9SelectKeyESI_SK_E6insertERKSB_
bKc:__ZN27PerformanceReportingManager29OnSceneLoadedAfterAwakeStaticEPS_iR18AwakeFromLoadQueueN19RuntimeSceneManager11LoadingModeE
jba:__ZN14FileCacherReadD2Ev
ikb:__ZN13RendererScene23UpdatePreviousFrameDataEii
_Og:_ObjectManager_RegisterObjectInternal_m3812158561
fXj:__ZL25UnresolvedVirtualCall_123P12Il2CppObjectffPK10MethodInfo
crc:__Z50Register_UnityEngine_CullingGroup_FinalizerFailurev
Skb:__ZN27UnloadUnusedAssetsOperationD0Ev
iJj:_InvokableCall_4_Invoke_m43851087_gshared
Evj:_Texture_set_width_m3320530214
bRh:_ByRefType_FormatName_m2695416890
a_e:_Convert_ToUInt32_m620730341
vN:__ZN9AudioClip23VirtualRedirectTransferER18StreamedBinaryReadILb0EE
Xif:_Array_InternalArray__set_Item_TisSingle_t209704323_m3168635290_gshared
eHf:_EndOfStreamException__ctor_m565974191
bYh:_Module_GetCustomAttributes_m4216844105
lqf:_SimpleCollator_MatchesBackward_m439775082
ebg:_Collection_1_System_Collections_IList_IndexOf_m4021122401_gshared
sS:__ZN5audio5mixer22UpdateAudioMixerMemoryERKNS0_18AudioMixerConstantERNS0_16AudioMixerMemoryEfPN4FMOD6SystemEf
Qj:_glCopyTexSubImage2D
G5b:__ZN18ScreenManagerWebGL13SetShowCursorEb
n6j:_frexp
zNf:_UnmanagedMemoryStream_Flush_m217696816
qgd:__ZN2UI13CanvasManager14GetRenderOrderEPKNS_6CanvasE
Pwb:__Z18Transfer_BlittableI14SafeBinaryReadLb0E5RectTIfEEvRK29SerializationCommandArgumentsR31RuntimeSerializationCommandInfo
Iqd:__ZNK20UnityWebRequestProtoI24UnityWebRequestTransport16AtomicRefCounter14RedirectHelper14ResponseHelper15DownloadHandler13UploadHandler12HeaderHelper14AsyncOperationE14GetUploadBytesEv
h6j:_fmt_u
D1g:_UInt32_System_IConvertible_ToChar_m3500969390
Pqa:__ZN18AsyncUploadManager19AsyncResourceUploadER9GfxDeviceii9TextureID
Tpa:__ZN14GfxContextGLES14GetFramebufferEv
thk:_emscripten_glGenVertexArrays__wrapper
lyi:_ValueCollection__ctor_m842854528_gshared
Ifj:_AsyncOperation_t3111291796_marshal_pinvoke_back
Gsa:__ZN6prcoreL21CreateRemapAnyBlitterE13TextureFormatS0_
emc:__ZN17AnimationCurveTplIfE16StripInvalidKeysEv
gfd:__ZNK2UI6Canvas17GetSortingLayerIDEv
oUc:__ZN14Raycast2DQuery8RunQueryEb
$bc:__Z13RegisterClassI17GlobalGameManagerEvv
a5a:__ZN8Renderer24SetupNewRendererForSceneEv
c1i:_DefaultComparer_Compare_m3962793333_gshared
crj:_Vector3_get_normalized_m2324904141
lJf:_FileStream_ReadSegment_m2979614598
Yye:_Dropdown_CreateDropdownList_m2373446730
ZGc:__Z35Transfer_Blittable_FixedBufferFieldI8JSONReadtEvRK29SerializationCommandArgumentsR31RuntimeSerializationCommandInfo
Wic:__ZN14PlayableOutput6HandleEv
K6a:__ZNK6Sprite22GetTypeVirtualInternalEv
Jn:FUNCTION_TABLE_iiiiiiiiiiiiii
w4c:_UNITY_tt_get_cmap_info
ADb:__Z29Transfer_Blittable_ArrayFieldI24GenerateTypeTreeTransfer5RectTIiEEvRT_R9ArrayInfoRK23StaticTransferFieldInfo
vWa:__ZN16ReflectionProbes8ScheduleEN18ReflectionProbeJob7JobTypeEP15ReflectionProbei
SDe:_InputField_get_characterLimit_m4209417968
OLb:__ZN13MonoBehaviour7SetNameEPKc
CNj:_GUIStyle_Init_m535896068
QHa:__Z18IsDirectoryCreatedRKN4core12basic_stringIcNS_20StringStorageDefaultIcEEEE
bed:__ZN2UI13CanvasManagerD2Ev
CVg:_StringBuilder_Replace_m4070114230
BRf:_KeyValuePair_2_ToString_m3713268649_gshared
oHi:_MatEntry__ctor_m3695169071
M0c:_UNITY_FT_GlyphLoader_Done
yOf:_MonoCustomAttrs_GetCustomAttributes_m1190816726
Emj:_Material_DisableKeyword_m3820328273
nkc:__ZN9Polygon2D16CheckConsistencyEv
kBj:_X509Certificate_get_PublicKey_m1853931747
IUc:__ZN19OverlapPointQuery2D14InitializeAABBER6b2AABB
Q_g:_TimeSpan_op_LessThanOrEqual_m2307434366
k5c:_tt_cmap14_char_var_index
bKb:__Z35Transfer_Blittable_FixedBufferFieldI18StreamedBinaryReadILb0EEdEvRK29SerializationCommandArgumentsR31RuntimeSerializationCommandInfo
Eqj:_Quaternion_Internal_FromEulerRad_m1529349986
F6c:_psh_globals_new
Jia:__ZN9GfxDevice20SetMaxBufferedFramesEi
owg:_SslCipherSuite_prf_m1888464137
Pnf:_Array_InternalArray__get_Item_TisUICharInfo_t1968196628_m2419807171_gshared
CLc:__ZN10Collider2D19WakeAllBodyContactsEv
Z5i:_ClientIdentity_get_ClientProxy_m1388379988
lbk:dynCall_vdd
Y8e:_Array_InternalArray__ICollection_Contains_TisILTokenInfo_t1114482274_m1771697282_gshared
Rfd:__ZN2UIL17UnloadAllCanvasesEv
J7b:__Z23ConvertIntegerToTypePtrIsEbPvR14SafeBinaryRead
t1e:_DBNull_System_IConvertible_ToDecimal_m3521061606
$Nc:__ZN12b2MouseJoint11ShiftOriginERK6b2Vec2
oEe:_InputField_EnforceContentType_m3378087083
Ndj:_Uri__ctor_m676403213
Osa:__ZN6prcoreL29inner_stretch_rgb565_bilinearEPKNS_9InnerInfoE
mOj:_GUILayoutEntry__cctor_m2384737559
ffa:__ZN8Playable10DisconnectEPS_i
PWe:_DateTime__ctor_m766750322
_hd:__Z33Canvas_Get_Custom_PropWorldCameraP12Il2CppObject
tdj:_Parser_IsSingleline_m668063187
RQf:_NumberFormatter_GetClone_m2973580434
wOe:_CharEnumerator__ctor_m4269712408
v$b:__ZNK14RenderSettings19GetFlatAmbientColorEv
cOe:_Char_IsLetter_m984521302
R5e:_Environment_GetOSVersionString_m1883309429
gsa:__ZN6prcoreL10inner_flipILj4EEEvPhS1_j
I_j:_Func_2_Invoke_m4287787902_gshared
Lfb:__ZN18StreamedBinaryReadILb0EE21TransferSTLStyleArrayI10vector_mapIPKN5Unity4TypeE7Hash128NSt3__24lessIS6_EENS8_9allocatorINS8_4pairIS6_S7_EEEEEEEvRT_17TransferMetaFlags
KC:__ZNK27StateMachineBehaviourPlayer15IsSenderEnabledEv
wJi:_Scrollbar__ctor_m1191263889
Zyg:_ListDictionary_Clear_m912864337
S1g:_UInt32_System_IConvertible_ToSByte_m2009571733_AdjustorThunk
Uxc:__Z40Register_UnityEngine_Transform_SetParentv
B8a:__ZN14Texture2DArray17UploadToGfxDeviceEv
gkj:_UnityEvent_GetDelegate_m3840734640
f3f:_List_1_get_Item_m688792901_gshared
mR:__Z14FMODMemoryFreePvjPKc
geh:__ZL57_ModuleBuilder_t2497492914_CustomAttributesCacheGeneratorP21CustomAttributesCache
B4j:_FieldWithTarget_GetValue_m445218137
W7c:_cf2_glyphpath_moveTo
JKc:__ZNK13BoxCollider2D22GetTypeVirtualInternalEv
Kme:_String_Concat_m2285861432
FPh:_AssemblyName_ComputePublicKeyToken_m751297120
mz:__ZN7mecanim23TransformValueArrayLoopEiiiRKN4math4trsXES3_RNS_10ValueArrayEf
ttd:__ZN6il2cpp2vmL15GetBitmapNoInitEP11Il2CppClassPjRjj
gJe:_Array_Copy_m2623836338
Zai:__Z72RuntimeInvoker_TimeSpan_t1710996894_Double_t2155864068_Int64_t2229785298PFvvEPK10MethodInfoPvPS4_
R5d:_GC_is_heap_ptr
Qkj:_GameObject_get_tag_m1628339804
ZOe:_ArrayList_IndexOf_m2904082002
VF:__ZN7mecanim5human10RetargetToEPKNS0_5HumanEPKNS0_9HumanPoseES6_RKN4math4trsXEPS4_PNS_8skeleton13SkeletonPoseTIS8_EESF_
ez:__ZN7mecanim9animation8SeekClipERKNS0_12StreamedClipERNS0_18StreamedClipMemoryEf
eWj:__ZL24UnresolvedVirtualCall_68P12Il2CppObjectS0_iS0_S0_S0_S0_S0_S0_PK10MethodInfo
ym:_emscripten_glIsTexture
ku:__ZN24CompressedAnimationCurveaSERKS_
cl:_emscripten_glHint
yXc:__ZZN10Collider2D15InitializeClassEvEN30FunctorImpl_98kDidAddComponent4CallEPviR11MessageData
bbd:_ft_var_readpackeddeltas
EGb:__Z35Transfer_Blittable_FixedBufferFieldI18StreamedBinaryReadILb1EEtEvRK29SerializationCommandArgumentsR31RuntimeSerializationCommandInfo
Yrg:_Context_get_Protocol_m1975974524
DEg:_X509Chain_ProcessCertificateExtensions_m1747278935
Bm:_SDL_UpperBlit
rWa:__Z35GetTextureDecodeValuesWithIntensity16TextureUsageMode17TextureColorSpace10ColorSpacef
$Md:__ZN15dense_hashtableINSt3__24pairIK10KeyWrapperINS1_IPK9EventInfoP11Il2CppClassEEEjEES9_17ReflectionMapHashIS8_EN14dense_hash_mapIS9_jSD_NS9_14EqualsComparerINS0_8equal_toIS8_EEEENS0_9allocatorISB_EEE9SelectKeyESI_SK_E15set_deleted_keyERKSB_
gOj:_GUIStyle_get_stretchWidth_m797384158
QGe:_LayoutElement_set_layoutPriority_m1779620743
WNc:__ZNK12b2MouseJoint10GetAnchorAEv
DXd:__ZNK6il2cpp2os6Socket12GetLastErrorEv
mkj:_UnityEventBase_RebuildPersistentCallsIfNeeded_m2703048862
tMb:__ZN14SafeBinaryRead20OverrideRootTypeNameEPKc
nba:__ZN14FileCacherRead16UnlockCacheBlockEj
cpf:_MSCompatUnicodeTable_Level3_m769536576
gye:_DropdownEvent__ctor_m240563622
Jlj:_Input_set_compositionCursorPos_m3495257275
VRf:_KeyValuePair_2_ToString_m2776260180_gshared
bte:_StandaloneInputModule_UpdateModule_m1118224200
WAg:_ServicePoint__ctor_m2850505470
Tc:_emscripten_glUniform1f
sbc:__ZN13dynamic_arrayIS_I8Vector2fLj4EELj4EE18resize_initializedEjRKS1_12ResizePolicy
Lwi:_Enumerator_MoveNext_m191456040_gshared
l1c:__Z20ParseImageParametersR11UTF16StringRiRN20TextRenderingPrivate16TextFormatChangeE
w0g:_TypedReference_GetHashCode_m1467073488
Zc:_emscripten_glUniform1i
YBb:__Z18Transfer_BlittableI24GenerateTypeTreeTransferLb1EN4math12int3_storageEEvRK29SerializationCommandArgumentsR31RuntimeSerializationCommandInfo
p5:__Z33UnregisterDeviceEventCallbackImplPFv23UnityGfxDeviceEventTypeE
EJi:__Z14bankers_roundff
mob:__ZN9ShaderLab16SerializedTagMapaSERKS0_
u_:__ZN11UnityEngine15CloudWebService16SessionContainer20RestoreSessionHeaderERKN4core12basic_stringIcNS2_20StringStorageDefaultIcEEEES8_RNS0_13SessionHeaderE
J7d:__ZN6il2cpp2os12Cryptography23GetCryptographyProviderEv
Ghf:_Array_InternalArray__Insert_TisLabelData_t2733971455_m3245894307_gshared
eH:__ZN11UnityEngine9Animation27CreateAvatarBindingConstantER9TransformPKN7mecanim9animation14AvatarConstantERNS3_6memory9AllocatorE
Hfd:__ZN2UI14CanvasRenderer13SyncTransformENS0_8SyncFlagEb
rpc:__ZN9BlobWriteC2ER13dynamic_arrayIhLj16EE24TransferInstructionFlags19BuildTargetPlatform
x9:__ZN14MessageHandler3GetEv
C9i:_PatternCompiler_Emit_m2533925311
vqa:__ZN10DynamicVBO9DrawChunkERK21DynamicVBOChunkHandle17ShaderChannelMaskS3_P17VertexDeclarationPKNS_10DrawParamsEi
m4g:_WeakReference_Finalize_m3756106275
ld:_emscripten_glAttachShader
e9b:__Z16tesedgeIntersectP10TESSvertexS0_S0_S0_S0_
caj:_PatternCompiler_EmitFastRepeat_m1148660207
Iia:__ZN9GfxDevice13SetActiveTierE12GraphicsTier
Qdb:__ZNSt3__26vectorIN4core12basic_stringIcNS1_20StringStorageDefaultIcEEEENS_9allocatorIS5_EEE6assignIPS5_EENS_9enable_ifIXaasr21__is_forward_iteratorIT_EE5valuesr16is_constructibleIS5_NS_15iterator_traitsISC_E9referenceEEE5valueEvE4typeESC_SC_
z9i:_PatternCompiler_EncodeOp_m1316278453
Dyj:_Vector3_get_left_m2131900783
a9i:_Match__cctor_m3485694757
TMj:_Event_get_current_m1405967146
kGf:_Int64_ToString_m2353198760_AdjustorThunk
yee:_RSACryptoServiceProvider_Common_m2937599550
wwb:__Z18Transfer_BlittableI14SafeBinaryReadLb0E11QuaternionfEvRK29SerializationCommandArgumentsR31RuntimeSerializationCommandInfo
GKc:__ZN13BoxCollider2D16CheckConsistencyEv
LJb:__Z18Transfer_BlittableI18StreamedBinaryReadILb0EELb1E12PropertyNameEvRK29SerializationCommandArgumentsR31RuntimeSerializationCommandInfo
loe:_BaseEventData_set_selectedObject_m1280247772
R2:_tlsf_walk_heap
nb:invoke_vif
hti:_Enumerator_System_Collections_IDictionaryEnumerator_get_Entry_m2249827057_gshared
ob:invoke_vid
h9j:__ZNSt3__212basic_stringIcNS_11char_traitsIcEENS_9allocatorIcEEE6insertEjPKc
iH:__ZN7mecanim8skeleton18CreateSkeletonPoseIN4math7affineXEEEPNS0_13SkeletonPoseTIT_EEPKNS0_8SkeletonERNS_6memory9AllocatorE
CMh:__ZL50Outline_t3301808633_CustomAttributesCacheGeneratorP21CustomAttributesCache
qb:invoke_vii
SUb:__ZNK12ImageFilters8DoRenderER17ShaderPassContextP13RenderTextureS3_RKNSt3__26vectorI11ImageFilterNS4_9allocatorIS6_EEEE
u3e:_DebuggableAttribute__ctor_m2840183908
BGa:__ZN12TLSAllocatorI14StackAllocatorE16ThreadInitializeEP13BaseAllocator
L$g:_Type_IsSubclassOf_m4094203028
hja:__ZN9GfxDevice32UpdateStereoViewProjectionMatrixE21MonoOrStereoscopicEye
CRb:__ZN15dense_hashtableINSt3__24pairIKN4core12basic_stringIcNS2_20StringStorageDefaultIcEEEEP20ArchiveStorageReaderEES6_20StringHash32FunctionIS6_EN14dense_hash_mapIS6_S9_SC_NS0_8equal_toIS6_EE13stl_allocatorISA_L18MemLabelIdentifier55ELi16EEE9SelectKeyESF_SI_E12resize_deltaEjj
yJe:_Array_qsort_m2362155764
fhd:__Z41CanvasRenderer_CUSTOM_DisableRectClippingP12Il2CppObject
Rvj:_Time_get_time_m1753422194
lJe:_Array_LastIndexOf_m2741298078
TBg:_ServicePoint_set_UsesProxy_m2072120011
SKa:__ZN25SingleBlockMemoryFileDataD0Ev
LGa:__ZNSt3__26vectorI14ConstantStringNS_9allocatorIS1_EEE6assignINS_11__wrap_iterIPS1_EEEENS_9enable_ifIXaasr21__is_forward_iteratorIT_EE5valuesr16is_constructibleIS1_NS_15iterator_traitsISA_E9referenceEEE5valueEvE4typeESA_SA_
p_:__ZN11UnityEngine15CloudWebService16SessionContainer21ConvertFromFolderTimeERKN4core12basic_stringIcNS2_20StringStorageDefaultIcEEEEPjPt
hyb:__ZNSt3__26vectorI8GUIStyle13stl_allocatorIS1_L18MemLabelIdentifier1ELi16EEE7reserveEj
bRd:__ZN6il2cpp6icalls8mscorlib6System9Threading6Thread27GetSerializedCurrentCultureEP12Il2CppThread
X1j:_Physics2D_Raycast_m606191592
vmg:_ModulusRing_Pow_m2704959246
EIf:_FileLoadException__ctor_m120712826
$dc:__Z31CalculateHierarchyTransformType23TransformAccessReadOnly
Xkk:_glCheckFramebufferStatus__wrapper
xcc:__Z13RegisterClassI11TimeManagerEvv
DGg:_X509KeyUsageExtension_Encode_m3936992196
dR:__ZN4FMOD8ChannelI11setPositionEjj
vrg:_ClientRecordProtocol_createClientHandshakeMessage_m3704408041
Wme:_String_CreateString_m4091012280
ALi:_ScrollRect_UpdatePrevData_m1359810791
M3d:_GC_set_fl_marks
$Lf:_StreamWriter_LowLevelWrite_m2232059520
OKg:_DictionaryEnumerator_MoveNext_m898174141
Kke:_Single_Equals_m3102461942
kja:__ZN9GfxDevice17SetStereoViewportE15StereoscopicEyeRK5RectTIiE
xga:__ZN17BaseObjectManager13StaticDestroyEPv
xVg:_StringBuilder_set_Chars_m869713836
B8i:_AsyncResult_SyncProcessMessage_m2026443653
MBj:_X509CertificateEnumerator_System_Collections_IEnumerator_get_Current_m2684435133
YP:__ZN4FMOD6Reverb13setPropertiesEPK22FMOD_REVERB_PROPERTIES
EWb:__ZN9DepthPass13PrepareSubsetEjRK10RenderNodeifRK17ShaderReplaceData
cDi:_DefaultComparer_Equals_m3677282705_gshared
Nh:_glEndQuery
wme:_String_Replace_m3364106913
xuj:_ScriptableObject_CreateInstance_m241463856
Vke:_Single_ToString_m658681846_AdjustorThunk
zlc:__Z35SetMeshComponentFromArrayFromScriptR4Mesh30InternalScriptingShaderChannel34InternalScriptingVertexChannelTypei17ScriptingArrayPtri
Fq:__ZN4core20StringStorageDefaultIcE6assignEPKcj
WHf:_Path_GetServerAndShare_m700857240
fXd:__ZN15dense_hashtableINSt3__24pairIK10KeyWrapperIP12Il2CppObjectEN6il2cpp2gc9CachedCCWEEES5_NS7_5utils11PointerHashIS3_EEN14dense_hash_mapIS5_S9_SD_NS5_14EqualsComparerINS0_8equal_toIS4_EEEENS0_9allocatorISA_EEE9SelectKeyESI_SK_E3endEv
CKg:_MethodDictionary_get_Item_m2238934036
sVe:_Convert__cctor_m3255067301
TNd:__ZN15dense_hashtableINSt3__24pairIK10KeyWrapperINS1_IP11Il2CppClassjEEES4_EES6_N6il2cpp8metadata14ArrayClassHashEN14dense_hash_mapIS6_S4_SB_NS6_14EqualsComparerINSA_17ArrayClassCompareEEENS0_9allocatorIS8_EEE9SelectKeyESF_SH_E9copy_fromERKSK_j
N3b:__ZN6Camera6SetFarEf
V1c:_UNITY_FT_Init_Class_ft_bitmap_glyph_class
wta:__ZN6prcoreL12RemapGenericI17TexFormatABGR888817TexFormatARGB8888EEvPKNS_9InnerInfoE
bMa:__ZN11GameManager17MainThreadCleanupEv
uqf:_SimpleCollator_MatchesForward_m1035331203
Mid:__Z50Register_UnityEngine_UISystemProfilerApi_EndSamplev
Nb:invoke_vffff
Ang:_HMAC_get_Key_m1812715757
DVh:_TypeBuilder_is_nested_in_m290137380
RKc:__ZN10Collider2D12AddToManagerEv
T9c:_UNITY_tt_slot_init
vSb:__ZZ23InitPlayerLoopCallbacksvEN41PostLateUpdateUpdateResolutionRegistrator7ForwardEv
rLb:__Z25scripting_array_class_get17ScriptingClassPtrj
$Ec:__ZL22Transfer_ManagedObjectI9JSONWriteLb1EEvRK29SerializationCommandArgumentsR31RuntimeSerializationCommandInfo
dN:__ZNK10SampleClip22GetTypeVirtualInternalEv
pka:__ZN9GfxDevice20DestroyRenderSurfaceER12ObjectHandleI17RenderSurface_TagP17RenderSurfaceBaseE
nha:__ZN18SpriteAtlasManagerC2Ev
Nac:__ZL24PrepareSpriteRenderNodesILb1EEvR35RenderNodeQueuePrepareThreadContext
$Ca:__ZN9GfxDevice22UpdateComputeResourcesEjPK9TextureIDPK16TextureDimensionPKijPKjjPK15ComputeBufferIDS7_PK20ComputeBufferCounterjSC_S2_S5_S9_SF_
kPa:__ZN12_GLOBAL__N_15qAsinEff
CGa:__ZN12TLSAllocatorI14StackAllocatorE13ThreadCleanupEv
C5i:_ChannelServices_RegisterChannelConfig_m2078879692
u1d:__ZThn4_N6il2cpp2vm13ComObjectBase16MarshalInterfaceEP13Il2CppIStreamRK10Il2CppGuidPvjS7_j
rPe:_ArrayListWrapper__ctor_m1369980526
O9a:__ZN4Mesh27SwizzleVertexColorsIfNeededEb
cOb:__Z27FindActiveTransformWithPathPKc
DLi:_ScrollRect_GetBounds_m2612923147
Hqc:__Z45Register_UnityEngine_Camera_INTERNAL_set_rectv
OOa:__ZNK6Camera7GetNearEv
iTj:_PCMReaderCallback_Invoke_m2444449615
Ewa:__ZN7ApiGLES11UnmapBufferEjN2gl12BufferTargetE
E1d:__ZN6il2cpp5utilsL24Utf32CharToSurrogatePairEjRA2_Ds
d2a:__Z25GetNextAllowedTextureSizeib13TextureFormat
WNb:__ZN20LocalFileSystemWebGL4CopyER13FileEntryDataS1_
Q0:__ZN19CloudServiceHandler6RetainEv
l4i:_GCHandle_Equals_m1806964520_AdjustorThunk
_Ac:__Z36Event_CUSTOM_Internal_SetNativeEventPv
nPa:__ZN12BaseRenderer20FlattenToRenderQueueER15RenderNodeQueueRK20DeprecatedSourceData
BLi:_ScrollRect_get_horizontalNormalizedPosition_m395457596
Pif:_Array_InternalArray__set_Item_TisMonoResource_t375095718_m2787772331_gshared
ilb:__Z34scripting_liveness_calculation_endPv
Qyc:__ZNK19RectangleCellLayout13GetCellCenterEv
e$d:__ZN6il2cpp2os6ThreadC2Ev
CIg:_Interval__ctor_m4021504436_AdjustorThunk
Ay:__ZN21AnimationClipPlayable22ProcessAnimationNoClipEPK35AnimationPlayableEvaluationConstantPK32AnimationPlayableEvaluationInputP33AnimationPlayableEvaluationOutput
BGc:__Z18Transfer_BlittableI8JSONReadLb0E8Vector3fEvRK29SerializationCommandArgumentsR31RuntimeSerializationCommandInfo
Pt:__ZN13AnimationClip12Vector3Curve8TransferI14SafeBinaryReadEEvRT_
kkj:_UnityEvent_Invoke_m4017078221
aXg:_UTF8Encoding_InternalGetByteCount_m4223845104
uPd:__ZN6il2cpp2vm6Thread6DetachEP12Il2CppThread
T5c:_Render_Single_Pass
lZc:__GLOBAL__sub_I_runtime_dynamics_2_cpp
kH:__ZN7mecanim8skeleton30SkeletonBuildReverseIndexArrayEPiPKiPKNS0_8SkeletonES6_
dzc:__Z19GetGUIBlendMaterialv
zZd:__ZN6il2cpp2os10ThreadImpl5SleepEjb
_Pg:_ObjectManager_RecordArrayElementFixup_m335465241
Vjd:__ZN11UnityEngine9Analytics15UserCustomEvent3AddEPKcb
gI:__ZN18AnimatorController23VirtualRedirectTransferER24GenerateTypeTreeTransfer
Vgk:_glBindSampler__wrapper
roj:_MonoBehaviour_CancelInvoke_m3434843458
gdf:_Array_compare_TisVector4_t3374053054_m3451340029_gshared
TLa:__ZNSt3__26vectorIN20ArchiveStorageHeader12StorageBlockE13stl_allocatorIS2_L18MemLabelIdentifier55ELi16EEE8__appendEj
Uf:_emscripten_set_mouseup_callback
LNg:_TypeInfo__ctor_m3555478303
whf:_Array_InternalArray__Insert_TisDateTime_t2928128394_m2870115816_gshared
i$g:_Type_get_IsArray_m2819532908
K5b:__ZNK18ScreenManagerWebGL8GetWidthEv
d4h:__Z229RuntimeInvoker_Void_t3431959231_Int32_t497012075_RuntimeObject_RuntimeObject_Int32_t497012075_Int32_t497012075_Int32_t497012075_Int32_t497012075_Int32_t497012075_Int32_t497012075_Int32_t497012075_Int32_t497012075_Int32_t497012075PFvvEPK10MethodInfoPvPS4_
aN:__ZN10SampleClipD2Ev
yNe:_Char_System_IConvertible_ToInt16_m1583216948_AdjustorThunk
JQj:_EqualityComparer_1__cctor_m3893322409_gshared
Bkb:__Z13GetGISettingsv
mac:__ZN19SpriteMeshGenerator7contourERNSt3__26vectorINS_6vertexENS0_9allocatorIS2_EEEERiRf
A0:__ZN11UnityEngine15CloudWebService20WebRequestRestClientC2Ev
n9c:_cff_cmap_unicode_init
X6i:_Context_UnregisterDynamicProperty_m4080819520
wCf:_Int16_System_IConvertible_ToUInt16_m3495697259
pNf:_UnmanagedMemoryStream_get_CanRead_m1584245075
VBf:_Guid_op_Equality_m1917581408
H7j:_readlink
DKd:__ZN15dense_hashtableINSt3__24pairIK10KeyWrapperINS1_IPK9EventInfoP11Il2CppClassEEEjEES9_17ReflectionMapHashIS8_EN14dense_hash_mapIS9_jSD_NS9_14EqualsComparerINS0_8equal_toIS8_EEEENS0_9allocatorISB_EEE9SelectKeyESI_SK_E12resize_deltaEjj
rcb:__ZNK6Sprite9GetBoundsE8Vector2fbb
kSa:__ZNK19RenderEventsContext21CleanupCommandBuffersEv
bJ:__ZN7mecanim12statemachine13StateConstant8TransferI14SafeBinaryReadEEvRT_
aoa:__ZN11ContextGLES6CreateEi
vsi:_Enumerator_get_CurrentKey_m1138058000_AdjustorThunk
zKb:__Z19TransferField_ArrayI18StreamedBinaryReadILb0EE27Converter_SimpleNativeClassI17AnimationCurveTplIfEEEvRK23StaticTransferFieldInfoR31RuntimeSerializationCommandInfoRT0_
rqc:__Z48Camera_CUSTOM_INTERNAL_CALL_ViewportToWorldPointP12Il2CppObjectRK8Vector3fRS1_
fGa:__ZN14StackAllocator16FrameMaintenanceEb
zXc:__ZZN10Collider2D15InitializeClassEvEN33FunctorImpl_99kDidRemoveComponent4CallEPviR11MessageData
Zba:__ZNK10GameObject20QueryComponentByTypeEPKN5Unity4TypeE
Jji:__Z53RuntimeInvoker_RaycastHit2D_t2925993810_RuntimeObjectPFvvEPK10MethodInfoPvPS4_
Xwj:_Transform_set_parentInternal_m807649086
eYh:_Module_IsDefined_m2956937571
rnf:_Array_InternalArray__get_Item_TisMonoResource_t375095718_m3699361126_gshared
o1a:__ZN11TextureData5ResetEv
Mrc:__Z53Register_UnityEngine_GameObject_get_activeInHierarchyv
Qha:__ZN15dense_hashtableINSt3__24pairIKN4core12basic_stringIcNS2_20StringStorageDefaultIcEEEE13dynamic_arrayI4PPtrI6SpriteELj4EEEES6_20StringHash32FunctionIS6_EN14dense_hash_mapIS6_SC_SF_NS0_8equal_toIS6_EE13stl_allocatorISD_L18MemLabelIdentifier81ELi16EEE9SelectKeyESI_SL_EC2ERKSO_j
j7:__ZL30InitializeCoreScriptingClassesv
Rg:_glBlitFramebuffer
oqe:_ExecuteEvents_Execute_m3054285987
Vzb:__Z35Transfer_Blittable_SingleValueFieldI14SafeBinaryReadhEvRT_R17GeneralMonoObjectRK23StaticTransferFieldInfo
G4e:_Double_Equals_m3353018846_AdjustorThunk
Mjc:__ZN12CachedWriter15CompleteWritingEv
SWb:__ZN13dynamic_arrayI11CulledLightLj4EE6insertEPS0_PKS0_S4_
Ele:_String_Concat_m2488203236
s0a:__ZNK12CubemapArray22GetTypeVirtualInternalEv
go:FUNCTION_TABLE_vif
ho:FUNCTION_TABLE_vid
jo:FUNCTION_TABLE_vii
tlb:__Z40scripting_liveness_calculation_from_root18ScriptingObjectPtrPv
_Ya:__ZN7Texture23VirtualRedirectTransferER24GenerateTypeTreeTransfer
nAe:_GraphicRegistry__ctor_m643470021
tWd:__ZN6il2cpp8metadata15GenericMetadata20RegisterGenericClassEP18Il2CppGenericClass
Agk:_glDeleteFramebuffers__wrapper
YCd:__ZN6il2cpp2vm7Runtime17GetDelegateInvokeEP11Il2CppClass
Igc:__ZZN12MeshRenderer15InitializeClassEvEN29FunctorImpl_134kDidDeleteMesh4CallEPviR11MessageData
JUe:_Enumerator_get_Entry_m1822805576
hef:_Array_InternalArray__IndexOf_TisParameterModifier_t1448691540_m3162222199_gshared
Abc:__Z22GenerateBoxTilingShapeP22GenerateTilingAreaInfo
u3a:__ZN28EnlightenRendererInformation8TransferI14SafeBinaryReadEEvRT_
gLa:__ZNK15Lz4Decompressor16DecompressMemoryEPKvPjPvS2_
m4c:_UNITY_tt_face_build_cmaps
AWc:__ZN11Rigidbody2D8TransferI24GenerateTypeTreeTransferEEvRT_
N_a:__Z35UnityPropertySheet_MakeSortedColorsRKNSt3__23mapIN9ShaderLab16FastPropertyNameE10ColorRGBAfNS_4lessIS2_EENS_9allocatorINS_4pairIKS2_S3_EEEEEER10vector_mapIS2_S3_S5_NS6_INS7_IS2_S3_EEEEE
KHj:_Predicate_1_Invoke_m1833772082_gshared
z3c:_UNITY_tt_face_load_os2
aWc:__ZN17PolygonCollider2D8TransferI24GenerateTypeTreeTransferEEvRT_
Wtf:_KeyPairPersistence_CanSecure_m3157960092
hif:_Array_InternalArray__Insert_TisUIVertex_t651853193_m641974827_gshared
Gaf:_Array_InternalArray__ICollection_Remove_TisVector3_t831627742_m800187823_gshared
lzb:__Z29Transfer_Blittable_ArrayFieldI14SafeBinaryRead8Vector4fEvRT_R9ArrayInfoRK23StaticTransferFieldInfo
STj:_AudioListener_ReadExtensionName_m674198436
zIi:_VertexHelper_SetUIVertex_m800086781
zAj:_X509Certificate_get_DSA_m1957482019
oAf:_RegionInfo__ctor_m2070683883
mSb:__ZZ23InitPlayerLoopCallbacksvEN51PostLateUpdateUpdateCustomRenderTexturesRegistrator7ForwardEv
iek:_glClientWaitSync__wrapper
Q3d:_GC_print_finalization_stats
Yy:__ZN7mecanim9animation12EvaluateClipEPKNS0_4ClipEPKNS0_9ClipInputEPNS0_10ClipMemoryEPNS0_10ClipOutputE
WPh:_Binder_GetDerivedLevel_m3112897233
uig:_ReadOnlyCollection_1_System_Collections_Generic_IListU3CTU3E_RemoveAt_m858821139_gshared
Vmf:_Array_InternalArray__get_Item_TisChar_t2406049076_m2274392241_gshared
zhb:__ZNSt3__26vectorIN15ResourceManager10DependencyE13stl_allocatorIS2_L18MemLabelIdentifier52ELi16EEEC2INS_11__wrap_iterIPS2_EEEET_SB_RKS5_PNS_9enable_ifIXaasr21__is_forward_iteratorISB_EE5valuesr16is_constructibleIS2_NS_15iterator_traitsISB_E9referenceEEE5valueEvE4typeE
D2b:__ZN13RenderManager29SetCurrentCameraAndStackStateEP6CameraP25CameraStackRenderingState
URe:_CollectionBase_RemoveAt_m2203598979
aOa:__ZNSt3__26__treeINS_12__value_typeIjN4core12basic_stringIcNS2_20StringStorageDefaultIcEEEEEENS_19__map_value_compareIjS7_NS_4lessIjEELb1EEE13stl_allocatorIS7_L18MemLabelIdentifier7ELi16EEE7destroyEPNS_11__tree_nodeIS7_PvEE
Fqj:_Quaternion_INTERNAL_CALL_Internal_FromEulerRad_m2906288008
gPd:__ZN15dense_hashtableINSt3__24pairIK10KeyWrapperINS1_IP11Il2CppClassjEEES4_EES6_N6il2cpp8metadata14ArrayClassHashEN14dense_hash_mapIS6_S4_SB_NS6_14EqualsComparerINSA_17ArrayClassCompareEEENS0_9allocatorIS8_EEE9SelectKeyESF_SH_E12resize_deltaEjj
ei:_JS_WebRequest_Release
Gzf:_NumberFormatInfo__ctor_m2790406303
P_:__ZN11UnityEngine15CloudWebService14DataErrorEventD0Ev
C8j:_dispose_chunk
ASd:__ZN6il2cpp6icalls8mscorlib6System4Type20internal_from_handleEi
pWd:__ZN6il2cpp8metadata15GenericMetadata7InflateEPK19Il2CppGenericMethodPK20Il2CppGenericContext
R2a:__ZN19ShaderPropertySheet16SetArrayPropertyEN9ShaderLab16FastPropertyNameENS_12PropertyTypeEPKvj
LBi:_Dictionary_2_System_Collections_IDictionary_get_Item_m3137654202_gshared
c_g:_TimeSpan_get_Ticks_m2152081452
Sdd:__ZN2UI11CanvasGroup23VirtualRedirectTransferER19StreamedBinaryWriteILb0EE
sQe:_SimpleEnumerator_Reset_m1119163143
xAc:__ZN8GUIState8EndOnGUIEv
T0f:_List_1_Find_m2369143316_gshared
_9c:_UNITY_TT_Get_VMetrics
DPj:_SymmetricTransform_Transform_m1371293275
JEb:__Z18Transfer_BlittableI19StreamedBinaryWriteILb0EELb0E10Matrix4x4fEvRK29SerializationCommandArgumentsR31RuntimeSerializationCommandInfo
vsf:_ASN1_Decode_m335186497
Vqa:__ZN7Texture21GetMasterTextureLimitEv
t4b:__Z12CanAddScriptR10GameObject17ScriptingClassPtrPS1_S2_
CNd:__ZN6il2cpp2vm10Reflection12HasAttributeEP12Il2CppObjectP11Il2CppClass
f6:__ZN9ShaderLabL25StaticInitializeShaderLabEPv
U:Math_max
KDd:_il2cpp_class_get_methods
g$j:_U3CCreateWhereIteratorU3Ec__Iterator1D_1_Reset_m2087840190_gshared
Wde:_RIPEMD160Managed_II_m1892573003
$Bb:__Z18Transfer_BlittableI24GenerateTypeTreeTransferLb0EN4math12int2_storageEEvRK29SerializationCommandArgumentsR31RuntimeSerializationCommandInfo
k$d:__ZN6il2cpp2os6Thread16GetCurrentThreadEv
gic:__ZN10GameObject13ComponentPair15SetComponentPtrEPN5Unity9ComponentE
Tek:_glBlitFramebuffer__wrapper
hmj:_ManagedStreamHelpers_ManagedStreamSeek_m3607322418
D0g:_UInt16_System_IConvertible_ToBoolean_m3987274542_AdjustorThunk
icc:__Z13RegisterClassI10MeshFilterEvv
VVg:_UnicodeEncoding_GetByteCount_m2654153503
iOa:__ZN10TagManager8TransferI19StreamedBinaryWriteILb0EEEEvRT_
Lkb:__ZN11PreloadData23VirtualRedirectTransferER18StreamedBinaryReadILb0EE
kE:__Z17dynamic_pptr_castIP10MonoScript6ObjectET_RK4PPtrIT0_E
ldf:_Array_FindIndex_TisRuntimeObject_m291192127_gshared
FAg:_FtpWebRequest__cctor_m797572137
GYe:_Convert_ToInt16_m3092997643
fFj:_PostProcessingProfile_get_DESTBUFFER_m2090108804
brf:_BigInteger_ToString_m275829702
I6a:__ZN6Sprite17MainThreadCleanupEv
$Hh:__ZL50Graphic_t2442573316_CustomAttributesCacheGeneratorP21CustomAttributesCache
GS:__ZN10AudioMixer14UpdateMuteSoloEv
Evf:_RSAManaged_EncryptValue_m1636713875
sxh:__ZL89ArgumentCache_t2035746355_CustomAttributesCacheGenerator_m_ObjectArgumentAssemblyTypeNameP21CustomAttributesCache
Ilf:_Dictionary_2_Do_ICollectionCopyTo_TisKeyValuePair_2_t75427565_m1148865637_gshared
mNa:__ZN9Transform35SetLocalPositionWithoutNotificationERKN4math7_float3Ey
fj:_JS_Eval_ClearTimeout
Ipa:__ZN7ApiGLES16SetPatchVerticesEi
SYh:_MonoEventInfo_get_event_info_m65592397
CKa:__ZN10MemoryFileC2E18MemLabelIdentifierP14MemoryFileData14FilePermission
Qsd:__ZN6il2cpp2vm5Class20FromGenericParameterEPK22Il2CppGenericParameter
n1:__ZN19CloudServiceHandler11FlushEventsEv
_fa:__ZN15GlobalCallbacksC2Ev
JWc:__ZN7b2World10CreateBodyEPK9b2BodyDef
cdg:_Collection_1_ConvertItem_m228795888_gshared
q1c:_UNITY_FT_New_Memory_Face
exj:_Transform_get_childCount_m3449598460
qng:_ARC4Managed_GenerateIV_m1813235424
i$c:__ZN20TextRenderingPrivate21TextMeshGeneratorImpl5FlushEv
_sj:_RectTransform_get_pivot_m1624236414
Jie:__Z15CastclassSealedP12Il2CppObjectP11Il2CppClass
_ee:_RSAPKCS1SignatureFormatter_SetKey_m340894815
l3b:__ZN16ReflectionProbes40UpdateRealtimeReflectionProbesTimeslicedEv
Rve:_Clipping_RectIntersect_m1366281684
O3j:_CustomEventData_Add_m3095836201
zmj:_Material_SetFloatArrayImpl_m2879414861
Bxg:_SslStreamBase_get_HashStrength_m808057310
GUj:_WebCamDevice_t2290386459_marshal_pinvoke
Ohb:__ZNK30RuntimeInitializeOnLoadManager22GetTypeVirtualInternalEv
aVe:_Enumerator__ctor_m2802329094
T9e:_Array_InternalArray__ICollection_Remove_TisDecimal_t407386666_m1081876658_gshared
wxd:__ZN15dense_hashtableINSt3__24pairIK10KeyWrapperIN6il2cpp5utils13dynamic_arrayIPK10Il2CppTypeLj4EEEEPFvvEEESA_NS3_8metadata19Il2CppSignatureHashEN14dense_hash_mapISA_SD_SG_NSA_14EqualsComparerINSF_22Il2CppSignatureCompareEEENS0_9allocatorISE_EEE9SelectKeyESK_SM_E12resize_deltaEjj
Pfc:__ZN16ReflectionProbes15InitializeClassEv
n2c:_UNITY_FT_Destroy_Class_psnames_module_class
vUd:__ZN6il2cpp2vm5Image9GetCorlibEv
Z1c:_ft_bitmap_glyph_bbox
qE:__ZN8Animator13BatchedFKPassERK13dynamic_arrayIP14PlayableOutputLj4EE
B4d:_GC_reclaim_uninit
Jqj:_Quaternion_op_Multiply_m1245154933
K9h:__Z73RuntimeInvoker_Int32_t497012075_DateTime_t2928128394_DateTime_t2928128394PFvvEPK10MethodInfoPvPS4_
Oca:__ZN13RuntimeStaticINSt3__23mapIN4core12basic_stringIcNS2_20StringStorageDefaultIcEEEES6_NS0_4lessIS6_EE13stl_allocatorINS0_4pairIKS6_S6_EEL18MemLabelIdentifier13ELi16EEEELb0EE13StaticDestroyEPv
GEf:_Int32_System_IConvertible_ToSingle_m3432924695
fSh:_DerivedType_GetConstructors_m2979725419
Spj:_PlayableHandle_IsValid_m2595816473_AdjustorThunk
dk:_glIsVertexArray
hsc:__Z66Register_UnityEngine_Graphics_Internal_GetMaxDrawMeshInstanceCountv
hmf:_Dictionary_2_Do_ICollectionCopyTo_TisRuntimeObject_m2052059818_gshared
Gdk:b16
QKa:__ZN25SingleBlockMemoryFileDataC2E18MemLabelIdentifierPvjb
esi:_Enumerator_VerifyState_m973169278_gshared
fa:invoke_fff
w7j:_mbsinit
add:__ZN2UI6Canvas17MainThreadCleanupEv
Ldb:__ZNSt3__26vectorI14SubstanceInputNS_9allocatorIS1_EEE6assignINS_11__wrap_iterIPS1_EEEENS_9enable_ifIXaasr21__is_forward_iteratorIT_EE5valuesr16is_constructibleIS1_NS_15iterator_traitsISA_E9referenceEEE5valueEvE4typeESA_SA_
eta:__ZN6prcoreL12RemapGenericI17TexFormatARGB155517TexFormatRGBA8888EEvPKNS_9InnerInfoE
Jud:__ZN13Il2CppHashMapIPK19Il2CppGenericMethodPK26Il2CppGenericMethodIndicesN6il2cpp8metadata23Il2CppGenericMethodHashENS7_26Il2CppGenericMethodCompareENSt3__29allocatorINSA_4pairIK10KeyWrapperIS2_ES5_EEEEEC2EjRKS8_RKS9_
aIe:_Array_Clear_m1833356796
eqf:_SimpleCollator_IsSuffix_m820754675
cBa:__ZN7ApiGLES13CreateProgramEv
PTa:__ZN11HaloManager7AddHaloEv
Z9e:_Array_InternalArray__ICollection_Remove_TisRuntimeObject_m473925121_gshared
ira:__ZN4crnd12crn_unpackerD2Ev
rk:_emscripten_glTexImage2D
L9c:_tt_driver_class_pic_init
_6:__ZN18ScriptingArguments9AddStringEPKc
V4d:_setup_header
qMi:_ScrollRect_SetLayoutHorizontal_m719189839
iak:runPostSets
msa:__ZL23stbir__resize_arbitraryPvPKviiiS_iiiffffPfiij14stbir_datatype12stbir_filterS4_10stbir_edgeS5_16stbir_colorspace
lac:__ZN19SpriteMeshGenerator4maskC2EP11ColorRGBA32iihj
tCb:__Z18Transfer_BlittableI24GenerateTypeTreeTransferLb1E8Vector4fEvRK29SerializationCommandArgumentsR31RuntimeSerializationCommandInfo
Ck:_pthread_detach
vAd:__ZN6il2cpp2vm19SocketPollingThread7RunLoopEv
Fic:__ZN15DirectorManager20ScheduleGraphDestroyERK14HPlayableGraph
lLb:__ZNSt3__213__stable_sortIRN10vector_mapI17ScriptingClassPtrPKN5Unity4TypeENS_4lessIS2_EENS_9allocatorINS_4pairIS2_S6_EEEEE13value_compareENS_11__wrap_iterIPSB_EEEEvT0_SJ_T_NS_15iterator_traitsISJ_E15difference_typeEPNSM_10value_typeEi
ULg:_SoapServices_GetXmlNamespaceForMethodResponse_m422231610
X0i:_DefaultComparer_Compare_m1284298409_gshared
_ob:__ZN9ShaderLab25SerializedTextureProperty8TransferI24GenerateTypeTreeTransferEEvRT_
Fej:_Uri_InternalEquals_m2776381010
S_j:_Func_2_EndInvoke_m3417073637_gshared
uLd:__ZN6il2cpp2gc19AppendOnlyGCHashMapINSt3__24pairIPK14Il2CppAssemblyP11Il2CppClassEEP24Il2CppReflectionAssembly17ReflectionMapHashIS9_ENS2_8equal_toIS9_EEEC2Ev
Hsj:_RectOffset_ToString_m1804686197
dwg:_RSASslSignatureDeformatter_VerifySignature_m1440454883
wUj:_AudioSource_set_clip_m236150083
Ngf:_Array_InternalArray__ICollection_CopyTo_TisTimeSpan_t1710996894_m2206588055_gshared
zHc:__Z18Transfer_BlittableI8JSONReadLb1EyEvRK29SerializationCommandArgumentsR31RuntimeSerializationCommandInfo
Zk:_emscripten_glMatrixMode
Kw:__ZN8Animator23VirtualRedirectTransferER18StreamedBinaryReadILb0EE
j_:__ZN11UnityEngine15CloudWebService14DataDispatcher16PrepareDataBlockERNS0_16SessionContainerE
FBa:__ZN18GfxFramebufferGLES5ClearE13GfxClearFlagsRK10ColorRGBAffib
QJb:__ZL26Transfer_SimpleNativeClassI18StreamedBinaryReadILb0EE10RectOffsetLb0EEvRK29SerializationCommandArgumentsR31RuntimeSerializationCommandInfo
k2c:_UNITY_ft_destroy_default_module_classes
DGj:_Spawner_EnemyGenerator_m116186139
_ri:_Comparer_1__cctor_m2213031761_gshared
nWb:__ZL12DepthPassJobPN21GfxDeviceAsyncCommand10ArgScratchEPKNS_3ArgE
znb:__ZNSt3__26vectorIN9ShaderLab20SerializedSubProgram16TextureParameterENS_9allocatorIS3_EEE6assignINS_11__wrap_iterIPS3_EEEENS_9enable_ifIXaasr21__is_forward_iteratorIT_EE5valuesr16is_constructibleIS3_NS_15iterator_traitsISC_E9referenceEEE5valueEvE4typeESC_SC_
WCc:__ZN5Unity9rapidjson6WriterI16TempBufferWriterNS0_4UTF8IcEES4_13JSONAllocatorE11WriteDoubleEd
Mwa:__ZN14GfxDeviceStats16CopyAllDrawStatsERKS_
Kcc:__Z13RegisterClassI19LowerResBlitTextureEvv
dn:FUNCTION_TABLE_iiiiiiiiiiii
LHj:_Predicate_1_BeginInvoke_m3383307986_gshared
Dng:_HMAC_Initialize_m2111396019
UCf:_Int32_ValidDigit_m1392084042
_Sa:__ZN16GraphicsSettingsD0Ev
n:cttz_i8
U1c:_UNITY_FT_GlyphLoader_Add
n9g:__ZL57DictionaryEntry_t790271503_CustomAttributesCacheGeneratorP21CustomAttributesCache
$Nb:_SendMessageString
Lff:_Array_InternalArray__ICollection_Add_TisUriScheme_t3118839229_m1553643492_gshared
Pdb:__ZN14SubstanceInput22CopyFromSubstanceInputERKS_
Wl:_emscripten_glViewport
Xl:_JS_WebCamVideo_GrabFrame
h1d:__ZN6il2cpp6icalls8mscorlib6System15MonoCustomAttrs17IsDefinedInternalEP12Il2CppObjectP20Il2CppReflectionType
LVa:__ZN4Mesh21UnswizzleVertexColorsEb
LQh:_CustomAttributeNamedArgument_GetHashCode_m3086643577_AdjustorThunk
Mwg:_SslClientStream_OnBeginNegotiateHandshake_m4001874254
I9c:_cff_parse_font_bbox
y4j:_AnalyticsTracker_TriggerEvent_m1693868122
ggb:__ZN14PlayerSettings23VirtualRedirectTransferER18StreamedBinaryReadILb0EE
Y9d:__ZN6il2cpp2os5Event5ResetEv
F$b:__Z26CombineDepthNormalsTextureRK17RenderLoopContextR13dynamic_arrayI16RenderObjectDataLj4EE
bWd:__ZN6il2cpp8metadata15GenericMetadata17InflateParametersEPK13ParameterInfohPK20Il2CppGenericContextb
xIi:_PositionAsUV1_ModifyMesh_m3595220349
YQa:__ZN6Camera13AwakeFromLoadE17AwakeFromLoadMode
DC:__ZNK17AnimationPlayable27GetNextCompatibleDescendantEi
Dfg:_ReadOnlyCollection_1_System_Collections_Generic_ICollectionU3CTU3E_Clear_m2931828746_gshared
Ovg:_ReceiveRecordAsyncResult_SetComplete_m1317269339
JOb:__Z25SetNeedToPerformRenderingb
uMa:__ZN10GameObjectD2Ev
CWb:__ZN14qsort_internal30FindAndMovePivotToLastPositionIP15RODataDepthPassi17ROSorterDepthPassEEvT_S4_T0_T1_
YSe:_Hashtable_set_Item_m2707324007
HCf:_Int16_CompareTo_m3293172231_AdjustorThunk
s2b:__ZN12CullingGroup10SendEventsEPK17CullingGroupEventj
dJi:_GetRayIntersectionAllCallback_Invoke_m2269648109
o4a:__ZThn32_NK8Renderer8GetLayerEv
Yff:_Array_InternalArray__ICollection_Add_TisWorkRequest_t3989231335_m1850863310_gshared
e9f:_Collection_1_System_Collections_IList_get_Item_m1709099505_gshared
Ire:_PointerEventData_get_worldNormal_m3107224332
kvg:_HttpsClientStream_U3CHttpsClientStreamU3Em__0_m3970730018
w1f:_List_1_System_Collections_IList_Insert_m3355333687_gshared
Dwb:__Z18Transfer_BlittableI14SafeBinaryReadLb1E9BoundsIntEvRK29SerializationCommandArgumentsR31RuntimeSerializationCommandInfo
BEd:_il2cpp_method_get_param_count
Ljf:_Array_qsort_TisUIVertex_t651853193_m4122323997_gshared
Tmc:__ZN10systeminfo19ISOToSystemLanguageERN4core12basic_stringIcNS0_20StringStorageDefaultIcEEEE
FRg:_SByte_System_IConvertible_ToUInt32_m2041806297_AdjustorThunk
nKd:__ZNK15dense_hashtableINSt3__24pairIK10KeyWrapperINS1_IPK12PropertyInfoP11Il2CppClassEEEjEES9_17ReflectionMapHashIS8_EN14dense_hash_mapIS9_jSD_NS9_14EqualsComparerINS0_8equal_toIS8_EEEENS0_9allocatorISB_EEE9SelectKeyESI_SK_E3endEv
CWc:__ZN11Rigidbody2D8TransferI19StreamedBinaryWriteILb0EEEEvRT_
nae:__ZN6il2cpp8metadata26Il2CppGenericMethodCompare6EqualsEPK19Il2CppGenericMethodS4_
h6c:_ps_dimension_done
Qcd:__Z46Register_UnityEngine_TextGenerator_Dispose_cppv
Ndb:__ZN14SubstanceInputD2Ev
e3a:__ZN16LightmapSettings8TransferI14SafeBinaryReadEEvRT_
MTf:_Enumerator_MoveNext_m2212230989_gshared
Aia:__ZN17BufferManagerGLES13ReleaseBufferEP14DataBufferGLES
DXg:_CompressedStack_Capture_m3959801309
wHc:__Z18Transfer_BlittableI8JSONReadLb1EjEvRK29SerializationCommandArgumentsR31RuntimeSerializationCommandInfo
ZOf:_IntComparer_Compare_m2482889479
Hhf:_Array_InternalArray__Insert_TisLabelFixup_t1745572545_m2557497712_gshared
Ap:stackSave
snd:__ZN5Unity9rapidjson15GenericDocumentINS0_4UTF8IcEE13JSONAllocatorNS0_12CrtAllocatorEE6StringEPKcjb
A6c:_ps_dimension_end
Wtc:__Z41Register_UnityEngine_Mesh_Internal_Createv
Sbb:__ZN14SpriteRenderer23VirtualRedirectTransferER24GenerateTypeTreeTransfer
$Vd:__ZNK15dense_hashtableI10KeyWrapperIP18Il2CppGenericClassES3_N6il2cpp8metadata22Il2CppGenericClassHashEN14dense_hash_setIS3_S6_NS3_14EqualsComparerINS5_25Il2CppGenericClassCompareEEENSt3__29allocatorIS3_EEE8IdentityESA_SD_E12test_deletedERK30dense_hashtable_const_iteratorIS3_S3_S6_SF_SA_SD_E
zUc:__ZNSt3__27__sort3IRN18Overlap2DQueryBase29ColliderHitsByDepthComparitorEPP10Collider2DEEjT0_S7_S7_T_
Q2h:__Z96RuntimeInvoker_Void_t3431959231_RuntimeObject_Int32_t497012075_Int32_t497012075_Int32_t497012075PFvvEPK10MethodInfoPvPS4_
FIh:__ZL68InputField_t1180063600_CustomAttributesCacheGenerator_m_AsteriskCharP21CustomAttributesCache
vnj:_Matrix4x4_MultiplyPoint3x4_m2193389521
Y9e:_Array_InternalArray__ICollection_Remove_TisIntPtr_t_m1453391951_gshared
U3b:__ZN6Camera9SetAspectEf
fPe:_ArrayList_CopyTo_m1511922189
xa:invoke_viiffiii
Kaj:_CompositeExpression__ctor_m1709146657
Eyj:_Vector3_get_right_m728684007
Ckk:_emscripten_glBindVertexArray__wrapper
Ovj:_Texture2D_GetPixelBilinear_m1005281155
uNa:__ZN9Transform37InitializeTransformHierarchyRecursiveER18TransformHierarchyRii
_dc:__Z34DefaultPrepareDispatchBoundsUpdateR13RendererScene18MemLabelIdentifier
wBa:__ZN26SinglePassStereoSupportExt23SetupStereoMatrixParamsE21MonoOrStereoscopicEye24BuiltinShaderMatrixParamRK10Matrix4x4f
Gti:_Enumerator_System_Collections_IDictionaryEnumerator_get_Entry_m513920624_gshared
_X:__Z46AudioListener_CUSTOM_GetNumExtensionPropertiesP12Il2CppObject
QUa:__ZN17MeshRenderingData4InitEP4MeshS1_iP15SharedGfxBufferS3_
NPj:_SymmetricTransform_ThrowBadPaddingException_m987163188
IQf:_NumberFormatter_SetThreadCurrentCulture_m1705185048
GBi:_Dictionary_2_U3CCopyToU3Em__0_m3135783356_gshared
IVf:_List_1_set_Capacity_m2578447325_gshared
Nzb:__ZN15SerializeTraitsI13dynamic_arrayIN4math12int3_storageELj4EEE19ResizeSTLStyleArrayERS3_i
zXg:_UTF8Decoder_GetChars_m3823982067
Lxc:__Z57Register_UnityEngine_Transform_INTERNAL_set_localPositionv
vma:__ZN13GfxDeviceGLES26SetRandomWriteTargetBufferEi15ComputeBufferID
U4d:_GC_split_block
h3h:__Z78RuntimeInvoker_RuntimeObject_RuntimeObject_SByte_t1872536467_SByte_t1872536467PFvvEPK10MethodInfoPvPS4_
$Rb:__ZZ23InitPlayerLoopCallbacksvEN49EarlyUpdateResetFrameStatsAfterPresentRegistrator7ForwardEv
pLe:_Boolean_System_IConvertible_ToInt64_m2819286808
PGi:_LayoutUtility_U3CGetMinWidthU3Em__0_m3085414953
Nwi:_Enumerator_get_Current_m1799630051_gshared
oWe:_Convert_ToChar_m3145030850
Cmc:__ZNK11ICallString6ToUTF8Ev
Wsd:__ZN15dense_hashtableINSt3__24pairIK10KeyWrapperIPK22Il2CppGenericParameterEP11Il2CppClassEES6_N6il2cpp5utils11PointerHashIS4_EEN14dense_hash_mapIS6_S9_SE_NS6_14EqualsComparerINS0_8equal_toIS5_EEEENS0_9allocatorISA_EEE9SelectKeyESJ_SL_E15insert_noresizeERKSA_
oRe:_CaseInsensitiveComparer__ctor_m2957666740
DWb:__ZNSt3__211__sift_downIR17ROSorterDepthPassP15RODataDepthPassEEvT0_S5_T_NS_15iterator_traitsIS5_E15difference_typeES5_
$Za:__ZN18UnityPropertySheet11UnityTexEnvC2Ev
KE:__ZN8Animator17ApplyOnAnimatorIKEiRNS_11AnimatorJobE
yba:__ZN12FileAccessor4ReadEyyPvPy
hZa:__ZN13dynamic_arrayI16ShaderKeywordSetLj4EE6insertEPS0_PKS0_S4_
C2i:_ResourceReader_ReadHeaders_m447619142
arj:_RangeInt_get_end_m2635109771_AdjustorThunk
lKc:__ZN11UnityEngine9Analytics18RenderingInfoEvent13SetFrameStatsERK13dynamic_arrayIjLj4EEjjj
Nwc:__Z63Register_UnityEngine_RenderTexture_Internal_CreateRenderTexturev
u3b:__ZN13RenderTexture9SetHeightEi
Hai:__Z74RuntimeInvoker_RuntimeObject_RuntimeObject_Int16_t1836794551_RuntimeObjectPFvvEPK10MethodInfoPvPS4_
rTe:_Enumerator_MoveNext_m3691826124
Bme:_String_ToLower_m2679052620
l9e:_Array_InternalArray__ICollection_Contains_TisUriScheme_t3118839229_m3527648510_gshared
oRd:__ZN6il2cpp6icalls8mscorlib6System2IO6MonoIO17GetFileAttributesEP12Il2CppStringPi
ywi:_Enumerator_System_Collections_IEnumerator_Reset_m3504624383_AdjustorThunk
Q4c:_tt_cmap8_char_index
h9b:__Z14tessMeshDeleteP8TESSmeshP12TESShalfEdge
y7:__Z24scripting_class_get_name17ScriptingClassPtr
gda:__ZN13RuntimeStaticI15GUIEventManagerLb0EE13StaticDestroyEPv
xZf:_List_1_get_Item_m3677161779_gshared
iig:_ReadOnlyCollection_1_System_Collections_IList_set_Item_m18434423_gshared
uyb:__Z29Transfer_Blittable_ArrayFieldI14SafeBinaryReadjEvRT_R9ArrayInfoRK23StaticTransferFieldInfo
oe:_emscripten_set_keydown_callback
jOa:__ZN19StreamedBinaryWriteILb0EE21TransferSTLStyleArrayINSt3__26vectorI17SortingLayerEntryNS2_9allocatorIS4_EEEEEEvRT_17TransferMetaFlags
KIh:__ZL70InputField_t1180063600_CustomAttributesCacheGenerator_m_CharacterLimitP21CustomAttributesCache
Gba:__ZN12FileAccessorC2Ev
o0g:_TypeLoadException__ctor_m4152190616
yRa:__ZN6Camera8TransferI19StreamedBinaryWriteILb0EEEEvRT_
rXc:__ZN23ColliderTilingExtensionC2Ev
y9j:__ZNK10__cxxabiv117__class_type_info16search_below_dstEPNS_19__dynamic_cast_infoEPKvib
yeb:__ZNK12InputManager22GetTypeVirtualInternalEv
ytg:_Context_EndSwitchingSecurityParameters_m974311904
ogg:_ReadOnlyCollection_1_System_Collections_IList_Add_m256936992_gshared
CXe:_Convert_ToDecimal_m2727689368
XMb:__Z39WriteQueueForTransferSignatureIntoCacheRK31TransferFunctionScriptingTraitsRK24TransferRequestSignature17ScriptingClassPtrR23CachedSerializationDataRb
Jjb:__ZN13RenderManager18UpdateAllRenderersEv
SJ:__ZN18AnimatorController19TransferRuntimeDataI18StreamedBinaryReadILb0EEEEvRT_
Pkd:__ZN22BaseUnityConnectClient30OnEnteringStatePausedOrStoppedEv
jPc:__ZN10ClipperLib7Clipper18SwapPositionsInAELEPNS_5TEdgeES2_
leh:__ZL50_Thread_t2307386275_CustomAttributesCacheGeneratorP21CustomAttributesCache
YJd:__ZN15dense_hashtableINSt3__24pairIK10KeyWrapperINS1_IPK12PropertyInfoP11Il2CppClassEEEjEES9_17ReflectionMapHashIS8_EN14dense_hash_mapIS9_jSD_NS9_14EqualsComparerINS0_8equal_toIS8_EEEENS0_9allocatorISB_EEE9SelectKeyESI_SK_E12resize_deltaEjj
wy:__ZN7mecanim5human12HumanPoseAddERNS0_9HumanPoseERKS1_S4_
XNi:_Slider_UpdateDrag_m3479816900
rle:_String_System_IConvertible_ToUInt64_m1632618097
bci:__Z93RuntimeInvoker_Void_t3431959231_Int32_t497012075_Int32_t497012075_RuntimeObject_RuntimeObjectPFvvEPK10MethodInfoPvPS4_
_Ma:__Z24MergeTransformComponentsR9TransformS0_b
c2e:_Decimal_System_IConvertible_ToInt16_m4281466328_AdjustorThunk
_ff:_Array_InternalArray__ICollection_Add_TisVector3_t831627742_m2758227481_gshared
qGj:_SGFEEnemy_OnCollisionEnter2D_m1643061483
a4i:_GCHandle_GetTargetHandle_m2856087845
ZIe:_Array_BinarySearch_m3518907703
nnf:_Array_InternalArray__get_Item_TisCustomAttributeTypedArgument_t694350192_m3491541586_gshared
j1d:__ZN6il2cpp2vm13ComObjectBase19GetRuntimeClassNameEPP15Il2CppHString__
bk:_emscripten_glVertexAttribPointer
K8e:_Array_InternalArray__ICollection_Contains_TisSlot_t238450354_m1827966289_gshared
NUa:__ZNK20IntermediateRenderer12GetSceneMaskEv
Kib:__ZN14PreloadManager26UpdatePreloadingSingleStepENS_21UpdatePreloadingFlagsEi
vee:_RSA_FromXmlString_m2928862064
Muc:__Z57Register_UnityEngine_RectTransform_INTERNAL_set_anchorMinv
Nsa:__ZN6prcoreL25inner_stretch_i8_bilinearEPKNS_9InnerInfoE
alb:__ZL30RegisterFilteredObjectCallbackPP12Il2CppObjectiPv
F_:__ZN11UnityEngine15CloudWebService16SessionContainer24GetSessionHeaderJsonDataERKN4core12basic_stringIcNS2_20StringStorageDefaultIcEEEERNS2_13StringBuilderE
p9f:_Collection_1_InsertItem_m662062019_gshared
Vca:__ZN13RuntimeStaticI21AssetReferenceStorageLb0EE13StaticDestroyEPv
lCj:_X509CrlEntry__ctor_m3728034573
XYd:__ZN6il2cpp6icalls8mscorlib6System9AppDomain22InternalGetProcessGuidEP12Il2CppString
k9i:_MatchCollection_TryToGet_m4292646717
dJa:__ZNK17FileSystemHandler10IsReadOnlyERK13FileEntryData
QCb:__Z18Transfer_BlittableI24GenerateTypeTreeTransferLb1EjEvRK29SerializationCommandArgumentsR31RuntimeSerializationCommandInfo
Usd:__ZN6il2cpp2os12FastAutoLockD2Ev
Ddc:__ZNK28RectTransformPropertyBinding9BindValueER6ObjectRKN11UnityEngine9Animation14GenericBindingERNS3_10BoundCurveE
GUa:__ZN11ColorRGBA328TransferI14SafeBinaryReadEEvRT_
cRh:_ByRefType_MakeByRefType_m3874327940
vtj:_Transform_get_parentInternal_m4167716327
isa:__Z11IsHDRFormat13TextureFormat
Wf:_emscripten_glClearDepth
nhc:__ZNK8GUILayer22GetTypeVirtualInternalEv
B5a:__ZN14SafeBinaryRead21TransferSTLStyleArrayINSt3__26vectorIN15QualitySettings14QualitySettingENS1_9allocatorIS4_EEEEEEvRT_17TransferMetaFlags
e2j:_Physics2D_GetRayIntersectionAll_m686506368
Hfb:__ZNSt3__26vectorINS_4pairIPKN5Unity4TypeE7Hash128EENS_9allocatorIS7_EEE8__appendEj
Axf:_PKCS12_Clone_m830202953
Fbe:_HMAC__ctor_m1554767664
ZHa:__ZL41FileEntryInfoListToFolderContentsAbsoluteRK13dynamic_arrayI13FileEntryInfoLj8EERNSt3__23setIN4core12basic_stringIcNS6_20StringStorageDefaultIcEEEENS4_4lessISA_EENS4_9allocatorISA_EEEE
W8c:_cff_font_load
Y0g:_UInt16_System_IConvertible_ToType_m515724730
n_d:__GLOBAL__sub_I_LibraryLoader_cpp
Fnc:__Z13IsPathCreatedRKN4core12basic_stringIcNS_20StringStorageDefaultIcEEEE
zDj:_EnemyScript_Update_m2018314048
rL:__ZN13ProduceHelperI13AnimationClipLb0EE7ProduceE18MemLabelIdentifier18ObjectCreationMode
ssa:__ZL22stbir__encode_scanlineP11stbir__infoiPvPfiii
Zsc:__Z27Input_Get_Custom_PropAnyKeyv
ZZc:__ZN20QuadTreeNodeRenderer13StaticDestroyEPv
B$:__ZN11UnityEngine15CloudWebService20WebRequestRestClient5AbortEv
KRg:_SByte_Equals_m3998807706
Pwg:_SslClientStream_OnNegotiateHandshakeCallback_m3118763704
t1c:_UNITY_FT_Set_Pixel_Sizes
Goj:_PlayerConnection_CreateInstance_m3619391697
GEg:_X509ExtensionEnumerator_MoveNext_m3249233900
oob:__ZNSt3__26vectorIN9ShaderLab19SerializedSubShaderENS_9allocatorIS2_EEE26__swap_out_circular_bufferERNS_14__split_bufferIS2_RS4_EE
pE:__ZN11UnityEngine9Animation33SetGenericTransformPropertyValuesERKNS0_30AnimatorGenericBindingConstantERKN7mecanim10ValueArrayEP9Transformy
zef:_Array_InternalArray__IndexOf_TisRaycastHit_t2952049248_m1016929719_gshared
Cu:__ZN11UnityEngine9Animation28AnimationClipBindingConstant8TransferI24GenerateTypeTreeTransferEEvRT_
tPd:__ZN6il2cpp2vmL24thread_cleanup_on_cancelEPv
bVa:__Z30ProcessDynamicBatchGeometryJobP25DynamicVBOGeometryJobDataj
Wbi:__Z103RuntimeInvoker_Boolean_t1367519524_Int32_t497012075_Int32_t497012075_SByte_t1872536467_Int32_t497012075PFvvEPK10MethodInfoPvPS4_
ZWb:__ZNSt3__27__sort4IRNS_6__lessI11CulledLightS2_EEPS2_EEjT0_S6_S6_S6_T_
P8:__Z26scripting_object_get_class18ScriptingObjectPtr
JIi:_VertexHelper_AddVert_m1109977961
oib:__ZNSt3__26vectorIN4core12basic_stringIcNS1_20StringStorageDefaultIcEEEE13stl_allocatorIS5_L18MemLabelIdentifier13ELi16EEE7reserveEj
_Hf:_Directory_Exists_m3016054453
mdc:__ZNK28MonoBehaviourPropertyBinding15GenerateBindingERKN4core12basic_stringIcNS0_20StringStorageDefaultIcEEEEbRN11UnityEngine9Animation14GenericBindingE
wxj:_UnitySynchronizationContext__ctor_m1432132462
ouf:_SmallXmlParser_IsWhitespace_m4172164043
Phj:_Component_GetComponentInParent_m2889277473
$3g:_Version_Equals_m1091662303
jhf:_Array_InternalArray__Insert_TisBoolean_t1367519524_m1944219800_gshared
eeb:__ZN14SubstanceValue8TransferI18StreamedBinaryReadILb0EEEEvRT_
QPg:_ObjectRecord_get_IsUnsolvedObjectReference_m360451603
zxf:_PKCS12_AddCertificate_m2931241997
t_d:__ZN6il2cpp6icalls8mscorlib6System11Environment15internalGetHomeEv
Pck:dynCall_iiiiiiffiiiiiiiiiffffiiii
NRf:_KeyValuePair_2__ctor_m3839260519_gshared
BDa:__ZNK5Unity9Component7GetNameEv
JCi:_DefaultComparer_Equals_m2545302541_gshared
cMb:__ZN13MonoBehaviour5DoGUIENS_13GUILayoutTypeEii
EPf:_MonoType_IsPrimitiveImpl_m2296505149
H6e:_CCMath_div_mod_m2900497037
e3j:_Animator_SetBool_m3441305275
Dti:_Enumerator_System_Collections_IEnumerator_Reset_m1605254014_gshared
wMc:__ZNK11b2RopeJoint16GetReactionForceEf
DF:__ZN7mecanim8skeleton26SkeletonPoseComputeGlobalQEPKNS0_8SkeletonEPKNS0_13SkeletonPoseTIN4math4trsXEEEPS7_ii
EBf:_Guid_CompareTo_m4032969300_AdjustorThunk
$Ff:_Int64_Parse_m4124414940
C8b:__ZN10BootConfig4Data3SetEPKcjS2_j
dF:__ZN9BlobWrite8TransferI22OffsetPtrArrayTransferIiEEEvRT_PKc17TransferMetaFlags
CR:__ZN4FMOD6System7releaseEv
DZh:_MonoMethod_GetCustomAttributes_m1942326743
bba:__Z18PathToAbsolutePathRKN4core12basic_stringIcNS_20StringStorageDefaultIcEEEE
OGe:_LayoutElement_set_flexibleHeight_m2048078941
bs:__ZN13AnimationClip23VirtualRedirectTransferER17RemapPPtrTransfer
Tai:__Z117RuntimeInvoker_Int64_t2229785298_Int32_t497012075_Int32_t497012075_Int32_t497012075_Int32_t497012075_Int32_t497012075PFvvEPK10MethodInfoPvPS4_
tjd:__ZN21UnityAnalyticsManager15ThreadedCleanupEv
TVc:__ZThn160_N17PolygonCollider2D5ResetEv
vNg:_RemotingConfiguration_SetCustomErrorsMode_m793533601
Stc:__Z22Mesh_CUSTOM_HasChannelP12Il2CppObject30InternalScriptingShaderChannel
Hic:__ZN15DirectorManager17AcquireOutputNodeEv
skf:_Array_Sort_TisRuntimeObject_TisRuntimeObject_m551070564_gshared
vAa:__ZN16GeometryJobTasks20ScheduleGeometryJobsER9GfxDevicePFvP15GeometryJobDataEPK22GeometryJobInstructionjb
IP:__ZN12AudioManager29ShutdownReinitializeAndReloadEv
uWh:_PropertyBuilder_GetValue_m3447842381
t0d:__GLOBAL__sub_I_String_cpp
Tsd:__ZN15dense_hashtableINSt3__24pairIK10KeyWrapperIPK22Il2CppGenericParameterEP11Il2CppClassEES6_N6il2cpp5utils11PointerHashIS4_EEN14dense_hash_mapIS6_S9_SE_NS6_14EqualsComparerINS0_8equal_toIS5_EEEENS0_9allocatorISA_EEE9SelectKeyESJ_SL_E6insertERKSA_
npa:__ZN14DataBufferGLES16RecreateWithDataEjPKv
$Ie:_Array_BinarySearch_m614756594
YDa:__Z29GetGlobalAllowNameConversionsv
f3g:_UInt64_ToString_m320831747_AdjustorThunk
b5b:__ZN8Material8SetColorEN9ShaderLab16FastPropertyNameERK10ColorRGBAf
rT:__ZN11AudioSource23VirtualRedirectTransferER18StreamedBinaryReadILb0EE
Yca:__ZN21AssetReferenceStorageC2Ev
C7:__ZL41AssemblyNameMatchesWithOrWithoutExtensionPKcS0_
DEc:__ZL26Transfer_SimpleNativeClassI9JSONWrite17AnimationCurveTplIfELb1EEvRK29SerializationCommandArgumentsR31RuntimeSerializationCommandInfo
zFj:_playerController_Update_m1188062477
Wyi:_Dictionary_2_Init_m221627961_gshared
dLc:__ZN23ColliderTilingExtension5ResetEv
rxa:__ZN14GfxContextGLES43AddRenderSurfaceToDeferredFBOInvalidateListEPK17RenderSurfaceGLES
TQd:__ZN6il2cpp6icalls8mscorlib6System9Threading6Thread15Thread_internalEP12Il2CppThreadP14Il2CppDelegate
ZFa:__ZN11NamedObject23VirtualRedirectTransferER14SafeBinaryRead
i1c:__ZNSt3__26vectorIN20TextRenderingPrivate8FontImpl13CharacterInfoE13stl_allocatorIS3_L18MemLabelIdentifier1ELi16EEE6insertENS_11__wrap_iterIPKS3_EERS9_
TGa:__ZN23PreloadManagerOperation6IsDoneEv
Kog:_PrivateKeyInfo_Normalize_m2143732022
Dji:__Z78RuntimeInvoker_Single_t209704323_RuntimeObject_RuntimeObject_Single_t209704323PFvvEPK10MethodInfoPvPS4_
cDd:__ZN6il2cpp2vm7Runtime15InvokeWithThrowEPK10MethodInfoPvPS5_
ROf:_MonoEnumInfo__cctor_m4076342192
xjc:__Z33GetHasChangedDeprecatedSystemMaskv
ERc:__ZN10Effector2D10EndContactEP9b2Contact
L0d:__ZN6il2cpp5utils11StringUtils11Utf16ToUtf8ERKNSt3__212basic_stringIDsNS2_11char_traitsIDsEENS2_9allocatorIDsEEEE
VCg:_X509SubjectKeyIdentifierExtension_Decode_m3107047548
hkb:__ZN21LightProbeProxyVolume18HasHardwareSupportEv
yHj:_TelevisionProfile_OnRenderImage_m3203408217
MTc:__ZNK20b2SeparationFunction17FindMinSeparationEPiS0_f
Isa:__ZN6prcoreL31inner_stretch_argb8888_bilinearEPKNS_9InnerInfoE
QGb:__Z18Transfer_BlittableI18StreamedBinaryReadILb1EELb1E8BitFieldEvRK29SerializationCommandArgumentsR31RuntimeSerializationCommandInfo
HZf:_List_1_System_Collections_IList_IndexOf_m3563369538_gshared
c6i:_ConfigHandler_ValidatePath_m4261853559
TJf:_DelegatePInvokeWrapper_WriteDelegate_t3698876670
d3c:_UNITY_FT_Outline_Decompose
k5d:_GC_init_size_map
eSa:__Z20scripting_object_new17ScriptingClassPtr
pRf:_OrdinalComparer_GetHashCode_m1973639962
SOg:_MessageFormatter_ReadMethodResponse_m470193309
P:Math_exp
$o:FUNCTION_TABLE_iiifi
LYd:__ZN6il2cpp2os5posix13PosixAutoLockD2Ev
oXc:__ZN13BoxCollider2D15InitializeClassEv
Xxe:_Dropdown_set_itemText_m863794995
l4f:_Enumerator_MoveNext_m1794412285_gshared
AVc:__GLOBAL__sub_I_modules_physics2d_public_0_cpp
O$h:__Z132RuntimeInvoker_Boolean_t1367519524_Int32U26_t2768257997_RuntimeObject_Int32U26_t2768257997_SByte_t1872536467_ExceptionU26_t826659714PFvvEPK10MethodInfoPvPS4_
sMb:__ZN13MonoBehaviour9SetScriptERK4PPtrI10MonoScriptE18ScriptingObjectPtr
Goh:__ZL55g_Mono_Security_Assembly_CustomAttributesCacheGeneratorP21CustomAttributesCache
anf:_Array_InternalArray__get_Item_TisKeyValuePair_2_t1581640713_m2735702482_gshared
R0e:_DateTimeOffset_Equals_m1371432766
nXc:__ZN13ProduceHelperI13BoxCollider2DLb0EE7ProduceE18MemLabelIdentifier18ObjectCreationMode
L2c:_UNITY_FT_Create_Class_sfnt_module_class
Zje:_Single_System_IConvertible_ToBoolean_m4059772898
FLa:__ZNK10FileSystem16LastErrorMessageEv
h4f:_Enumerator_System_Collections_IEnumerator_get_Current_m1359247611_gshared
SXi:_InternalEnumerator_1_System_Collections_IEnumerator_get_Current_m3884117973_gshared
H2d:__ZNK6il2cpp8metadata14Il2CppTypeLessclEPK10Il2CppTypeS4_
Tud:__ZN15dense_hashtableINSt3__24pairIK10KeyWrapperIPK11Il2CppClassEPKcEES6_N6il2cpp5utils11PointerHashIS3_EEN14dense_hash_mapIS6_S9_SE_NS6_14EqualsComparerINS0_8equal_toIS5_EEEENS0_9allocatorISA_EEE9SelectKeyESJ_SL_E14squash_deletedEv
c8j:_fputc
JLb:__ZN13MonoBehaviour13AwakeFromLoadE17AwakeFromLoadMode
YQj:_EqualityComparer_1__cctor_m1295633813_gshared
XAb:__ZL26Transfer_SimpleNativeClassI17RemapPPtrTransfer8GradientLb1EEvRK29SerializationCommandArgumentsR31RuntimeSerializationCommandInfo
Ljc:__ZN12CachedWriter9InitWriteER15CacheWriterBase
Bic:__Z21UnsignedInt64ToStringy
uRe:_CaseInsensitiveHashCodeProvider__ctor_m3961787241
Ntf:_KeyPairPersistence_Copy_m2216252719
nie:_Evidence_get_Count_m3753739087
mJf:_FileStream_BeginRead_m297014379
duc:__Z36MonoBehaviour_CUSTOM_InvokeRepeatingP12Il2CppObjectP12Il2CppStringff
Mwf:_DeriveBytes_Derive_m3498731202
Xxc:__Z66Register_UnityEngine_Transform_INTERNAL_CALL_InverseTransformPointv
WMh:__ZL55ConstantShake_t528275847_CustomAttributesCacheGeneratorP21CustomAttributesCache
tfa:__ZZN15DirectorManager15InitializeClassEvEN41FixedUpdateDirectorFixedUpdateRegistrator7ForwardEv
lkk:_glLinkProgram__wrapper
Tsb:__ZN18ScriptingArguments8AddInt64Ex
qta:__ZN6prcoreL12RemapGenericI17TexFormatARGB888815TexFormatBGR888EEvPKNS_9InnerInfoE
ytb:__ZN12HandlerChain4LockER13FileEntryData12FileLockMode
Rod:__ZN28UnityConnectScriptingClasses23CallSessionStateChangedEixxbP21ScriptingExceptionPtr
pUd:__ZN6il2cpp6icalls8mscorlib6System13Globalization11CultureInfo35construct_internal_locale_from_nameEP17Il2CppCultureInfoP12Il2CppString
dDb:__ZL22Transfer_ManagedObjectI24GenerateTypeTreeTransferLb1EEvRK29SerializationCommandArgumentsR31RuntimeSerializationCommandInfo
aLh:__ZL77CanvasScaler_t3617245861_CustomAttributesCacheGenerator_m_ReferenceResolutionP21CustomAttributesCache
gAi:_Dictionary_2_System_Collections_IDictionary_get_Item_m2623236143_gshared
kwi:_Enumerator_System_Collections_IEnumerator_get_Current_m3872965116_AdjustorThunk
Jej:_Uri_Unescape_m2417046747
kk:_emscripten_set_main_loop_timing
ipa:__ZN14DataBufferGLES12RecordRenderEv
ltj:_Vector2_get_one_m1251972593
I4b:__ZN14ImageReference10FlipImageYEv
Psc:__Z29Input_CUSTOM_GetKeyDownStringP12Il2CppString
DOg:_BinaryCommon__cctor_m203218146
m6e:_Exception_get_Message_m3050693913
wwh:__ZL60WritableAttribute_t3062530238_CustomAttributesCacheGeneratorP21CustomAttributesCache
BAc:__Z14GetDefaultSkini
WM:__ZN4FMOD3DSP9setBypassEb
e8b:__Z19NormalizeWheelInputf
AVh:_ModuleBuilder_GetTypes_m2968293059
cV:__ZN16BaseVideoTexture17MainThreadCleanupEv
xJc:__Z29Transfer_Blittable_ArrayFieldI8JSONReadhEvRT_R9ArrayInfoRK23StaticTransferFieldInfo
GRg:_SByte_System_IConvertible_ToUInt64_m4284811492
Ntj:_RenderTexture_Internal_SetHeight_m2064488828
G9d:__ZN6il2cpp2os20ThreadLocalValueImpl8SetValueEPv
Q1d:__ZN6il2cpp2os11Environment17GetProcessorCountEv
XQg:_RuntimeMethodHandle_Equals_m478581698
mEc:__Z18Transfer_BlittableI9JSONWriteLb1EtEvRK29SerializationCommandArgumentsR31RuntimeSerializationCommandInfo
Rhj:_Component_GetComponentsForListInternal_m4002267153
Ek:___syscall85
xDg:_PublicKey_DecodeRSA_m3962624546
Vha:__ZN15dense_hashtableINSt3__24pairIKN4core12basic_stringIcNS2_20StringStorageDefaultIcEEEE13dynamic_arrayI4PPtrI6SpriteELj4EEEES6_20StringHash32FunctionIS6_EN14dense_hash_mapIS6_SC_SF_NS0_8equal_toIS6_EE13stl_allocatorISD_L18MemLabelIdentifier81ELi16EEE9SelectKeyESI_SL_E5clearEv
syg:_TlsStream_get_Length_m1914483557
IUb:__ZNSt3__26__sortIRPFbP10GUIElementS2_EPS2_EEvT0_S7_T_
thc:__ZN16GraphicsSettings12CleanupClassEv
NUj:_WebCamTexture__ctor_m1412930824
v$d:__ZN6il2cpp2os6Thread19DetachCurrentThreadEv
mtd:__ZN6il2cpp2vmL21SetupInterfacesLockedEP11Il2CppClassRKNS_2os12FastAutoLockE
Jvb:__ZN11MonoManager23VirtualRedirectTransferER24GenerateTypeTreeTransfer
mD:__ZN23AnimationPlayableOutput17SetSourcePlayableEP8Playable
B_:__ZN11UnityEngine15CloudWebService14DataDispatcher15SetupWebRequestEv
bFc:__ZN9JSONWrite21TransferSTLStyleArrayI31ArrayOfManagedObjectsTransfererEEvRT_17TransferMetaFlags
Wld:__ZN11UnityEngine15PlatformWrapper13GetShaderCapsEv
p0b:__ZNSt3__211__sift_downIR26RenderDeferredObjectSorterP16RenderObjectDataEEvT0_S5_T_NS_15iterator_traitsIS5_E15difference_typeES5_
Nnf:_Array_InternalArray__get_Item_TisHitInfo_t3933698571_m1344676419_gshared
Frf:_ArgumentOutOfRangeException__ctor_m2692648771
Iij:_Debug_LogWarningFormat_m3734125922
M_i:_InternalEnumerator_1_get_Current_m20705038_AdjustorThunk
DZd:__ZN6il2cpp2os10ThreadImpl22SetNativeThreadCleanupEPFvPvE
bic:__ZN21FixedBehaviourManager6UpdateEv
onc:__ZN9Transform9SetParentEPS_NS_15SetParentOptionE
tQa:__ZN19ShaderPropertySheet8SetFloatEN9ShaderLab16FastPropertyNameEfNS_8SetFlagsE
Yib:__ZN19RuntimeSceneManager24BeginIntegrateMainThreadEP10UnityScene
ZZd:__ZNSt3__2plIcNS_11char_traitsIcEENS_9allocatorIcEEEENS_12basic_stringIT_T0_T1_EERKS9_S6_
nei:__Z75RuntimeInvoker_Vector3_t831627742_Quaternion_t1017567289_Vector3_t831627742PFvvEPK10MethodInfoPvPS4_
GNd:__GLOBAL__sub_I_ArrayMetadata_cpp
Dmj:_Material_EnableKeyword_m131687541
mak:_roundf
hOa:__ZN18StreamedBinaryReadILb0EE21TransferSTLStyleArrayINSt3__26vectorI17SortingLayerEntryNS2_9allocatorIS4_EEEEEEvRT_17TransferMetaFlags
wEj:_Kickback_get_t_m2649512523
TSe:_Hashtable_get_Keys_m294944446
l8i:_ArgInfo__ctor_m4040326147
jXe:_DateTimeFormatInfo_get_FullDateTimePattern_m879030034
fyg:_SslStreamBase_get_Position_m4227667655
ntd:__ZN6il2cpp2vmL24SetupTypeHierarchyLockedEP11Il2CppClassRKNS_2os12FastAutoLockE
m8b:__ZL11TextHandleriPK23EmscriptenKeyboardEventPv
IZb:__Z20CalculateLightMatrixRK15SharedLightDataP10Matrix4x4f
I0c:_destroy_face
ygk:_glBlendEquationSeparate__wrapper
G6d:__ZN6il2cpp6icalls8mscorlib6System8Security12Cryptography24RNGCryptoServiceProvider13RngInitializeEP11Il2CppArray
k8h:__Z232RuntimeInvoker_Int32_t497012075_RuntimeObject_Int32_t497012075_RuntimeObject_Int32_t497012075_UInt32U26_t4036806176_UInt32U26_t4036806176_RuntimeObject_DecoderFallbackBufferU26_t1442114982_ByteU5BU5DU26_t1634298839_SByte_t1872536467PFvvEPK10MethodInfoPvPS4_
H6i:_Context__ctor_m2157209397
Nxi:_ValueCollection_System_Collections_Generic_ICollectionU3CTValueU3E_Clear_m2373355133_gshared
AT:__ZN20SoundChannelInstance7setMuteEb
yBi:_Dictionary_2_OnDeserialization_m1952288703_gshared
are:_PhysicsRaycaster_get_depth_m1465381301
xjg:_ReadOnlyCollection_1_System_Collections_Generic_ICollectionU3CTU3E_Clear_m312331328_gshared
X2i:_ResourceEnumerator_get_Key_m1687242038
Cqj:_Quaternion_INTERNAL_CALL_Inverse_m2584580329
PHb:__Z19TransferField_ArrayI18StreamedBinaryReadILb1EE27Converter_SimpleNativeClassI17AnimationCurveTplIfEEEvRK23StaticTransferFieldInfoR31RuntimeSerializationCommandInfoRT0_
TXc:__ZN7b2World18SetContactListenerEP17b2ContactListener
Pmg:_ASN1_Add_m2609547574
$Tc:__ZN14PhysicsQuery2D11LinecastAllERK8Vector2fS2_RKN10Collider2D13ContactFilterEPKS3_bP13dynamic_arrayI12RaycastHit2DLj4EE
Ypa:__ZN18GfxFramebufferGLES22MakeCurrentFramebufferENS_7BuiltinE
FRh:_ModuleBuilder_GetTokenGenerator_m2700760848
HRd:__ZN6il2cpp2vm9Exception23GetOutOfMemoryExceptionERKNS_5utils10StringViewIDsEE
inf:_Array_InternalArray__get_Item_TisInt32_t497012075_m3192477876_gshared
_La:__ZN12CachedReader4ReadEPvj
mRf:_OrdinalComparer__ctor_m1291092652
D7c:_cf2_blues_init
deb:__ZN14SubstanceInput8TransferI18StreamedBinaryReadILb0EEEEvRT_
ZYb:__Z24CalculateLightShadowFadeRK6CamerafffR8Vector4f
I7:__ZN19RuntimeSceneManagerD2Ev
fhj:_Camera_INTERNAL_CALL_RaycastTry2D_m1535840667
R$:__ZN11UnityEngine15CloudWebService25WebRequestDownloadHandler17OnCompleteContentEv
Hsa:__ZN6prcore17GetIntegerBlitterE13TextureFormatS0_N14ImageReference8BlitModeE
jGf:_Int64_ToString_m2353198760
EKc:__ZN13BoxCollider2DD0Ev
lJd:__ZN6il2cpp2gc19AppendOnlyGCHashMapINSt3__24pairIPK11Il2CppImageP11Il2CppClassEEP22Il2CppReflectionModule17ReflectionMapHashIS9_ENS2_8equal_toIS9_EEE11TryGetValueERKS9_PSB_
UIg:_Interval_Merge_m22351551_AdjustorThunk
zpc:__ZN9BlobWrite14ReduceCopyImplERK14ReduceCopyDataj
m5:__ZNSt3__26__treeI19RepeatingLogMessageNS_4lessIS1_EE13stl_allocatorIS1_L18MemLabelIdentifier73ELi16EEE12__find_equalIS1_EERPNS_16__tree_node_baseIPvEESD_RKT_
IX:__ZN11AudioSource18IsPlayingScriptingEv
bNc:__ZNK12b2WheelJoint10GetAnchorAEv
nfk:_glShaderSource__wrapper
gKa:__ZN25MultiBlocksMemoryFileData17AdjustBlocksCountEj
DQd:__ZNSt3__214__split_bufferIN6il2cpp2vm22EmbeddedResourceRecordERNS_9allocatorIS3_EEED2Ev
Kgf:_Array_InternalArray__ICollection_CopyTo_TisX509ChainStatus_t2866729704_m3992449122_gshared
O_c:__ZN13TextRendering4Font8TransferI24GenerateTypeTreeTransferEEvRT_
qzj:_GenericStack__ctor_m115945177
sge:_SymmetricAlgorithm_get_IV_m2482710126
gNe:_Char__cctor_m1645522125
$qc:__Z27CullingGroup_CUSTOM_DisposeP12Il2CppObject
Ntc:__Z44Register_UnityEngine_AnimationCurve_Evaluatev
tpd:__ZNSt3__26vectorIP19BaseConnectSettings13stl_allocatorIS2_L18MemLabelIdentifier6ELi16EEE21__push_back_slow_pathIKS2_EEvRT_
STb:__ZN13ComputeShader15SetTextureParamEjRKN9ShaderLab16FastPropertyNameE9TextureID16TextureDimension
Qm:_glStencilMask
BZd:__ZN6il2cpp2os10ThreadImpl16GetCurrentThreadEv
g8b:__ZN15GUIEventManager10QueueEventERK10InputEvent
u7f:_Collection_1__ctor_m261714904_gshared
jce:_String_op_Equality_m4243643726
xu:__ZN24GenerateTypeTreeTransfer21TransferSTLStyleArrayINSt3__26vectorI24CompressedAnimationCurve13stl_allocatorIS3_L18MemLabelIdentifier26ELi16EEEEEEvRT_17TransferMetaFlags
l4d:_GC_push_conditional_with_exclusions
wOj:_GUILayoutGroup_CalcHeight_m1197510818
cG:__ZN12_GLOBAL__N_121ProcessAnimationBeginER35AnimationPlayableEvaluationConstantR32AnimationPlayableEvaluationInputR33AnimationPlayableEvaluationOutput
JNe:_Char_System_IConvertible_ToSingle_m1318988262_AdjustorThunk
f5h:__Z94RuntimeInvoker_Void_t3431959231_RuntimeObject_Int32_t497012075_RuntimeObject_SByte_t1872536467PFvvEPK10MethodInfoPvPS4_
W$g:_Type_GetProperty_m4257973882
L_e:_DateTime__ctor_m766750322_AdjustorThunk
Uwc:__Z44Register_UnityEngine_RenderTexture_set_depthv
Kvj:_Texture_set_wrapMode_m2646451255
Nlg:_Kernel_modInverse_m2132152474
wuc:__Z33Register_UnityEngine_Random_Rangev
cXa:__ZN14RenderSettings27UpdateIndirectSpecularColorEv
Fgb:__ZN14PlayerSettings8TransferI18StreamedBinaryReadILb0EEEEvRT_
Q7e:_CultureInfo_get_IsNeutralCulture_m3984405831
YBd:__ZN6il2cpp6icalls8mscorlib6System8MonoType16GetMethodsByNameEP20Il2CppReflectionTypeP12Il2CppStringibS5_
m2i:_Comparer_1__cctor_m1473452818_gshared
pBf:_GuidParser_ParseHexPrefix_m3378458569
tQb:__ZNSt3__27__sort3IRNS_4lessIN22BuiltinResourceManager8ResourceEEEPS3_EEjT0_S7_S7_T_
zIh:__ZL48IMask_t1434675472_CustomAttributesCacheGeneratorP21CustomAttributesCache
p6c:_ps_hints_t2mask
eei:__Z70RuntimeInvoker_Vector3_t831627742_Vector3_t831627742_Single_t209704323PFvvEPK10MethodInfoPvPS4_
Cbi:__Z67RuntimeInvoker_Byte_t2301911024_Int16_t1836794551_Int16_t1836794551PFvvEPK10MethodInfoPvPS4_
Kab:__ZN10BlendShape8TransferI19StreamedBinaryWriteILb0EEEEvRT_
HC:__ZN26AnimatorControllerPlayable11UpdateGraphEf
wGf:__Z21il2cpp_codegen_sizeofP11Il2CppClass
Pwa:__Z19GetTimeSinceStartupv
q5d:_GC_notify_or_invoke_finalizers
tbd:_TT_Load_Composite_Glyph
PQh:_CustomAttributeTypedArgument_ToString_m3318672583_AdjustorThunk
yMj:_ObjectPool_1_Get_m3811412849_gshared
lbj:_ExpressionAssertion__ctor_m2064560069
qXb:__ZN29RenderNodeQueuePrepareContextC2Ev
DW:__ZN10SampleClipC2E18MemLabelIdentifier18ObjectCreationMode
Vob:__ZN9ShaderLab20SerializedSubProgram16TextureParameter8TransferI24GenerateTypeTreeTransferEEvRT_
C$i:_InternalEnumerator_1_System_Collections_IEnumerator_get_Current_m486503002_gshared
oja:__ZN9GfxDevice19SaveStereoConstantsEv
i4i:_GCHandle_FreeHandle_m2001629395
d7d:__ZN6il2cpp2os11MutexHandle4WaitEj
ooc:__ZL34GetComponentsImplementationRecurseILb1ELi1ELi1EEbR10GameObjectbRK17CompareParametersRK39GetComponentsImplementation_ReturnValue
c7d:__ZN6il2cpp2os11MutexHandle4WaitEv
Aua:__ZN6prcoreL17RemapGenericFloatI15TexFormatRGHalf18TexFormatARGBFloatEEvPKNS_9InnerInfoE
Iti:_Enumerator_System_Collections_IDictionaryEnumerator_get_Key_m648662621_gshared
YOb:__Z18SimulateMouseInputi
kTb:__ZN13RenderManager23AddRemoveCamerasDelayedEv
rFc:__ZN9JSONWrite8TransferI13dynamic_arrayIdLj8EEEEvRT_PKc17TransferMetaFlags
YBe:_HorizontalLayoutGroup_SetLayoutHorizontal_m3302895457
LQf:_NumberFormatter_NumberToString_m2886846718
yjd:__ZN11UnityEngine9Analytics15AnalyticsConfigC2Ev
q8g:__ZL63FixedBufferAttribute_t4217313483_CustomAttributesCacheGeneratorP21CustomAttributesCache
s0j:_Canvas_SendWillRenderCanvases_m4000099774
W6i:_DynamicPropertyCollection__ctor_m3959366235
KGe:_LayoutElement_set_preferredHeight_m3612560318
t3b:__ZN13RenderTexture8SetWidthEi
T1c:_UNITY_FT_GlyphLoader_CheckSubGlyphs
CZb:__Z25SetupObjectBakedOcclusionbRK15SharedLightDataRK26SharedLightmapSettingsDataRK15LightmapIndicesR17ShaderPassContext
muj:_SceneManager_LoadScene_m1054877120
lSh:_DerivedType_MakeByRefType_m3100300479
Ptf:_KeyPairPersistence_get_Filename_m1827476459
WSh:_TypeBuilder_GetConstructors_m3618755560
$3i:_GCHandle__ctor_m3219313245
RUj:_WebCamTexture_get_devices_m1073660492
x5:__ZN9ShaderLab16FastPropertyName4InitEPKc
Gcc:__Z13RegisterClassIN2UI13RectTransformEEvv
Wqg:_CipherSuiteCollection_IndexOf_m3105927285
vzi:_Dictionary_2_System_Collections_IDictionary_Remove_m1545366145_gshared
Mgc:__ZL31MeshRendererTransformChangedJobP13BoundsJobDatajPK23TransformAccessReadOnlyPKyj
Cld:__ZN11UnityEngine15PlatformWrapper19GetPhysicalMemoryMBEv
OXa:__ZN13RenderTexture9SetMipMapEb
bfa:__Z18GetDirectorManagerv
FCf:_Int16_Equals_m1529850526_AdjustorThunk
Oud:__ZN14dense_hash_mapI10KeyWrapperIPK11Il2CppClassEPKcN6il2cpp5utils11PointerHashIS1_EENS4_14EqualsComparerINSt3__28equal_toIS3_EEEENSC_9allocatorINSC_4pairIKS4_S6_EEEEEC2EjRKSA_RKSF_
sxc:__Z38Transform_CUSTOM_INTERNAL_get_rotationP12Il2CppObjectP11Quaternionf
kLh:__ZL58GridLayoutGroup_t2914493838_CustomAttributesCacheGeneratorP21CustomAttributesCache
Mbh:__ZL91TypeBuilder_t2133989309_CustomAttributesCacheGenerator_TypeBuilder_IsSubclassOf_m2176368508P21CustomAttributesCache
aJd:__ZNK15dense_hashtableINSt3__24pairIK10KeyWrapperINS1_IPK10MethodInfoP11Il2CppClassEEEjEES9_17ReflectionMapHashIS8_EN14dense_hash_mapIS9_jSD_NS9_14EqualsComparerINS0_8equal_toIS8_EEEENS0_9allocatorISB_EEE9SelectKeyESI_SK_E5beginEv
Fva:__ZN7ApiGLES19UploadBufferSubDataEjN2gl12BufferTargetEllPKv
Hha:__ZNSt3__216__rotate_forwardINS_11__wrap_iterIPN4core12basic_stringIcNS2_20StringStorageDefaultIcEEEEEEEET_S9_S9_S9_
SI:__ZN7mecanim12statemachine20StateMachineConstant8TransferI14SafeBinaryReadEEvRT_
MHe:_LayoutRebuilder_U3CRebuildU3Em__3_m2314342064
_xb:__Z19TransferField_ArrayI14SafeBinaryRead27Converter_SimpleNativeClassI8GUIStyleEEvRK23StaticTransferFieldInfoR31RuntimeSerializationCommandInfoRT0_
$8f:_Collection_1_System_Collections_IList_Remove_m2915738106_gshared
T6d:__ZN6il2cpp5utils10MemoryPoolC2Ej
wTe:_Exception__ctor_m1430282255
P6d:__ZN6il2cpp5utils10MemoryPoolC2Ev
AWa:__ZN14RenderSettings5ResetEv
fbc:__ZN6Sprite9BindAtlasERK4PPtrI11SpriteAtlasE
cCc:__ZN5Unity9rapidjson12GenericValueINS0_4UTF8IcEE13JSONAllocatorE10FindMemberIS4_EENS0_21GenericMemberIteratorILb0ES3_S4_EERKNS1_IS3_T_EE
QRd:__ZNSt3__212basic_stringIDsNS_11char_traitsIDsEENS_9allocatorIDsEEE6appendEPKDsj
Tzf:_InvalidOperationException__ctor_m772623753
AMf:_SynchronizedWriter_Write_m4242646981
DCc:__ZN5Unity9rapidjson13GenericReaderINS0_4UTF8IcEES3_13JSONAllocatorE11ParseNumberILj1ENS0_25GenericInsituStringStreamIS3_EENS0_15GenericDocumentIS3_S4_S4_EEEEvRT0_RT1_
EAi:_Dictionary_2_Resize_m201817228_gshared
Wbb:__ZN14SpriteRenderer14OnChangeSpriteEv
nqi:__Z71RuntimeInvoker_Int32_t497012075_UIVertex_t651853193_UIVertex_t651853193PFvvEPK10MethodInfoPvPS4_
lZd:__ZN6il2cpp2os10ThreadImplD2Ev
bOc:__ZN12b2MouseJoint23InitVelocityConstraintsERK12b2SolverData
uDc:__ZN8Gradient8TransferI9JSONWriteEEvRT_
gBf:_Guid_CheckLength_m3735009000
NKg:_DictionaryEnumerator_get_Entry_m558732409
yGa:__ZNK12TLSAllocatorI14StackAllocatorE22GetAllocatedMemorySizeEv
mw:__ZN7mecanim6memory16ChainedAllocator8AllocateEjj
qEa:__ZN17RemapPPtrTransfer12PushMetaFlagE17TransferMetaFlags
jtb:__ZN12HandlerChain4NameEv
l8e:_Array_get_swapper_TisRuntimeObject_m1756040263_gshared
Lzb:__Z29Transfer_Blittable_ArrayFieldI14SafeBinaryReadN4math12int3_storageEEvRT_R9ArrayInfoRK23StaticTransferFieldInfo
Teb:__ZNSt3__26vectorI9InputAxisNS_9allocatorIS1_EEE10deallocateEv
ENj:_GUILayoutEntry__ctor_m3846858471
Ohd:__Z44Register_UnityEngine_CanvasRenderer_get_cullv
bdc:__ZN13ProduceHelperI13MonoBehaviourLb0EE7ProduceE18MemLabelIdentifier18ObjectCreationMode
bwb:__Z44InitializeTransferFunctionScriptingTraitsForI17RemapPPtrTransferEvR31TransferFunctionScriptingTraits
p5b:__ZN14UnityWebStream24UpdateAllUnityWebStreamsEv
KIg:_Interval_get_Size_m2996817731
qdc:__ZNSt3__26vectorI16MessageForwarder13stl_allocatorIS1_L18MemLabelIdentifier7ELi8EEE6resizeEj
l6i:_ConfigHandler_ReadLifetine_m3207639274
L4e:_Double_ToString_m3826340165_AdjustorThunk
Wib:__ZN18LoadSceneOperation21MustCompleteNextFrameEv
Wvf:_SymmetricTransform_CTS_m256798995
BT:__ZNK12AudioManager16GetAudioListenerEv
$2b:__ZNSt3__26vectorI11CameraStackNS_9allocatorIS1_EEE8__appendEj
eSc:__ZNK11Rigidbody2D20GetAttachedCollidersER13dynamic_arrayIP10Collider2DLj4EE
oee:_RNGCryptoServiceProvider_GetBytes_m759631625
py:__ZN7mecanim9animation12GetHumanPoseERKNS0_18ClipMuscleConstantEPKNS0_10ValueDeltaERNS_5human9HumanPoseE
WXe:_Convert_ToDecimal_m2446222844
ijd:__ZN11UnityEngine9Analytics15UserCustomEvent12CustomParams6InsertEPKcRNS1_11CustomValueE
THj:_Predicate_1_BeginInvoke_m1589128439_gshared
eA:__ZN22AnimationMixerPlayable17ProcessRootMotionEP35AnimationPlayableEvaluationConstantP32AnimationPlayableEvaluationInputP33AnimationPlayableEvaluationOutput
Btj:_Renderer_get_material_m4261980512
hba:__Z13GetFileSystemv
Aca:__ZNK5Unity4Type21FindAllDerivedClassesER13dynamic_arrayIPKS0_Lj4EENS0_17TypeFilterOptionsE
fda:__ZN13RuntimeStaticI15GUIEventManagerLb0EE16StaticInitializeEPv
Tcb:__ZN14SafeBinaryRead8TransferIfEEvRT_PKc17TransferMetaFlags
USg:_DESCryptoServiceProvider_CreateDecryptor_m3999197643
lUc:__ZNSt3__27__sort5IR24RayHitsByDepthComparitorP12RaycastHit2DEEjT0_S5_S5_S5_S5_T_
HOj:_GUISettings__ctor_m842802415
YEg:_X509Chain_GetAuthorityKeyIdentifier_m1074576846
$Oi:_Text_OnEnable_m2447034210
cSc:__ZN24RigidbodyMovementState2D21ResetAngularMoveStateEv
aEg:_X509Certificate2_get_SubjectName_m1366971371
_bb:__ZThn32_N14SpriteRenderer15AddAsRenderNodeER15RenderNodeQueueRK20DeprecatedSourceData
fIb:__Z29Transfer_Blittable_ArrayFieldI18StreamedBinaryReadILb1EE5RectTIfEEvRT_R9ArrayInfoRK23StaticTransferFieldInfo
d0e:_DateTime_Equals_m2407476963
f_g:_TimeSpan_get_TotalHours_m2284229233_AdjustorThunk
dUb:__ZN19ShaderPropertySheet9SetMatrixEN9ShaderLab16FastPropertyNameERK10Matrix4x4fNS_8SetFlagsE
i2a:__Z29GetTextureSizeAllowedMultiple13TextureFormat
qjf:_Array_InternalArray__set_Item_TisVector3_t831627742_m1286009928_gshared
Vme:_String_GetCaseInsensitiveHashCode_m4117857542
tic:__ZN21IntermediateRenderers3AddEP20IntermediateRenderer
yDd:_il2cpp_array_element_size
hg:_glCheckFramebufferStatus
VDg:_X509Certificate2_get_IssuerName_m3119485760
t3g:_UnauthorizedAccessException__ctor_m544686251
$0:__ZN19CloudServiceHandler20StartEventDispatcherERKN11UnityEngine15CloudWebService18CloudServiceConfigERNS1_23WebRequestRestHeaderMapE
I6f:_Collection_1_IsFixedSize_m1054775282_gshared
Wof:__Z37il2cpp_codegen_get_executing_assemblyPK10MethodInfo
KDg:_X509BasicConstraintsExtension__ctor_m3442417863
_ie:_WindowsIdentity_System_Runtime_Serialization_IDeserializationCallback_OnDeserialization_m1268822209
Ixf:_X509Certificate_get_RawData_m1297916436
f2j:_Physics2D_GetRayIntersectionAll_m2184081378
oYc:__ZN15dense_hashtableINSt3__24pairIKNS1_IPK10Collider2DS4_EE11Collision2DEES5_NS2_23ColliderPairHashFunctorEN14dense_hash_mapIS5_S7_S9_NS0_8equal_toIS5_EE13stl_allocatorIS8_L18MemLabelIdentifier67ELi16EEE9SelectKeyESC_SF_E13set_empty_keyERKS8_
qTd:__ZN14dense_hash_mapI10KeyWrapperIP14Il2CppIUnknownEjN6il2cpp5utils11PointerHashIS1_EENS3_14EqualsComparerINSt3__28equal_toIS2_EEEENS9_9allocatorINS9_4pairIKS3_jEEEEE15set_deleted_keyERSF_
Pca:__ZN22BuiltinResourceManager16StaticInitializeEPv
Aac:__ZN19SpriteMeshGenerator12path_segment12max_distanceENSt3__26vectorINS_6vertexENS1_9allocatorIS3_EEEEii
Yv:__ZN7mecanim4hand8HandPose8TransferI19StreamedBinaryWriteILb0EEEEvRT_
V0i:_DefaultComparer_Compare_m2357823944_gshared
ZSc:__ZN24b2ChainAndCapsuleContact8EvaluateEP10b2ManifoldRK11b2TransformS4_
DLd:__ZN13Il2CppHashMapIPK14Il2CppAssemblyPK22Il2CppMonoAssemblyNameN6il2cpp5utils11PointerHashIS1_EENSt3__28equal_toIS2_EENSA_9allocatorINSA_4pairIK10KeyWrapperIS2_ES5_EEEEEC2EjRKS9_RKSC_
XKc:__ZN13BoxCollider2D13PrepareShapesER13dynamic_arrayIP7b2ShapeLj4EERK10Matrix4x4f
p1i:_Comparer_1_System_Collections_IComparer_Compare_m3343835373_gshared
Bs:__ZN14AnimationEvent8TransferI14SafeBinaryReadEEvRT_
ksi:_Enumerator_System_Collections_IDictionaryEnumerator_get_Entry_m3168236028_AdjustorThunk
maa:__ZN8Remapper6RemoveEi
_zg:_NameValueCollection_InvalidateCachedArrays_m4201897032
Ooc:__ZN9Scripting27CreateArgumentNullExceptionEPKc
p1c:__ZL36CleanupTextRenderingScriptingClassesv
q3b:__ZN15ReflectionProbe17UseRendererResultEP13ProbeRenderer
Qtc:__Z34Mesh_CUSTOM_SetArrayForChannelImplP12Il2CppObject30InternalScriptingShaderChannel34InternalScriptingVertexChannelTypeiP11Il2CppArrayi
F2i:_ResourceReader__ctor_m1680964324
x7:__Z32scripting_class_get_nested_types17ScriptingClassPtrRNSt3__26vectorIS_13stl_allocatorIS_L18MemLabelIdentifier1ELi16EEEE
jse:_PointerInputModule_ShouldStartDrag_m268764743
Evg:_TlsException__ctor_m3409920294
sGj:_SGFEPlayer__ctor_m389210823
Fxj:_Vector2__ctor_m3879286827_AdjustorThunk
lL:__ZN11UnityEngine9Animation28GenericAnimationBindingCache25RegisterIAnimationBindingEPKN5Unity4TypeEiP17IAnimationBinding
Shd:__Z70RectTransformUtility_CUSTOM_INTERNAL_CALL_RectangleContainsScreenPointP12Il2CppObjectRK13Vector2fIcallS0_
fbk:dynCall_viiffiii
Yoe:_BaseInputModule_GetAxisEventData_m2645510758
aAg:_NameValueCollection_AsSingleString_m2249588979
muf:_SmallXmlParserException__ctor_m792139149
Sid:__ZN14UnityAnalytics25UnregisterGlobalCallbacksEv
Bri:__Z96RuntimeInvoker_RuntimeObject_UIVertex_t651853193_UIVertex_t651853193_RuntimeObject_RuntimeObjectPFvvEPK10MethodInfoPvPS4_
S1b:__Z40ProcessCameraIndexListIsNodeVisibleInOutRK22SceneCullingParametersPK9SceneNodePK4AABBR9IndexList
pUa:__ZN16GraphicsSettings8TransferI17RemapPPtrTransferEEvRT_
pc:invoke_viiiififfi
ufd:__ZN2UI6Canvas13UpdateBatchesEb
jD:__ZNK23AnimationPlayableOutput11DerivesFromE17ScriptingClassPtr
HQc:__ZN17PolygonCollider2D15TransformPointsERK13dynamic_arrayI8Vector2fLj4EERK10Matrix4x4fRKS1_fP6b2Vec2
Dgj:_Camera_set_orthographicSize_m3583075506
QTf:_Enumerator_System_Collections_IEnumerator_Reset_m2807955284_gshared
p7h:__Z84RuntimeInvoker_Void_t3431959231_Int64_t2229785298_Int32_t497012075_Int64_t2229785298PFvvEPK10MethodInfoPvPS4_
$Kj:_UnityEvent_4_FindMethod_Impl_m2202852523_gshared
tFe:_InputField_Delete_m2292027129
wmd:__ZN11UnityEngine7Connect13ConfigHandler12GetListenersERKN4core12basic_stringIcNS2_20StringStorageDefaultIcEEEE
Gka:__ZN9GfxDevice18AllocRenderSurfaceEb
$ac:__ZN10TagManager32GetSortingLayerUniqueIDFromValueEi
CPh:_AssemblyName_get_FullName_m3577100615
dVe:_Stack_Push_m824146995
dWe:_Convert_ToByte_m4106431210
y5g:__ZL58Decimal_t407386666_CustomAttributesCacheGenerator_MinValueP21CustomAttributesCache
LEf:_Int32_System_IConvertible_ToUInt16_m641866475_AdjustorThunk
Jtc:__Z26AnimationCurve_CUSTOM_InitP12Il2CppObjectP11Il2CppArray
kLc:__ZNK14b2PolygonShape5CloneEP16b2BlockAllocator
oLd:__ZN6il2cpp2vm10Reflection7IsEventEP12Il2CppObject
t8:__ZN17PersistentManager26GetStreamNameSpaceInternalEi
S3f:_List_1_CheckCollection_m3646488765_gshared
JN:__ZN4FMOD6System11createSoundEPKcjP22FMOD_CREATESOUNDEXINFOPPNS_5SoundE
Swe:_ColorTween_TweenValue_m2561362029
so:FUNCTION_TABLE_iiifiiii
HGd:__ZN6il2cpp2vm4Type14IsSystemDBNullEPK10Il2CppType
r6:__ZN9ShaderLab19CommonPropertyNames13StaticCleanupEPv
bqe:_EventTrigger_OnUpdateSelected_m1491634500
E9:__Z31scripting_method_get_returntype18ScriptingMethodPtr
ehj:_Camera_RaycastTry2D_m2774359360
mWj:__ZL24UnresolvedVirtualCall_76P12Il2CppObjectPK10MethodInfo
x3a:__ZN15SerializeTraitsI12LightmapDataE8TransferI24GenerateTypeTreeTransferEEvRS0_RT_
pfk:_glStencilOpSeparate__wrapper
mlc:__ZN4Mesh5SetUvEiPKfjj
U5a:__ZN7Texture13SetAnisoLimitENS_20AnisotropicFilteringE
Ujb:__ZN28LightProbeProxyVolumeManager25UpdateSHCoeffsTextureDataER21LightProbeProxyVolume
cLa:__Z18CreateDecompressor15CompressionType18MemLabelIdentifier
hua:__ZN6prcoreL17RemapGenericFloatI18TexFormatRGBAFloat17TexFormatRGBAHalfEEvPKNS_9InnerInfoE
LNf:_Math_Floor_m928888099
bi:_emscripten_glCompressedTexSubImage2D
gxa:__ZN13GfxDeviceGLES22MemoryBarrierImmediateEyN2gl17MemoryBarrierTypeE
sha:__ZZN18SpriteAtlasManagerC1EvEN46EarlyUpdateSpriteAtlasManagerUpdateRegistrator7ForwardEv
cVh:_MethodBuilder_GetParameterCount_m3420499062
Oua:__ZN6prcoreL26RemapGenericFloatToIntegerI18TexFormatARGBFloat17TexFormatARGB8888EEvPKNS_9InnerInfoE
kYi:_InternalEnumerator_1_System_Collections_IEnumerator_get_Current_m3549448609_gshared
coc:__Z46GetShaderModelNumericValueFromRequirementsMask18ShaderRequirements
qXh:_FieldInfo_get_IsNotSerialized_m3373173731
Egf:_Array_InternalArray__ICollection_CopyTo_TisRefEmitPermissionSet_t1830350410_m1768322057_gshared
G9c:_cff_ps_has_glyph_names
xQg:_SerializationInfo_GetInt16_m734460181
g1i:_DefaultComparer_Compare_m1524271018_gshared
P2d:_GC_write
oLe:_Boolean_System_IConvertible_ToInt32_m166515205_AdjustorThunk
fRh:_ModuleBuilder_get_next_table_index_m1357063676
O9b:__Z13tessTesselateP14TESStesselatoriiiiPKf
rRg:_SByte_System_IConvertible_ToInt16_m2662590134
QBc:__Z44Register_UnityEngine_GUIStyle_SetDefaultFontv
eac:__ZN19SpriteMeshGenerator9MakeShapeEP11ColorRGBA32iifhbjfi
YFb:__Z18Transfer_BlittableI18StreamedBinaryReadILb1EELb1EiEvRK29SerializationCommandArgumentsR31RuntimeSerializationCommandInfo
bF:__ZN9BlobWrite8TransferI22OffsetPtrArrayTransferIKN4math7_float3EEEEvRT_PKc17TransferMetaFlags
h_h:_ParameterInfo__ctor_m3961405049
iFg:_X509Certificate2Collection_AddRange_m2537510140
i5i:_UrlAttribute_Equals_m2147269055
dKd:__ZN15dense_hashtableINSt3__24pairIK10KeyWrapperINS1_IPK12PropertyInfoP11Il2CppClassEEEjEES9_17ReflectionMapHashIS8_EN14dense_hash_mapIS9_jSD_NS9_14EqualsComparerINS0_8equal_toIS8_EEEENS0_9allocatorISB_EEE9SelectKeyESI_SK_E12maybe_shrinkEv
m0j:_Canvas_set_sortingLayerID_m1930612819
xGb:__Z18Transfer_BlittableI18StreamedBinaryReadILb1EELb1EsEvRK29SerializationCommandArgumentsR31RuntimeSerializationCommandInfo
$kj:_Graphics_Blit_m2362354420
hyj:_Vector3_op_Division_m2909268594
yXi:_InternalEnumerator_1_System_Collections_IEnumerator_get_Current_m2145448657_gshared
Y5a:__ZL21SetAnisoLimitEnumImplN7Texture20AnisotropicFilteringEb
Mkd:__ZN22BaseUnityConnectClient17OnEnterStateReadyEv
tbj:_CharacterClass_AddRange_m3593721211
Vee:_RSAPKCS1SignatureDeformatter_SetKey_m1939517953
nGe:_U3CCaretBlinkU3Ec__Iterator0_Reset_m1855605708
Laj:_Parser_ParseGroup_m280999425
wXe:_Convert_ToDateTime_m2087724178
FSa:__ZN14GrowableBufferD2Ev
gse:_MouseState_GetButtonState_m3145517289
Usc:__Z29Input_CUSTOM_GetMouseButtonUpi
wCd:__ZN6il2cpp6icalls8mscorlib6System8MonoType16InternalGetEventEP20Il2CppReflectionTypeP12Il2CppStringi
jwf:_ContentInfo_get_ASN1_m2921248060
EZd:__ZN6il2cpp2osL23CleanupThreadIfCanceledEPv
mJe:_Array_LastIndexOf_m2595383243
htc:__Z46Input_CUSTOM_INTERNAL_set_compositionCursorPosRK13Vector2fIcall
sx:__ZN7mecanim5human12FullBodyMaskEv
Bcb:__ZN19ShaderPropertySheet11ComputeHashEv
Rwd:__ZN30dense_hashtable_const_iteratorI10KeyWrapperIPK19Il2CppGenericMethodES4_N6il2cpp8metadata23Il2CppGenericMethodHashEN14dense_hash_setIS4_S7_NS4_14EqualsComparerINS6_26Il2CppGenericMethodCompareEEENSt3__29allocatorIS4_EEE8IdentityESB_SE_EppEv
uTc:__ZN12b2EPCollider24ComputePolygonSeparationEv
A$:__ZN11UnityEngine15CloudWebService20WebRequestRestClient6IsDoneEv
tOg:_ObjectRecord_SetMemberValue_m2938850487
_i:_llvm_fabs_f32
d$:__ZN11UnityEngine15CloudWebService16SessionContainer16GetJsonDataBlockEjRKN4core12basic_stringIcNS2_20StringStorageDefaultIcEEEERS6_PjSA_
gxg:_SslStreamBase_InternalBeginWrite_m4154700349
Ps:__ZN7mecanim9animation18ClipMuscleConstant8TransferI14SafeBinaryReadEEvRT_
wNi:_Slider_set_handleRect_m331214060
Bqj:_Quaternion_Inverse_m1097117600
HLe:_Boolean_CompareTo_m3360868317
eBf:_Guid_CheckArray_m2495445762
J8:__ZN14SafeBinaryReadD2Ev
epf:_MSCompatUnicodeTable_IsIgnorableNonSpacing_m685310985
zcc:__Z13RegisterClassI7TextureEvv
NHb:__ZN8Gradient8TransferI18StreamedBinaryReadILb1EEEEvRT_
C9f:_Collection_1_IsFixedSize_m3266451666_gshared
Ane:_ASCIIEncoding_GetChars_m3994217564
LFj:_RecycleGameObject_Awake_m1772900906
xhf:_Array_InternalArray__Insert_TisDecimal_t407386666_m79462734_gshared
itd:__ZN6il2cpp2vmL17SetupEventsLockedEP11Il2CppClassRKNS_2os12FastAutoLockE
ESd:__ZN6il2cpp6icalls8mscorlib6System4Type15MakeGenericTypeEP20Il2CppReflectionTypeP11Il2CppArray
zj:_SDL_PauseAudio
VDd:_il2cpp_class_from_type
zJf:_Stream_BeginWrite_m3683343262
$Ed:__ZN6il2cpp2os4File11GetStdErrorEv
Cqc:__Z48Register_UnityEngine_Camera_set_orthographicSizev
q6:__ZN9ShaderLab19CommonPropertyNames16StaticInitializeEPv
dH:__ZN7mecanim9animation18CreateAvatarOutputEPKNS0_14AvatarConstantEbbRNS_6memory9AllocatorE
PZj:_TextGenerator_Populate_Internal_cpp_m2774281774
zdf:_Array_IndexOf_TisUICharInfo_t1968196628_m3359441739_gshared
tT:__ZN11AudioSource23VirtualRedirectTransferER24GenerateTypeTreeTransfer
Tkc:__ZN7Texture11SetWrapModeE15TextureWrapMode
Fkf:_Array_Sort_TisCustomAttributeTypedArgument_t694350192_m1531471517_gshared
Jjd:__ZN14UnityAnalytics15SendCustomEventERN11UnityEngine9Analytics15UserCustomEventE
s8a:__ZN14Texture2DArray23VirtualRedirectTransferER14SafeBinaryRead
UYb:__ZNK6Camera21CalculateCanDoShadowsEv
_Rg:_SByte_ToString_m231794864_AdjustorThunk
ike:_Single_System_IConvertible_ToDouble_m2525130856_AdjustorThunk
Ynf:_Component_GetComponent_TisRuntimeObject_m2918089886_gshared
o$d:__ZN6il2cpp2os6Thread12SetStackSizeEj
zSh:_TypeBuilder_get_Assembly_m3368121123
Ekc:__ZNK8Renderer16IsVisibleInSceneEv
u4:__Z13VFormatBufferPciPKcz
UIb:__Z18Transfer_BlittableI18StreamedBinaryReadILb0EELb1EhEvRK29SerializationCommandArgumentsR31RuntimeSerializationCommandInfo
cvf:_PKCS1_Encode_v15_m1487975149
nlj:_Input_GetButtonDown_m794437586
nbc:__ZL24GenerateTilingJobCombineP22GenerateTilingAreaInfo
OFj:_RepeatingBackground_Update_m2556324472
rBf:_Guid__ctor_m3634554492
Sua:__ZN6prcoreL27StretchGenericFloatBilinearI15TexFormatRFloatEEvPKNS_9InnerInfoE
kng:_ARC4Managed_get_Key_m163836902
Xcf:_Array_compare_TisUILineInfo_t233092741_m1461572245_gshared
dLh:__ZL70CanvasScaler_t3617245861_CustomAttributesCacheGenerator_m_PhysicalUnitP21CustomAttributesCache
hA:__Z24ProcessAnimationMixBeginP35AnimationPlayableEvaluationConstantP32AnimationPlayableEvaluationInputP33AnimationPlayableEvaluationOutput
Gui:_ShimEnumerator_get_Current_m584614762_gshared
ung:_ARC4Managed_CheckInput_m2653689222
Vra:__Z14PadImageBorderR14ImageReferenceii
IId:__ZN15dense_hashtableINSt3__24pairIK10KeyWrapperINS1_IPK10MethodInfoP11Il2CppClassEEEjEES9_17ReflectionMapHashIS8_EN14dense_hash_mapIS9_jSD_NS9_14EqualsComparerINS0_8equal_toIS8_EEEENS0_9allocatorISB_EEE9SelectKeyESI_SK_E4findERSA_
Vzd:__ZN6il2cpp2vm13MetadataCache28GetFieldDefaultValueForFieldEPK9FieldInfo
d4j:_CustomEventData_Add_m3826926816
QGf:_InvalidCastException__ctor_m3374341514
LA:__ZN27AnimationLayerMixerPlayableD2Ev
Tuj:_Shader__ctor_m4214552834
vTj:_AudioExtensionManager_AddSpatializerExtension_m900059011
Xoj:_Object_INTERNAL_CALL_Internal_InstantiateSingle_m198876382
OP:__ZN12AudioManager39HandlePendingAudioConfigurationCallbackEv
BBf:_Guid_CompareTo_m274925173_AdjustorThunk
xk:_emscripten_glIsFramebuffer
jPa:__ZN12_GLOBAL__N_16qAtan2Eff
Bk:_JS_Sound_SetLoopPoints
shf:_Array_InternalArray__Insert_TisKeyValuePair_2_t1581640713_m4013267061_gshared
FU:__ZN12AudioManager17ShouldSourcePauseEb
j7d:__ZN6il2cpp2vm26MetadataAllocGenericMethodEv
une:_ASCIIEncoding_GetBytes_m3554421195
wAa:__ZN19ConstantBuffersGLES12RecordRenderEv
kFc:__ZN9JSONWrite8TransferI10RectOffsetEEvRT_PKc17TransferMetaFlags
Ara:__ZN4crnd12symbol_codec11decode_bitsEj
ERi:_InternalEnumerator_1_System_Collections_IEnumerator_get_Current_m2555597915_AdjustorThunk
HTc:__ZN15b2CircleContact8EvaluateEP10b2ManifoldRK11b2TransformS4_
X9i:_PatternCompiler_EmitSub_m1634617913
pkf:_Array_Sort_TisInt32_t497012075_m1482285103_gshared
j7i:_Context_ToString_m1094158616
SP:__ZN4FMOD6System12createReverbEPPNS_6ReverbE
qHg:_Group__ctor_m481691537
lTf:_Enumerator_System_Collections_IEnumerator_Reset_m4281960649_AdjustorThunk
CA:__ZN7mecanim19ValueArrayBlendNodeILb1EEEvRKNS_10ValueArrayERKNS_14ValueArrayMaskERS1_RS4_RNS_16ValueArrayWeightEf
MHg:_Interpreter_IsPosition_m3899083651
glb:__Z16MarkDependenciesR27GarbageCollectorThreadStatej
NUg:_Encoding_GetPreamble_m2942699133
fNg:_RemotingConfiguration_IsRemotelyActivatedClientType_m1481499648
oia:__ZNK9Transform11GetPositionEv
rVa:__ZN23SharedMeshRenderingData18UnloadVertexStreamEi
sic:__ZN31CanvasBatchIntermediateRenderer11AddSubBatchERK16DrawBuffersRangePK19ShaderPropertySheet
_gc:__ZN19RenderEventsContextC2Ei
rZ:__Z6simd4fRKf
dl:_emscripten_glEnable
dXd:__ZN6il2cpp2gc16GarbageCollector29RegisterFinalizerForNewObjectEP12Il2CppObject
MNa:__ZN10TagManager23VirtualRedirectTransferER14SafeBinaryRead
U2c:_UNITY_FT_Init_Class_ft_grays_raster
dfa:__ZN14PlayableOutput26ClearInvalidSourcePlayableEv
H$b:__Z15InitLightMeshesv
vxj:_UnityException__ctor_m1677129030
Un:FUNCTION_TABLE_iifiii
h5i:_ActivationServices_EnableProxyActivation_m1014586637
ns:__ZN7mecanim9animation14HasHumanCurvesERKNS0_18ClipMuscleConstantE
P5a:__ZN15QualitySettings8TransferI19StreamedBinaryWriteILb0EEEEvRT_
K7c:_cf2_arrstack_init
Lqe:_ExecuteEvents_get_scrollHandler_m3331411575
l3:__Z15CleanLogHandler7LogTypePKcz
xpb:__ZN9ShaderLab19SerializedSubShader8TransferI19StreamedBinaryWriteILb0EEEEvRT_
oBf:_GuidParser_ParseChar_m2119307255
sZh:_MonoMethodInfo_GetReturnType_m1323448745
sYe:_Convert_ToDouble_m1293364597
dMb:__ZN6Camera17RemoveImageFilterERK11ImageFilter
uwa:__ZNSt3__218__insertion_sort_3IR25ValueParameterArraySorterPN20GpuProgramParameters14ValueParameterEEEvT0_S6_T_
UOc:__ZN10ClipperLib7Clipper27ProcessEdgesAtTopOfScanbeamEx
oza:__ZNSt3__214__split_bufferI20ComputeShaderVariantRNS_9allocatorIS1_EEED2Ev
O_h:_ParameterInfo_IsDefined_m3932090463
oJb:__Z18Transfer_BlittableI18StreamedBinaryReadILb0EELb1E9BoundsIntEvRK29SerializationCommandArgumentsR31RuntimeSerializationCommandInfo
$fd:__ZN2UI26InitializeDeviceForOverlayEi
k5:__Z27LogRepeatingStringWithFlagsRKN4core12basic_stringIcNS_20StringStorageDefaultIcEEEE15LogMessageFlagsi
Ux:__ZN17AnimationPlayable28ComputeNeedsBindingRebuildedEv
_w:__ZN17AnimationPlayable23RequestAllocateBindingsEv
qNj:_GUIStyle_get_none_m2735736069
PMi:_Selectable_get_image_m2000864912
Gnd:__ZN18UnityConnectClient33OnPlayerSessionStateChangedStaticEPS_jyy
i0:__ZNK11UnityEngine15CloudWebService23WebRequestUploadHandler11GetProgressEv
yoa:__ZN7ApiGLES4LoadE16GfxDeviceLevelGL
L3a:__ZN18StreamedBinaryReadILb0EE21TransferSTLStyleArrayI13dynamic_arrayI31EnlightenSystemAtlasInformationLj8EEEEvRT_17TransferMetaFlags
s4f:_Enumerator_get_Current_m2421053162_gshared
sMe:_Byte_System_IConvertible_ToInt16_m4230516033_AdjustorThunk
tra:__ZN4crnd12crn_unpacker22decode_color_endpointsEv
kWd:__ZN15dense_hashtableI10KeyWrapperIP18Il2CppGenericClassES3_N6il2cpp8metadata22Il2CppGenericClassHashEN14dense_hash_setIS3_S6_NS3_14EqualsComparerINS5_25Il2CppGenericClassCompareEEENSt3__29allocatorIS3_EEE8IdentityESA_SD_E15insert_noresizeERKS3_
egc:__ZZL31RegisterOtherRendererPropertiesR22GenericPropertyBindingEN30Wrapper_RendererReceiveShadows13GetFloatValueEPv
fRg:_SByte_System_IConvertible_ToBoolean_m3336449172
yue:_BaseMeshEffect_OnDisable_m2394057161
Z9j:__ZNK10__cxxabiv121__vmi_class_type_info16search_below_dstEPNS_19__dynamic_cast_infoEPKvib
pPb:__ZN8Material11SetPassFastEPN9ShaderLab4PassER17ShaderPassContextP6Shaderib
End:__ZN11UnityEngine7Connect20BasePersistentValues10SaveValuesER9JSONWrite
Cdb:__ZN14SafeBinaryRead21TransferSTLStyleArrayINSt3__26vectorI17SubstanceEnumItemNS1_9allocatorIS3_EEEEEEvRT_17TransferMetaFlags
hUe:_SortedList_System_Collections_IEnumerable_GetEnumerator_m1418750350
kUc:__ZNSt3__27__sort4IR24RayHitsByDepthComparitorP12RaycastHit2DEEjT0_S5_S5_S5_T_
cmc:__Z14ScaleCurveTimeR17AnimationCurveTplIfEf
lda:__ZN22VirtualJoystickManagerC2Ev
QVb:__Z12SetupLODFadeR9GfxDeviceR17ShaderPassContextf
Z$a:__ZNK14PlayableOutput7GetTypeEv
TSc:__ZN26b2PolygonAndCapsuleContact6CreateEP9b2FixtureiS1_iP16b2BlockAllocator
u$b:__ZL24CollectForwardObjectsJobP27CollectForwardObjectsHeader
T2b:__ZNK25CameraStackRenderingState24ResolveTempToEyeTexturesEv
Xge:_TripleDESCryptoServiceProvider_CreateDecryptor_m2847924431
r1b:__Z13IsNodeVisibleRK9SceneNodeRK4AABBRK22SceneCullingParameters
Ase:_RaycasterManager__cctor_m874748240
Uhd:__Z57RectTransformUtility_CUSTOM_INTERNAL_CALL_PixelAdjustRectP12Il2CppObjectS0_R5RectTIfE
HXh:_MethodBase_GetParameterCount_m1210673367
p2b:__Z24ScheduleCullingAllGroupsR8JobFenceRK22SceneCullingParametersiRK13CullingOutputRK13dynamic_arrayIP12CullingGroupLj4EERKS_
y3h:__Z100RuntimeInvoker_Void_t3431959231_Int32_t497012075_Int32_t497012075_Int32_t497012075_SByte_t1872536467PFvvEPK10MethodInfoPvPS4_
Pkk:_emscripten_glStencilMask__wrapper
fyd:__ZN15dense_hashtableINSt3__24pairIK10KeyWrapperIN6il2cpp5utils13dynamic_arrayIPK10Il2CppTypeLj4EEEEPFvvEEESA_NS3_8metadata19Il2CppSignatureHashEN14dense_hash_mapISA_SD_SG_NSA_14EqualsComparerINSF_22Il2CppSignatureCompareEEENS0_9allocatorISE_EEE9SelectKeyESK_SM_EC2EjRKSG_RKSK_RKSO_
zSa:__ZN15RenderNodeQueue7CleanupEv
uZc:__ZN16NovodexAllocator8allocateEjPKcS1_i
V_b:__Z17PrepareShadowMapsRK11CullResultsRK11ActiveLightRK10MinMaxAABB
l3g:_UInt64_ToString_m2201418697_AdjustorThunk
iyf:_SmallXmlParser_SkipWhitespaces_m2199580348
r$b:__ZN9ShaderLab10GrabPassesD2Ev
D8a:__ZN14Texture2DArray13UploadTextureEv
wUg:_Encoding_get_UTF8_m2060156560
h5c:_tt_cmap14_done
Zib:__ZN18AwakeFromLoadQueue25RegisterObjectInstanceIDsEv
wAe:_Graphic_get_materialForRendering_m1285430194
DNf:_LocalDataStoreSlot__ctor_m488380616
QA:__ZNK27AnimationLayerMixerPlayable11DerivesFromE17ScriptingClassPtr
fOg:_WellKnownServiceTypeEntry_ToString_m1300991228
y$c:__ZN20TextRenderingPrivate19NativeTextGenerator15InsertCharacterEiPj
XPh:_Binder_FindMostDerivedMatch_m3911730258
Ppj:_PlayableHandle_IsValid_m2595816473
BMc:__ZN11b2RopeJoint24SolveVelocityConstraintsERK12b2SolverData
x5i:_ChannelServices_CreateClientChannelSinkChain_m4294681415
aqg:_CipherSuite_get_KeyMaterialSize_m947807540
t5h:__Z104RuntimeInvoker_RuntimeObject_RuntimeObject_Int32_t497012075_Int32_t497012075_RuntimeObject_RuntimeObjectPFvvEPK10MethodInfoPvPS4_
WBe:_HorizontalOrVerticalLayoutGroup_GetChildSizes_m2511488110
s1c:__ZN20TextRenderingPrivate15DynamicFontData21GetFontMetricsForFaceERK13dynamic_arrayIN4core17string_with_labelILi35EEELj4EEiRKS1_I4PPtrIN13TextRendering4FontEELj4EEPfSF_
s0c:_UNITY_FT_Open_Face
Bdj:_PositionAssertion_GetAnchorInfo_m3343272622
deh:__ZL57_MethodBuilder_t2320703523_CustomAttributesCacheGeneratorP21CustomAttributesCache
zjg:_ReadOnlyCollection_1_System_Collections_Generic_ICollectionU3CTU3E_Remove_m2443388799_gshared
rXh:_FieldInfo_SetValue_m728642930
Ilg:_BigInteger_Equals_m640135422
rDi:_DefaultComparer_Equals_m1490896102_gshared
Qvg:_RecordProtocol_EndReceiveRecord_m3603482075
_Ud:__ZN30dense_hashtable_const_iteratorINSt3__24pairIK10KeyWrapperINS1_IPKcS4_EEEiEES6_24NamespaceAndNamePairHashN14dense_hash_mapIS6_iS9_NS6_14EqualsComparerI26NamespaceAndNamePairEqualsEENS0_9allocatorIS8_EEE9SelectKeyESD_SF_EppEv
_Xg:_Interlocked_CompareExchange_m2654106802
Yqc:__Z44Register_UnityEngine_Component_get_transformv
fG:__ZN12_GLOBAL__N_120ProcessPlayableGraphERN8Animator11AnimatorJobER35AnimationPlayableEvaluationConstantR32AnimationPlayableEvaluationInputR33AnimationPlayableEvaluationOutputPFvS4_R17AnimationPlayableEPFvS4_S6_S8_EPFvS8_S4_S6_S8_fESE_MS9_FvPS3_PS5_PS7_E
$De:_InputField_get_customCaretColor_m1863940245
BRb:__ZN17ArchiveFileSystem12MountArchiveEPKcS1_
pEc:__Z18Transfer_BlittableI9JSONWriteLb1E8Vector4fEvRK29SerializationCommandArgumentsR31RuntimeSerializationCommandInfo
Qn:FUNCTION_TABLE_viififiii
DOa:__Z30GetScriptableCullingParametersR6CameraR27ScriptableCullingParameters
sHj:_ScanlineProfile_OnRenderImage_m3468242890
r4a:__ZThn32_NK8Renderer14GetSubsetIndexEi
uoe:_BaseInput_get_compositionCursorPos_m422057546
Rec:__ZN13ProduceHelperI15ResourceManagerLb0EE7ProduceE18MemLabelIdentifier18ObjectCreationMode
zla:__ZN9GfxDevice15ImmediateVertexEfff
gcc:__Z13RegisterClassI8MaterialEvv
_2a:__ZNK16LightmapSettings22GetTypeVirtualInternalEv
Wia:__ZN13GfxDeviceGLES15SetStencilStateEPK18DeviceStencilStatei
H6j:_cycle
Od:_emscripten_glUniform1iv
xSc:__ZN15b2DistanceProxy3SetEPK7b2Shapei
Fub:__ZN16MemoryFileSystemD2Ev
bhg:_ReadOnlyCollection_1_System_Collections_IList_get_Item_m3438776984_gshared
J$c:__Z17dynamic_pptr_castIP9Texture2D7TextureET_RK4PPtrIT0_E
emj:_Logger_LogException_m2572239130
Eqc:__Z37Register_UnityEngine_Camera_get_depthv
NGi:_LayoutUtility_GetFlexibleWidth_m2542469125
ock:dynCall_vifii
_Vd:__ZNK15dense_hashtableI10KeyWrapperIP18Il2CppGenericClassES3_N6il2cpp8metadata22Il2CppGenericClassHashEN14dense_hash_setIS3_S6_NS3_14EqualsComparerINS5_25Il2CppGenericClassCompareEEENSt3__29allocatorIS3_EEE8IdentityESA_SD_E10test_emptyERK30dense_hashtable_const_iteratorIS3_S3_S6_SF_SA_SD_E
KYd:__ZN6il2cpp2os5posix15PosixWaitObject4WaitEjb
pAf:_RegionInfo_GetByTerritory_m4288954504
K7b:__Z23ConvertIntegerToTypePtrItEbPvR14SafeBinaryRead
GPj:_SymmetricTransform_OFB_m3075425260
JG:__ZN7mecanim5human29HumanGetGoalOrientationOffsetENS0_4GoalE
de:_emscripten_glStencilFunc
soe:_BaseInput_get_imeCompositionMode_m833093942
a0g:_Type_IsContextfulImpl_m3952152468
Eje:__Z46il2cpp_codegen_get_marshal_directive_exceptionPKc
Iqb:__ZN9ShaderLab20SerializedSubProgram14AddMatrixParamEPKcii15ShaderParamTypei
je:_glGetActiveUniformBlockName
Ime:_String_Format_m3082321663
Xf:_emscripten_glUniform1fv
Uae:_DSACryptoServiceProvider_Finalize_m652446580
Lzd:__ZN6il2cpp2vm13MetadataCache28GetGenericContainerFromIndexEi
MQ:__ZN4FMOD7Channel20set3DConeOrientationEP11FMOD_VECTOR
Hn:FUNCTION_TABLE_iiifii
Iuf:_KeyPairPersistence_Save_m2432832342
oYd:__ZN6il2cpp2vm12GenericClass11SetupEventsEP11Il2CppClass
cbd:_tt_delta_interpolate
a5c:_tt_cmap12_get_info
TTd:__ZN6il2cpp2vm15ReboxIReferenceEP14Il2CppIUnknownP11Il2CppClass
Xrd:__ZN6il2cpp6icalls8mscorlib6System7Decimal14decimalCompareEP19il2cpp_decimal_reprS5_
r2d:__ZThn4_N6il2cpp2vm13CachedCCWBaseINS0_13ManagedObjectEE7ReleaseEv
hFf:_Int32_ToString_m2734461695
a$e:_DateTime_System_IConvertible_ToInt32_m1173102565
Ief:_Array_InternalArray__IndexOf_TisVector3_t831627742_m433880899_gshared
Rhk:_glCopyTexImage2D__wrapper
QXc:__ZN16PhysicsManager2D11CreateWorldERK8Vector2f
doj:_Mesh_SetVertices_m2239036655
N3:__GLOBAL__sub_I_runtime_graphics_billboard_0_cpp
wPb:__Z18ClearByDrawingQuad13GfxClearFlagsRK10ColorRGBAffjR17ShaderPassContext
pua:__ZN6prcoreL17RemapGenericFloatI14TexFormatRHalf15TexFormatRFloatEEvPKNS_9InnerInfoE
xLe:_Boolean_System_IConvertible_ToSingle_m2932610653_AdjustorThunk
Hij:_Debug_LogWarning_m1471277534
FVb:__Z16ShouldUseShadowsb
Yea:__ZN15DirectorManager21RebuildStageCallbacksEv
eHj:_NoiseProfile_OnRenderImage_m4101361883
JPb:__ZN19RuntimeSceneManager9LoadSceneERKN4core12basic_stringIcNS0_20StringStorageDefaultIcEEEES6_S6_RK9UnityGUIDiNS_11LoadingModeE
zva:__ZN7ApiGLES10DrawArraysE16GfxPrimitiveTypejjj
cQj:_AesManaged_CreateDecryptor_m3182631574
dwc:__Z45Register_UnityEngine_SpriteRenderer_set_flipXv
kO:__ZN10SampleClip13LoadBaseSoundEv
Vde:_RIPEMD160Managed_HH_m2548429639
C0j:_CanvasGroup_get_blocksRaycasts_m3684927806
$We:_DateTime_op_Subtraction_m1459018679
cjg:_ReadOnlyCollection_1_System_Collections_IList_Add_m27307824_gshared
pY:__Z57AudioSource_CUSTOM_INTERNAL_CALL_ClearExtensionPropertiesP12Il2CppObjectRK12PropertyName
Sv:__ZN7mecanim9animation4Clip8TransferI19StreamedBinaryWriteILb0EEEEvRT_
d5e:_Enum_System_IConvertible_ToInt64_m2936854758
xEg:_X509Chain_Process_m3484917015
t$a:__ZN22DeviceMVPMatricesStateC2ER9GfxDevice
rn:FUNCTION_TABLE_iifii
Js:__ZN14SafeBinaryRead21TransferSTLStyleArrayI13dynamic_arrayI4PPtrI6ObjectELj4EEEEvRT_17TransferMetaFlags
Mpe:_EventSystem_ToString_m113393179
X6a:__ZNSt3__26vectorI13dynamic_arrayI8Vector2fLj4EENS_9allocatorIS3_EEE6assignINS_11__wrap_iterIPS3_EEEENS_9enable_ifIXaasr21__is_forward_iteratorIT_EE5valuesr16is_constructibleIS3_NS_15iterator_traitsISC_E9referenceEEE5valueEvE4typeESC_SC_
f3a:__ZN21EnlightenSceneMapping8TransferI14SafeBinaryReadEEvRT_
DNd:__ZN6il2cpp2vm10Reflection12HasAttributeEP9FieldInfoP11Il2CppClass
BHa:__ZNSt3__26__treeIiNS_4lessIiEE13stl_allocatorIiL18MemLabelIdentifier1ELi16EEE7destroyEPNS_11__tree_nodeIiPvEE
qc:invoke_viiifi
oge:_SymmetricAlgorithm_Dispose_m438956244
CHa:__ZNK11AssetBundle14GetPreloadDataEiR13dynamic_arrayIiLj4EE
fDi:_DefaultComparer_Equals_m942405031_gshared
GZg:_WaitHandle_set_Handle_m261575406
vf:_JS_Sound_SetPosition
ZOg:_ObjectManager_RegisterObject_m1895412821
CXa:__ZN19RenderBufferManager13GetTempBufferEii17DepthBufferFormat19RenderTextureFormatj22RenderTextureReadWrite14VRTextureUsagei23RenderTextureMemoryless
vzd:__ZL13GetSharedInstPK17Il2CppGenericInst
v4f:_Enumerator_MoveNext_m182525633_gshared
Q0b:__Z17PrepareSceneNodesP11CullResults
OEf:_Int32_System_IConvertible_ToUInt64_m421954258
RFf:_Int64_CompareTo_m3437268345_AdjustorThunk
x$b:__Z24SetupActiveLightsContextR21ActiveLightingContextRK12ActiveLightsRK11CullResultsP14ShadowMapCacheRK10MinMaxAABB
Qvc:__Z38Sprite_CUSTOM_INTERNAL_get_textureRectP12Il2CppObjectP5RectTIfE
ru:__ZNSt3__26vectorIN13AnimationClip15QuaternionCurveE13stl_allocatorIS2_L18MemLabelIdentifier26ELi16EEE7reserveEj
$nc:__ZN9TextAsset7SetTextERKN4core12basic_stringIcNS0_20StringStorageDefaultIcEEEE
tRa:__ZN6Camera8TransferI24GenerateTypeTreeTransferEEvRT_
Ka:invoke_iiiiiiif
Ga:invoke_iiiiiiii
UFg:_X509ChainStatus__ctor_m1898935717
YQh:_AssemblyBuilder_UnprotectedGetName_m52675493
Flk:b121
Q2b:__ZN8Renderer17PendingAddToSceneEv
Hlk:b123
Glk:b122
Jlk:b125
Ilk:b124
Llk:b127
Klk:b126
Nlk:b129
Kuc:__Z52Register_UnityEngine_RectTransform_INTERNAL_get_rectv
Z6:__Z21PostprocessStacktracePKcRN4core12basic_stringIcNS1_20StringStorageDefaultIcEEEE
zDf:_NumberFormatter_RoundPos_m1745479645
Rqc:__Z47Register_UnityEngine_Camera_get_allCamerasCountv
Vwf:_X509Extension__ctor_m46703542
W5f:_Collection_1_CheckWritable_m64332566_gshared
eve:_CanvasScaler_get_fallbackScreenDPI_m531171062
Nsd:___clang_call_terminate
Xkd:__ZN22BaseUnityConnectClient20StartEventDispatcherEv
qlc:__ZNSt3__26vectorIj13stl_allocatorIjL18MemLabelIdentifier1ELi16EEE6assignIPKtEENS_9enable_ifIXaasr21__is_forward_iteratorIT_EE5valuesr16is_constructibleIjNS_15iterator_traitsIS9_E9referenceEEE5valueEvE4typeES9_S9_
xF:__ZN7mecanim9animation16EvaluateAvatarIKEPKNS0_14AvatarConstantEPKNS0_11AvatarInputEPNS0_12AvatarOutputEPNS0_12AvatarMemoryEPNS0_15AvatarWorkspaceEb
Zva:__ZL25ProgramUniformMatrix4x3fvPK7ApiGLESjiihPKv
Xqf:_BigInteger_TestBit_m3808817529
BPd:__ZN6il2cpp2vm6Thread5SetupEP12Il2CppThread
Tdg:_ReadOnlyCollection_1__ctor_m3398861359_gshared
UPh:_Binder_ConvertArgs_m3609077660
fle:_String_System_IConvertible_ToChar_m4005893841
_Oj:_GUIStyleState_Cleanup_m1676886544
M$i:_InternalEnumerator_1_System_Collections_IEnumerator_get_Current_m3647933241_gshared
hfg:_ReadOnlyCollection_1_System_Collections_IEnumerable_GetEnumerator_m359851672_gshared
dg:_localtime_r
rDf:_NumberFormatter_FormatNumber_m697972640
jZa:__ZN9ShaderLab11ShaderState25RemoveUnsupportedProgramsEPK6Shader
qg:_strftime
pya:__ZN7Texture33SetStoredColorSpaceNoDirtyNoApplyE17TextureColorSpace
IOj:_GUISkin__ctor_m563960231
Hba:__ZN12FileAccessorD2Ev
kKj:_UnityEvent_1_Invoke_m3149128565_gshared
FVa:__ZN14VertexDataInfoC2Ev
D_d:__ZN6il2cpp2gc16GarbageCollector14CollectALittleEv
MAg:_WebHeaderCollection__ctor_m2930355662
kHb:__ZL17Transfer_GUIStyleI18StreamedBinaryReadILb1EELb1EEvRK29SerializationCommandArgumentsR31RuntimeSerializationCommandInfo
mCd:__ZN6il2cpp6icalls8mscorlib6SystemL9IsPrivateEPK12PropertyInfo
Okj:_GameObject_get_activeSelf_m1131101855
n6:__ZN9shadertag10InitializeEv
SVb:__ZN13BatchRenderer20RenderSingleWithPassER17ShaderPassContextPK18SharedMaterialDataP6ShaderPN9ShaderLab4PassEiPKNS7_10GrabPassesEjib15BatchBreakCause
M5a:__ZN15QualitySettings14QualitySetting8TransferI24GenerateTypeTreeTransferEEvRT_
VYe:_Convert_ToInt32_m357558641
ycd:__Z28Font_Get_Custom_PropMaterialP12Il2CppObject
rNf:_UnmanagedMemoryStream_get_CanWrite_m1598721376
Tjc:__ZN22BlockMemoryCacheWriter14LockCacheBlockEjPPhS1_
hge:_SHA512Managed_Sigma0_m912211032
fhe:_X509Certificate_Equals_m2242956334
MJe:_Array_CopyTo_m1659307293
$Hc:__Z22TransferField_NonArrayI8JSONRead27Converter_SimpleNativeClassI8GUIStyleEEvRK23StaticTransferFieldInfoR31RuntimeSerializationCommandInfoRT0_
Xg:_llvm_eh_typeid_for
Zbc:__Z13RegisterClassI10GameObjectEvv
iD:__ZNK23AnimationPlayableOutput7GetTypeEv
zJb:__Z18Transfer_BlittableI18StreamedBinaryReadILb0EELb1E8Vector4fEvRK29SerializationCommandArgumentsR31RuntimeSerializationCommandInfo
NZd:__ZN6il2cpp2vm6Method8GetParamEPK10MethodInfoj
Oee:_RSAPKCS1KeyExchangeFormatter__ctor_m1574887152
ajj:_Display_FireDisplaysUpdated_m2943457370
pkk:_glBindVertexArray__wrapper
Cyj:_Vector3_get_down_m974092325
Tzj:_NetscapeCertTypeExtension_ToString_m4175928037
HZa:__ZN8Material8TransferI14SafeBinaryReadEEvRT_
H0a:__ZN12CubemapArray17UploadToGfxDeviceEv
SCe:_Image_SetNativeSize_m3938467255
uff:_Array_InternalArray__ICollection_Add_TisLabelData_t2733971455_m1641933198_gshared
SHg:_RepeatContext__ctor_m2580401400
Kda:__ZN15dense_hashtableINSt3__24pairIKiiEEi21InstanceIDHashFunctorN14dense_hash_mapIiiS4_NS0_8equal_toIiEE13stl_allocatorIS3_L18MemLabelIdentifier67ELi16EEE9SelectKeyES7_SA_E14squash_deletedEv
qjk:_emscripten_glGetUniformiv__wrapper
iBd:__ZN6il2cpp2vm19SocketPollingThread9WritePipeEic
fu:__ZNSt3__26vectorI24CompressedAnimationCurve13stl_allocatorIS1_L18MemLabelIdentifier26ELi16EEE6assignINS_11__wrap_iterIPS1_EEEENS_9enable_ifIXaasr21__is_forward_iteratorIT_EE5valuesr16is_constructibleIS1_NS_15iterator_traitsISB_E9referenceEEE5valueEvE4typeESB_SB_
IO:__ZN11AudioSource4StopEb
ezb:__ZN14SafeBinaryRead21TransferSTLStyleArrayI13dynamic_arrayI10Matrix4x4fLj4EEEEvRT_17TransferMetaFlags
iSa:__ZN15LODGroupManager26CollectAllLODGroupManagersERK16CoreCameraValuesR13dynamic_arrayIPS_Lj4EEb
TAf:_TextInfo__ctor_m3919165525
ePb:__Z25GetSplashScreenBackgroundRK5RectTIfE
YZj:_TextGenerator_Finalize_m792539846
dBa:__ZN18GlslGpuProgramGLESD2Ev
e5b:__ZN13RenderTexture14SetVolumeDepthEi
FIc:__ZN10Matrix4x4f8TransferI8JSONReadEEvRT_
w_c:__ZN14SafeBinaryRead21TransferSTLStyleArrayI13dynamic_arrayIN4core17string_with_labelILi35EEELj4EEEEvRT_17TransferMetaFlags
GKg:_MethodDictionary_Remove_m563371342
ZIb:__Z15Transfer_StringI18StreamedBinaryReadILb0EELb0EEvRK29SerializationCommandArgumentsR31RuntimeSerializationCommandInfo
CRc:__ZThn4_N16PhysicsManager2D9PostSolveEP9b2ContactPK16b2ContactImpulse
tXe:_Convert_ToDateTime_m2179369577
pna:__ZN25TransformFeedbackSkinning31CleanupTransformFeedbackShadersEv
ZRa:__Z22scripting_object_unbox18ScriptingObjectPtr
A$c:__ZNK20TextRenderingPrivate8FontImpl19GetCharacterAdvanceEjijfPj
sMf:_SynchronizedReader_Read_m3843341637
A7a:__ZN10VertexData8TransferI18StreamedBinaryReadILb0EEEEvRT_
Hqj:_Vector3_op_Multiply_m3130616738
RDf:_NumberFormatter_GetTenPowerOf_m3847106809
Jib:__ZN14PreloadManager16UpdatePreloadingEv
e4j:_CustomEventData_Add_m3204585355
Xdg:_ReadOnlyCollection_1_System_Collections_Generic_ICollectionU3CTU3E_Remove_m90139991_gshared
jei:__Z91RuntimeInvoker_Quaternion_t1017567289_Single_t209704323_Single_t209704323_Single_t209704323PFvvEPK10MethodInfoPvPS4_
_1:__ZNK21UnityDefaultAllocatorI17LowLevelAllocatorE8ContainsEPKv
fi:_emscripten_get_main_loop_timing
lRg:_SByte_System_IConvertible_ToDateTime_m3663018987
fvj:_Sprite_get_packed_m2899127761
L5a:__ZN24GenerateTypeTreeTransfer21TransferSTLStyleArrayINSt3__26vectorIN15QualitySettings14QualitySettingENS1_9allocatorIS4_EEEEEEvRT_17TransferMetaFlags
Mdb:__ZNSt3__26vectorI14SubstanceInputNS_9allocatorIS1_EEE8__appendEj
Peb:__ZNSt3__26vectorI9InputAxisNS_9allocatorIS1_EEE6resizeEj
RLf:_TextWriter__ctor_m1741422366
fpf:_MSCompatUnicodeTable_ToKanaTypeInsensitive_m1702718318
ZVb:__ZN13BatchRendererC2ER15RenderLoopStatsRK15RenderNodeQueuebbb
fpg:_ContentInfo__ctor_m741785913
Yrb:__ZNK2UI13RectTransform22GetTypeVirtualInternalEv
Fp:getTempRet0
cFg:_X509ChainElementCollection_Contains_m1248600027
Iue:_Button_OnSubmit_m457596677
hXe:_DateTime_op_Addition_m3004246807
ENe:_Char_System_IConvertible_ToInt64_m1260948682_AdjustorThunk
YQd:__ZN6il2cpp6icalls8mscorlib6System9ThreadingL21lookup_cached_cultureEP12Il2CppThreadi
q0b:__ZN18DeferredRenderLoopD2Ev
UDa:__ZNK16TypeTreeIterator4NameEv
$be:_HMACRIPEMD160__ctor_m2475956716
fba:__ZN15FileSystemEntry3SetEPKc
gQi:_VerticalLayoutGroup_CalculateLayoutInputVertical_m509886541
Mgi:__Z69RuntimeInvoker_Boolean_t1367519524_TextGenerationSettings_t3463204300PFvvEPK10MethodInfoPvPS4_
EEd:_il2cpp_method_has_attribute
nde:_Rijndael_Create_m4047846937
vQ:__ZN20SoundChannelInstance15ParameterBuffer5ApplyEPN4FMOD7ChannelE
x$c:__ZN20TextRenderingPrivate19NativeTextGenerator9InsertTabEv
Ls:__ZN15SerializeTraitsI13dynamic_arrayIN11UnityEngine9Animation14GenericBindingELj4EEE19ResizeSTLStyleArrayERS4_i
wld:__ZN11UnityEngine15PlatformWrapper24GetRuntimePlatformStringEv
Ri:_glIsEnabled
ngj:_Bounds_set_extents_m402630637_AdjustorThunk
Xpe:_EventTrigger_OnPointerUp_m2515887975
Wxb:__Z25scripting_class_get_image17ScriptingClassPtr
Shj:_Component_GetComponents_m520392999
rib:__ZNSt3__26vectorIN4core12basic_stringIcNS1_20StringStorageDefaultIcEEEE13stl_allocatorIS5_L18MemLabelIdentifier13ELi16EEEC2INS_11__wrap_iterIPS5_EEEET_SE_RKS8_PNS_9enable_ifIXaasr21__is_forward_iteratorISE_EE5valuesr16is_constructibleIS5_NS_15iterator_traitsISE_E9referenceEEE5valueEvE4typeE
Vi:_emscripten_glDrawElementsInstanced
_B:__ZN26AnimatorControllerPlayable27SetupStateMachineBehavioursEv
AHe:_LayoutRebuilder_ForceRebuildLayoutImmediate_m2034466255
RGg:_BaseMachine_Scan_m885559313
MTa:__ZN18JobBatchDispatcherD2Ev
Trb:__ZN9Transform17MainThreadCleanupEv
V2g:_UInt64_CompareTo_m4112679547
R4d:_GC_clear_hdr_marks
llk:_emscripten_glCreateShader__wrapper
SPi:_ToggleGroup__ctor_m470534373
o7c:_cff_fd_select_get
vL:__Z13RegisterClassI18AnimatorControllerEvv
fsj:_Rect_Overlaps_m2027481577
ej:_emscripten_glGetShaderiv
ihe:_X509Certificate_GetEffectiveDateString_m800518179
vR:__ZN4FMOD6System10getVersionEPj
yYf:_List_1_set_Capacity_m2800946222_gshared
hdd:__ZN2UI6Canvas23VirtualRedirectTransferER24GenerateTypeTreeTransfer
hGc:__ZN9JSONWrite8TransferIN4math12int2_storageEEEvRT_PKc17TransferMetaFlags
i_c:__ZN13TextRendering4Font13AwakeFromLoadE17AwakeFromLoadMode
eka:__ZN9GfxDevice21ReleaseSharedMeshDataEP14SharedMeshData
Efb:__ZNSt3__27__sort5IRNS_6__lessINS_4pairIPKN5Unity4TypeE7Hash128EES8_EEPS8_EEjT0_SC_SC_SC_SC_T_
LKf:_MonoIOStat_t6874096_marshal_pinvoke_back
q8e:_Array_get_swapper_TisUICharInfo_t1968196628_m1161065518_gshared
u5d:_maybe_finalize
Cuc:__Z43RectTransform_CUSTOM_INTERNAL_get_anchorMaxP12Il2CppObjectP13Vector2fIcall
JQf:_NumberFormatter_NumberToString_m1247637649
S2a:__ZN8Material28UpdateHashesOnPropertyChangeEN9ShaderLab16FastPropertyNameE
Ivc:__Z53Register_UnityEngine_SortingLayer_GetLayerValueFromIDv
SWg:_UTF7Encoding_GetDecoder_m2076861497
qOg:_SerializationInfo_AddValue_m2015874911
Owb:__Z18Transfer_BlittableI14SafeBinaryReadLb1E8Vector4fEvRK29SerializationCommandArgumentsR31RuntimeSerializationCommandInfo
qma:__ZN13GfxDeviceGLES20SetComputeBufferDataE15ComputeBufferIDPKvjj
xT:__ZN11AudioSource12AddToManagerEv
Jw:__ZN8Animator23VirtualRedirectTransferER19StreamedBinaryWriteILb0EE
FD:__ZN11UnityEngine9Animation32CreateAnimatorGenericBindingsOptERKNS0_20AnimationSetBindingsER9TransformPKN7mecanim9animation14AvatarConstantEPKNS0_21AvatarBindingConstantEbRNS6_6memory9AllocatorER8Animator
__f:_List_1_CheckMatch_m1803429493_gshared
xUd:__ZN6il2cpp2vm5Image13ClassFromNameEPK11Il2CppImagePKcS6_
kbk:dynCall_vdddddd
Job:__ZN24GenerateTypeTreeTransfer21TransferSTLStyleArrayINSt3__26vectorIN9ShaderLab14SerializedPassENS1_9allocatorIS4_EEEEEEvRT_17TransferMetaFlags
N6:__ZL32MarkLevelGameManagerDependenciesR27GarbageCollectorThreadState
q1e:_DBNull_System_IConvertible_ToByte_m805275731
xma:__ZNK13GfxDeviceGLES26HasActiveRandomWriteTargetEv
HAi:_Dictionary_2_ContainsKey_m1059836949_gshared
dgk:_glGetActiveUniformsiv__wrapper
Pxi:_ValueCollection_System_Collections_Generic_ICollectionU3CTValueU3E_Remove_m1058184709_gshared
Fvc:__Z43Register_UnityEngine_Material_EnableKeywordv
c9:__ZN13MonoBehaviour19SetupScriptingCacheE17ScriptingClassPtrP10MonoScript
Pr:__Z20AnimationEventToMonoRK14AnimationEventR18MonoAnimationEvent
BXf:_List_1_set_Capacity_m3491211509_gshared
Rhg:_ReadOnlyCollection_1_System_Collections_Generic_ICollectionU3CTU3E_Remove_m3050246879_gshared
s8:__ZN17PersistentManager29ReadAndActivateObjectThreadedEiRK26SerializedObjectIdentifierP14SerializedFilebb
Blg:_BigInteger_ToString_m1041639149
zfa:__ZZN15DirectorManager15InitializeClassEvEN52PreLateUpdateDirectorUpdateAnimationBeginRegistrator7ForwardEv
XSd:__ZN6il2cpp2vm13LivenessState18ShouldProcessValueEP12Il2CppObjectP11Il2CppClass
Kif:_Array_InternalArray__set_Item_TisCustomAttributeNamedArgument_t3990136598_m727921993_gshared
eob:__ZNSt3__26vectorIN9ShaderLab14SerializedPassENS_9allocatorIS2_EEE8__appendEj
vnb:__ZNSt3__26vectorIN9ShaderLab20SerializedSubProgram13BufferBindingENS_9allocatorIS3_EEEC2INS_11__wrap_iterIPS3_EEEET_SB_RKS5_PNS_9enable_ifIXaasr21__is_forward_iteratorISB_EE5valuesr16is_constructibleIS3_NS_15iterator_traitsISB_E9referenceEEE5valueEvE4typeE
sRc:__ZNK16PhysicsManager2D21GetAutoSyncTransformsEv
iNc:__ZN12b2WheelJoint24SolveVelocityConstraintsERK12b2SolverData
Igi:__Z81RuntimeInvoker_Single_t209704323_RuntimeObject_TextGenerationSettings_t3463204300PFvvEPK10MethodInfoPvPS4_
z2a:__ZN9Texture2D23VirtualRedirectTransferER18StreamedBinaryReadILb0EE
aQc:__ZN10Collider2D8TransferI24GenerateTypeTreeTransferEEvRT_
xzg:_NameObjectCollectionBase_Init_m3376414784
iLg:_RemotingSurrogate_SetObjectData_m2654421622
Azh:__ZL73g_UnityEngine_TextRenderingModule_Assembly_CustomAttributesCacheGeneratorP21CustomAttributesCache
Rge:_TripleDES_set_Key_m2287510767
L9:__ZN16ScriptingManager27NativeTypeForScriptingClassE17ScriptingClassPtr
fCf:_Int16_System_IConvertible_ToDateTime_m3897943597_AdjustorThunk
u4c:_get_sfnt_table
tve:_CanvasScaler_HandleConstantPhysicalSize_m2813311285
Meg:_ReadOnlyCollection_1_System_Collections_IList_RemoveAt_m366907918_gshared
RXg:_NativeEventCalls_SetEvent_internal_m1846760763
L1b:__ZL22ScheduleSceneNodesJobsP25ScheduleSceneNodesJobDataj
Wk:_emscripten_set_canvas_size
Ywc:__Z58Register_UnityEngine_RenderTexture_INTERNAL_CALL_IsCreatedv
rt:__ZNSt3__26vectorIN13AnimationClip9PPtrCurveE13stl_allocatorIS2_L18MemLabelIdentifier26ELi16EEE6resizeEj
Nyh:__ZL72FormerlySerializedAsAttribute_t3790141670_CustomAttributesCacheGeneratorP21CustomAttributesCache
Nnb:__ZNSt3__26vectorIN9ShaderLab20SerializedSubProgramENS_9allocatorIS2_EEE8__appendEj
I2:__ZN20DynamicHeapAllocatorI17LowLevelAllocatorE8AllocateEji
ejd:__ZN11UnityEngine9Analytics15UserCustomEvent12ToJsonStringER9JSONWrite
yWb:__ZN20DynamicPropertySheet15SetVectorQueuedERKN9ShaderLab16FastPropertyNameERK8Vector4fN19ShaderPropertySheet8SetFlagsE
rLh:__ZL62HorizontalLayoutGroup_t50752891_CustomAttributesCacheGeneratorP21CustomAttributesCache
HE:__ZN7mecanim9animation22EvaluateAvatarRetargetEPKNS0_14AvatarConstantEPKNS0_11AvatarInputEPNS0_12AvatarOutputEPNS0_12AvatarMemoryEPNS0_15AvatarWorkspaceEb
cmj:_Logger_Log_m1956848953
Z3g:_Version_CompareTo_m2501245145
CWa:__ZN14RenderSettings23VirtualRedirectTransferER19StreamedBinaryWriteILb0EE
Iwf:_DeriveBytes_set_Password_m1552277359
GEc:__ZL26Transfer_SimpleNativeClassI9JSONWrite10RectOffsetLb0EEvRK29SerializationCommandArgumentsR31RuntimeSerializationCommandInfo
q4d:_GC_push_conditional
TSi:_InternalEnumerator_1_get_Current_m3490837414_gshared
rjd:__ZN21UnityAnalyticsManager23VirtualRedirectTransferER24GenerateTypeTreeTransfer
yqa:__ZN17GenericDynamicVBO10AllocateVBEjR21DynamicVBOChunkHandle
pag:_Collection_1_System_Collections_ICollection_CopyTo_m1009094759_gshared
y0e:_DateTime_ToString_m4239426972_AdjustorThunk
YVd:__ZN30dense_hashtable_const_iteratorI10KeyWrapperIP18Il2CppGenericClassES3_N6il2cpp8metadata22Il2CppGenericClassHashEN14dense_hash_setIS3_S6_NS3_14EqualsComparerINS5_25Il2CppGenericClassCompareEEENSt3__29allocatorIS3_EEE8IdentityESA_SD_EppEv
oxj:_RequestAtlasCallback_Invoke_m2247048344
ul:_glMapBufferRange
r2a:__ZN9Texture2D8TransferI18StreamedBinaryReadILb0EEEEvRT_
Tsc:__Z31Input_CUSTOM_GetMouseButtonDowni
ruc:__Z75Register_UnityEngine_Playables_PlayableHandle_INTERNAL_CALL_IsValidInternalv
Nic:__ZN13PlayableGraph4PlayEv
dNa:__ZNK9Transform16GetLocalPositionEv
YGa:__ZN13LoadOperation19IntegrateTimeSlicedEi
GUf:_Enumerator_System_Collections_IEnumerator_Reset_m2338948510_gshared
Ima:__ZN13GfxDeviceGLES22DispatchComputeProgramE12ObjectHandleI18ComputeProgram_TagPvE15ComputeBufferIDj
gs:__ZNK13AnimationClip15GetAverageSpeedEv
gkb:__Z17TransformAABBSlowRK4AABBRK10Matrix4x4fRS_
lNd:__ZN13Il2CppHashMapINSt3__24pairIPK9FieldInfoP11Il2CppClassEEj17ReflectionMapHashIS7_ENS0_8equal_toIS7_EENS0_9allocatorINS1_IK10KeyWrapperIS7_EjEEEEEC2EjRKS9_RKSB_
wmb:__ZN9ShaderLab21SerializedShaderState8TransferI14SafeBinaryReadEEvRT_
t8j:_ftruncate
yie:_EvidenceEnumerator_Reset_m789650954
lQe:_ReadOnlyArrayListWrapper_set_Item_m2534562201
ppf:_SimpleCollator__ctor_m2896715676
mik:b89
lik:b88
cRg:_RuntimeTypeHandle_Equals_m1546028718
iAj:_DeriveBytes_set_Password_m2913169469
Ohk:b81
Nhk:b80
Fya:__ZN7ApiGLES19CreateSparseTextureEjj14GraphicsFormatiiiiRiS1_S1_
vaa:__ZN18ResourceImageGroup7CleanupEv
Yhk:b85
Xhk:b84
eik:b87
dik:b86
Rgc:__ZN13ProduceHelperI4MeshLb0EE7ProduceE18MemLabelIdentifier18ObjectCreationMode
N$a:__ZN8Playable19SetOutputConnectionEPS_i
Uud:__ZN15dense_hashtableINSt3__24pairIK10KeyWrapperIPK11Il2CppClassEPKcEES6_N6il2cpp5utils11PointerHashIS3_EEN14dense_hash_mapIS6_S9_SE_NS6_14EqualsComparerINS0_8equal_toIS5_EEEENS0_9allocatorISA_EEE9SelectKeyESJ_SL_EC2ERKSO_j
im:_glDeleteShader
YDg:_X509Certificate2_get_PrivateKey_m604570595
prj:_Rect_set_x_m3038829677
xua:__ZN6prcoreL17RemapGenericFloatI15TexFormatRGHalf16TexFormatRGFloatEEvPKNS_9InnerInfoE
Mme:_String_ConcatInternal_m93686231
tSh:_DerivedType_get_TypeHandle_m1190814216
foc:__Z27scripting_add_internal_callPKcPKv
XMd:__ZN13Il2CppHashMapINSt3__24pairIPK9EventInfoP11Il2CppClassEEj17ReflectionMapHashIS7_ENS0_8equal_toIS7_EENS0_9allocatorINS1_IK10KeyWrapperIS7_EjEEEEEC2EjRKS9_RKSB_
CWd:__GLOBAL__sub_I_GarbageCollector_cpp
Ytf:_KeyPairPersistence_IsMachineProtected_m3158547816
A_j:_Comparison_1_Invoke_m895905273_gshared
Wye:_Dropdown_CreateBlocker_m4076018041
bx:__ZN26AnimatorControllerPlayable18SetLayerAutoWeightEv
zid:__Z44Register_UnityEngine_Canvas_get_pixelPerfectv
Mfd:__ZN2UI14CanvasRenderer12SyncMaterialENS0_8SyncFlagE
W2g:_UInt64_CompareTo_m4112679547_AdjustorThunk
pyi:_ValueCollection_System_Collections_Generic_ICollectionU3CTValueU3E_Remove_m3636808582_gshared
j8d:__ZN6il2cpp2vm9Parameter30GetDefaultParameterValueObjectEPK10MethodInfoPK13ParameterInfoPb
WWi:_InternalEnumerator_1_System_Collections_IEnumerator_get_Current_m565289974_gshared
f2i:_Comparer_1_System_Collections_IComparer_Compare_m1814822457_gshared
Nv:__ZN14AnimationEvent8TransferI19StreamedBinaryWriteILb0EEEEvRT_
iZg:_Scheduler_get_Instance_m8571735
k4c:_UNITY_tt_face_done_kern
vdb:__ZN14SafeBinaryRead21TransferSTLStyleArrayINSt3__26vectorI14SubstanceInputNS1_9allocatorIS3_EEEEEEvRT_17TransferMetaFlags
gab:__ZN12BoneWeights48TransferI24GenerateTypeTreeTransferEEvRT_
zOb:__Z19scripting_gc_enablev
VRb:__ZZ23InitPlayerLoopCallbacksvEN41InitializationPlayerUpdateTimeRegistrator7ForwardEv
Ahd:__Z55Register_UnityEngine_CanvasRenderer_DisableRectClippingv
F9a:__ZN14SafeBinaryRead21TransferSTLStyleArrayI13dynamic_arrayI11ColorRGBA32Lj4EEEEvRT_17TransferMetaFlags
rSf:_Enumerator_VerifyState_m1123682475_gshared
Ivi:_Transform_1_Invoke_m2874330563_gshared
Prf:_ModulusRing_Pow_m2929798047
ouj:_SceneManager_Internal_SceneLoaded_m2854232489
rqb:__ZN9ShaderLab7Program27CreateFromSerializedProgramERKNS_17SerializedProgramE10ShaderTypeiP16PropertyNamesSetPK6Shader
Utg:_TlsClientCertificateVerify_getUnsignedBigInteger_m3876215633
Nrb:__ZNSt3__27__sort4IRNS_6__lessIN4core12basic_stringIcNS2_20StringStorageDefaultIcEEEES6_EEPS6_EEjT0_SA_SA_SA_T_
o0f:_List_1_get_Item_m96145871_gshared
e4g:_Version_CreateFromString_m3757877336
Uxj:_Vector2_op_Division_m3922072251
zLd:__ZN6il2cpp2gc19AppendOnlyGCHashMapINSt3__24pairIPK11Il2CppImageP11Il2CppClassEEP22Il2CppReflectionModule17ReflectionMapHashIS9_ENS2_8equal_toIS9_EEEC2Ev
efg:_ReadOnlyCollection_1_System_Collections_Generic_IListU3CTU3E_set_Item_m2906319299_gshared
T7:__Z20GetPersistentManagerv
obd:_UNITY_TT_Set_Var_Design
y4:__ZN21SystemInfoStringCache16StaticInitializeEPv
N_d:__ZN6il2cpp2gc16GarbageCollector23MakeDescriptorForObjectEPji
NLb:__ZNK13MonoBehaviour7GetNameEv
rQd:__ZN6il2cpp6icalls8mscorlib6System10Reflection8Assembly13get_code_baseEP24Il2CppReflectionAssemblyb
iWd:__ZN15dense_hashtableI10KeyWrapperIP18Il2CppGenericClassES3_N6il2cpp8metadata22Il2CppGenericClassHashEN14dense_hash_setIS3_S6_NS3_14EqualsComparerINS5_25Il2CppGenericClassCompareEEENSt3__29allocatorIS3_EEE8IdentityESA_SD_E6insertERKS3_
yAj:_X509CertificateEnumerator_get_Current_m306143468
jO:__Z15_CheckFMODError11FMOD_RESULTPKciS1_
RUa:__Z20RenderMultipleMeshesRK15RenderNodeQueueRK18RenderMultipleData17ShaderChannelMask
ere:_PhysicsRaycaster_Raycast_m4009054462
uGd:__ZN6il2cpp2vm4Type19GetGenericParameterEPK10Il2CppType
cze:_Dropdown_SetAlpha_m59756496
ahd:__Z51Register_UnityEngine_CanvasGroup_get_blocksRaycastsv
N9i:_PatternCompiler_EmitString_m480003806
_hf:_Array_InternalArray__Insert_TisRaycastResult_t3692659608_m625995532_gshared
WJe:_ArrayTypeMismatchException__ctor_m1044113524
t$g:_Type_get_IsPrimitive_m1589096916
Dd:_glBeginQuery
jAg:_TypeConverterAttribute_Equals_m1941332487
afk:_glBlendFuncSeparate__wrapper
wJ:__ZN18AnimatorController19TransferRuntimeDataI24GenerateTypeTreeTransferEEvRT_
XXc:__ZN10Effector2D25CheckEffectorColliderMaskEP10Collider2DS1_
rTb:__ZN6Camera12RenderStereoENS_10RenderFlagE8CullFlagPNS_24PerformEyeRenderFunctionE
aub:__ZN20LocalFileSystemPosix10ToAbsoluteEPKc
EUa:__ZN20TierGraphicsSettings8TransferI19StreamedBinaryWriteILb0EEEEvRT_
qMh:__ZL61VerticalLayoutGroup_t468906455_CustomAttributesCacheGeneratorP21CustomAttributesCache
e$j:_U3CCreateWhereIteratorU3Ec__Iterator1D_1_MoveNext_m3059764381_gshared
N1g:_UInt32_System_IConvertible_ToInt32_m3800489292
T3:__GLOBAL__sub_I_runtime_input_0_cpp
r1d:__ZN6il2cpp2vm13ComObjectBase16DisconnectObjectEj
I1e:_Decimal__ctor_m824862551_AdjustorThunk
Sm:f0
e7j:_getcwd
CQf:_NumberFormatter_Init_m3996909822
PSc:__ZN16b2CapsuleContact6CreateEP9b2FixtureiS1_iP16b2BlockAllocator
gGa:__ZN25ThreadsafeLinearAllocatorD2Ev
w9f:_Collection_1_set_Item_m3368386129_gshared
Bjb:__Z21SendMessageToEveryoneRK17MessageIdentifier11MessageData
Cda:__ZN21BillboardBatchManager16StaticInitializeEPv
Nda:__ZN21RendererUpdateManagerD2Ev
nue:_LayoutRebuilder_MarkLayoutRootForRebuild_m3067109564
oEg:_X509Chain_Reset_m20087080
R5:__ZN12_GLOBAL__N_138ArchiveRedirectFileSystemStaticDestroyEPv
Vgg:_ReadOnlyCollection_1_System_Collections_IList_IndexOf_m3980125981_gshared
E0a:__ZN12CubemapArray34UpdateFileTextureUploadInstructionEP26FileAssetUploadInstructionj
Eya:__Z23CreateSparseTextureGLES9TextureIDii14GraphicsFormati
l1j:_RectTransformUtility_ScreenPointToWorldPointInRectangle_m1933129556
q0c:__ZNSt3__23mapIN20TextRenderingPrivate7FontRefEP11FT_FaceRec_NS_4lessIS2_EENS_9allocatorINS_4pairIKS2_S4_EEEEEixERS9_
vIa:__ZN17ArchiveFileSystem10AddStorageEP20ArchiveStorageReader
kZg:_Timer_Change_m3892195679
Jij:_Debug__cctor_m367822279
iMc:__ZNK12b2MotorJoint16GetReactionForceEf
wa:invoke_didiii
ftd:__ZN6il2cpp2vm5Class15GetEnumBaseTypeEP11Il2CppClass
Sdj:_Uri_EscapeString_m967208884
qti:_Enumerator_MoveNext_m3773791621_AdjustorThunk
H1a:__ZNK9Texture2D16GetNpotTexelSizeEv
Exf:_X509Certificate__cctor_m3256501870
gYg:_Mutex__ctor_m608012166
hZf:_List_1_IndexOf_m1258123647_gshared
Dqa:__ZN9GfxDevice22GetDefaultVertexBufferE26GfxDefaultVertexBufferTypej
ckg:_ReadOnlyCollection_1_System_Collections_Generic_IListU3CTU3E_RemoveAt_m3963213678_gshared
_hk:_glGetActiveUniform__wrapper
s7j:_sscanf
q4h:__Z90RuntimeInvoker_Boolean_t1367519524_RuntimeObject_RuntimeObject_RuntimeObject_RuntimeObjectPFvvEPK10MethodInfoPvPS4_
U9a:__ZN14SafeBinaryRead21TransferSTLStyleArrayINSt3__26vectorI17BlendShapeChannelNS1_9allocatorIS3_EEEEEEvRT_17TransferMetaFlags
zPb:__Z17BeginSplashScreenv
vpb:__ZN9ShaderLab16SerializedShader8TransferI19StreamedBinaryWriteILb0EEEEvRT_
aH:__ZN7mecanim9animation18CreateAvatarMemoryEPKNS0_14AvatarConstantERNS_6memory9AllocatorE
R8e:_Array_InternalArray__ICollection_Contains_TisInt64_t2229785298_m4220357442_gshared
FKe:_Convert_ToType_m3100728276
vwf:_StrongName_get_PublicKeyToken_m3910724568
RF:__ZN7mecanim8skeleton16SkeletonPoseCopyIN4math4trsXENS2_7affineXEEEvPKNS0_13SkeletonPoseTIT_EEPNS5_IT0_EE
uOg:_ObjectManager_GetObjectRecord_m541894217
iqa:__ZN18GfxFramebufferGLES18GetFramebufferNameERK20GfxRenderTargetSetup
nMf:_StringReader_ReadToEnd_m2789564759
JFd:__ZN6il2cpp2vm14TypeNameParser12ParseVersionERKNSt3__212basic_stringIcNS2_11char_traitsIcEENS2_9allocatorIcEEEERtSB_SB_SB_
yak:_saveSetjmp
XAc:__Z30Event_Get_Custom_PropCharacterP12Il2CppObject
Uea:__ZN13PlayableGraph27SchedulePlayableDestructionERK9HPlayable
gfk:_glGetFramebufferAttachmentParameteriv__wrapper
zpd:__Z13RegisterClassI20UnityConnectSettingsEvv
Txb:__Z22scripting_array_length17ScriptingArrayPtr
S0a:__ZN14SafeBinaryRead20TransferTypelessDataEjPvi
Xbb:__ZN14SpriteRenderer18UpdateCachedSpriteEb
m3i:_ResourceSet_GetObjectInternal_m26550406
OU:__ZN13dynamic_arrayI12SoundChannelLj4EE9push_backERKS0_
dya:__Z19GetActiveColorSpacev
vLe:_Boolean_System_IConvertible_ToSingle_m2932610653
D6i:_ConfigHandler_OnEndElement_m2985333921
D3c:_UNITY_tt_face_load_kern
gog:_MD5SHA1__ctor_m2782011918
j5:__Z6StrCmpPKcS0_
pDe:_SubmitEvent__ctor_m2044610917
$qb:__Z21CheckGpuProgramUsable20ShaderGpuProgramType
WZd:__ZN6il2cpp2os9Directory20GetFileSystemEntriesERKNSt3__212basic_stringIcNS2_11char_traitsIcEENS2_9allocatorIcEEEESA_iiPi
Fsd:__ZN30dense_hashtable_const_iteratorINSt3__24pairIK10KeyWrapperIPK22Il2CppGenericParameterEP11Il2CppClassEES6_N6il2cpp5utils11PointerHashIS4_EEN14dense_hash_mapIS6_S9_SE_NS6_14EqualsComparerINS0_8equal_toIS5_EEEENS0_9allocatorISA_EEE9SelectKeyESJ_SL_EppEv
p$c:__ZN20TextRenderingPrivate19NativeTextGenerator5SetupEv
Jwg:_SslStreamBase_Dispose_m420591611
Y_b:__ZNK15SharedLightData24GetFinalShadowResolutionEv
Igb:__ZN12AspectRatios8TransferI18StreamedBinaryReadILb0EEEEvRT_
HVh:_TypeBuilder_DefineConstructor_m1010377107
kic:__ZN10GameObject14CopyPropertiesERS_
Twc:__Z44Register_UnityEngine_RenderTexture_get_depthv
t0e:_DateTime_ParseExact_m2584838527
y6a:__ZNK13ScreenManager12IsFullScreenEv
xPi:_ToggleGroup_UnregisterToggle_m2257695172
V7j:_rand
Jfk:_emscripten_glFramebufferRenderbuffer__wrapper
WNi:_Slider_OnRectTransformDimensionsChange_m1037701556
wrf:_Kernel_LeftShift_m411760189
Pyb:__ZN14SafeBinaryRead21TransferSTLStyleArrayINSt3__26vectorI17AnimationCurveTplIfE13stl_allocatorIS4_L18MemLabelIdentifier1ELi16EEEEEEvRT_17TransferMetaFlags
R9i:_PatternCompiler_EmitBalanceStart_m3500286111
Ofj:_AttributeHelperEngine_GetParentTypeDisallowingMultipleInclusion_m2340345796
zHj:_TubeProfile_OnEnable_m3158951360
u1b:__Z22PrepareOptimizedPlanesPK5PlaneiPKN4math7_float4E
Xgg:_ReadOnlyCollection_1_System_Collections_IList_Remove_m683597303_gshared
w1:__ZN11UnityEngine15CloudWebService17WebFileDownloaderINS0_20WebRequestRestClientENS0_23WebRequestRestHeaderMapEE10InitializeERKN4core12basic_stringIcNS5_20StringStorageDefaultIcEEEE
Ada:__ZN17UniqueIDGenerator15CreatePureIndexEv
gkc:__ZN14dense_hash_mapI12TriangleEdgei16TriangleEdgeHashNSt3__28equal_toIS0_EENS2_9allocatorINS2_4pairIKS0_iEEEEEixERS7_
UNe:_Char_CompareTo_m2800256112_AdjustorThunk
uw:__ZN11UnityEngine9Animation28GenericAnimationBindingCache15DidReloadDomainEv
Hqe:_ExecuteEvents_get_beginDragHandler_m2600959193
HFj:_projectileController_Awake_m2311560100
_Ee:_InputField_set_clipboard_m866739344
qKi:_Selectable_Navigate_m271724976
xhb:__ZNSt3__26vectorIN15ResourceManager10DependencyE13stl_allocatorIS2_L18MemLabelIdentifier52ELi16EEE6assignINS_11__wrap_iterIPS2_EEEENS_9enable_ifIXaasr21__is_forward_iteratorIT_EE5valuesr16is_constructibleIS2_NS_15iterator_traitsISC_E9referenceEEE5valueEvE4typeESC_SC_
NK:__ZN19StreamedBinaryWriteILb0EE8TransferIN7mecanim9animation23BlendDirectDataConstantEEEvRT_PKc17TransferMetaFlags
usd:__ZN15dense_hashtableINSt3__24pairIK10KeyWrapperIPK22Il2CppGenericParameterEP11Il2CppClassEES6_N6il2cpp5utils11PointerHashIS4_EEN14dense_hash_mapIS6_S9_SE_NS6_14EqualsComparerINS0_8equal_toIS5_EEEENS0_9allocatorISA_EEE9SelectKeyESJ_SL_E14squash_deletedEv
ZNc:__ZNK12b2MouseJoint17GetReactionTorqueEf
fzc:__Z14GUIClipTextureP9Texture2DPhiiii
Zwj:_Transform_SetParent_m3407656540
pu:__ZN14SafeBinaryRead21TransferSTLStyleArrayI13dynamic_arrayI11KeyframeTplI11QuaternionfELj4EEEEvRT_17TransferMetaFlags
_Uf:_List_1_System_Collections_IList_Remove_m433766976_gshared
gCj:_X509Chain_IsTrusted_m2220405473
TOa:__ZNK9Transform18TransformDirectionERK8Vector3f
vwi:_Enumerator_System_Collections_IEnumerator_get_Current_m25787819_gshared
ZKi:_ScrollRect_set_decelerationRate_m4093664043
Nkk:_emscripten_glClearStencil__wrapper
Iyd:__ZN15dense_hashtableINSt3__24pairIK10KeyWrapperIPK11Il2CppClassEPKcEES6_N6il2cpp5utils11PointerHashIS3_EEN14dense_hash_mapIS6_S9_SE_NS6_14EqualsComparerINS0_8equal_toIS5_EEEENS0_9allocatorISA_EEE9SelectKeyESJ_SL_E12resize_deltaEjj
G9j:__ZNK10__cxxabiv120__si_class_type_info27has_unambiguous_public_baseEPNS_19__dynamic_cast_infoEPvi
KLe:_Boolean_Equals_m3377005124_AdjustorThunk
Cqa:__Z30AddDefaultStreamsToMeshBuffersR9GfxDeviceR11MeshBuffersj17ShaderChannelMaskS3_
t5:__ZL16GetInterfaceImpl18UnityInterfaceGUID
ytd:__ZN6il2cpp2vmL17SetupFieldOffsetsENS0_15FieldLayoutKindEP11Il2CppClassjRKNSt3__26vectorIjNS4_9allocatorIjEEEE
qEi:_DefaultComparer_GetHashCode_m4254612232_gshared
g1d:__ZN6il2cpp6icalls8mscorlib6System15MonoCustomAttrs27GetCustomAttributesInternalEP12Il2CppObjectP20Il2CppReflectionTypeb
vbd:_UNITY_TT_Set_MM_Blend
W3:__GLOBAL__sub_I_runtime_math_random_0_cpp
uQj:_EqualityComparer_1__cctor_m1555483295_gshared
KPb:__ZN14PreloadManager35WaitForAllAsyncOperationsToCompleteEv
QP:__ZL31InitializeAudioScriptingClassesv
HUb:__Z14SortGUIByDepthP10GUIElementS0_
wdj:_Parser_IsECMAScript_m454898106
ctf:_BlockProcessor_Final_m3804499751
V5h:__Z64RuntimeInvoker_Void_t3431959231_OpCode_t3679360004_RuntimeObjectPFvvEPK10MethodInfoPvPS4_
zG:__ZN12_GLOBAL__N_120ProcessRootMotionMixER33AnimationPlayableEvaluationOutputR35AnimationPlayableEvaluationConstantR32AnimationPlayableEvaluationInputS1_f
mlj:_Input_GetAxisRaw_m745745776
DIb:__ZN18StreamedBinaryReadILb1EE21TransferSTLStyleArrayI13dynamic_arrayIN4math12int2_storageELj4EEEEvRT_17TransferMetaFlags
Cub:__ZNK20LocalFileSystemPosix21GetAvailableDiskSpaceEPKcRy
C4:__ZNSt3__26__treeIiNS_4lessIiEENS_9allocatorIiEEE7destroyEPNS_11__tree_nodeIiPvEE
MUg:_Encoding_GetHashCode_m3240870220
rja:__ZNK9GfxDevice14GetWorldMatrixEv
Ssb:__Z19scripting_array_new17ScriptingClassPtrjj
CU:__ZN11SoundHandle13CreateChannelEb
h3a:__ZN14SafeBinaryRead21TransferSTLStyleArrayI13dynamic_arrayI12LightmapDataLj4EEEEvRT_17TransferMetaFlags
fdj:_Group_GetAnchorInfo_m73871098
Unb:__ZNSt3__26vectorIN9ShaderLab20SerializedSubProgram16TextureParameterENS_9allocatorIS3_EEE6assignIPS3_EENS_9enable_ifIXaasr21__is_forward_iteratorIT_EE5valuesr16is_constructibleIS3_NS_15iterator_traitsISA_E9referenceEEE5valueEvE4typeESA_SA_
mxd:__ZN13Il2CppHashMapIN6il2cpp5utils13dynamic_arrayIPK10Il2CppTypeLj4EEEPFvvENS0_8metadata19Il2CppSignatureHashENS9_22Il2CppSignatureCompareENSt3__29allocatorINSC_4pairIK10KeyWrapperIS6_ES8_EEEEEC2EjRKSA_RKSB_
Qig:_ReadOnlyCollection_1_IndexOf_m3115695511_gshared
fMd:__ZN15dense_hashtableINSt3__24pairIK10KeyWrapperIPK22Il2CppGenericParameterEPK24MonoGenericParameterInfoEES6_N6il2cpp5utils11PointerHashIS4_EEN14dense_hash_mapIS6_SA_SF_NS6_14EqualsComparerINS0_8equal_toIS5_EEEENS0_9allocatorISB_EEE9SelectKeyESK_SM_E15set_deleted_keyERKSB_
hof:_Resources_GetBuiltinResource_TisRuntimeObject_m1424279915_gshared
V9b:__ZN6prcoreL11inner_clearILj2EEEvPhjjj
jNc:__ZN12b2WheelJoint24SolvePositionConstraintsERK12b2SolverData
Vg:_emscripten_exit_fullscreen
t3c:_sfnt_done_face
eZd:__ZN6il2cpp6icalls8mscorlib6System6String19InternalAllocateStrEi
fJc:__Z29Transfer_Blittable_ArrayFieldI8JSONRead11QuaternionfEvRT_R9ArrayInfoRK23StaticTransferFieldInfo
Mqc:__Z45Register_UnityEngine_Camera_get_targetDisplayv
wgc:__ZNK24RendererAnimationBinding15GenerateBindingERKN4core12basic_stringIcNS0_20StringStorageDefaultIcEEEEbRN11UnityEngine9Animation14GenericBindingE
BAf:_RegionInfo_get_CurrencyNativeName_m3180934631
rUe:_SortedList_Find_m2616928964
uTa:__Z15GetFlareManagerv
gIf:_MonoIO_GetFileSystemEntries_m2246809477
U5j:___toread
SNb:__ZNSt3__26vectorI10vector_mapIiiNS_4lessIiEE13stl_allocatorINS_4pairIiiEEL18MemLabelIdentifier38ELi16EEES4_IS9_LS7_38ELi16EEE26__swap_out_circular_bufferERNS_14__split_bufferIS9_RSA_EE
E5e:_Enum_ToObject_m2983613479
CAj:_X509CertificateEnumerator__ctor_m2179984528
hak:___cxa_is_pointer_type
$Ug:_Latin1Encoding_GetBytes_m3011610572
BG:__ZN7mecanim9animation16EvaluateAvatarDXEPKNS0_14AvatarConstantEPKNS0_11AvatarInputEPNS0_12AvatarMemoryEPNS0_15AvatarWorkspaceEPNS0_12AvatarOutputE
txa:__ZN4gles20DestroyRenderSurfaceEP7ApiGLESP17RenderSurfaceGLES
Fxc:__Z34Transform_CUSTOM_SetAsFirstSiblingP12Il2CppObject
Bhf:_Array_InternalArray__Insert_TisInt64_t2229785298_m1566669250_gshared
GVg:_StringBuilder_Append_m4173106667
ANg:_RemotingServices_RegisterInternalChannels_m1025587857
IEa:__ZN17PersistentManager40GlobalToLocalSerializedFileIndexInternalERK26SerializedObjectIdentifier
x_:__ZN11UnityEngine15CloudWebService17SessionEventQueue14ParseEventDataERKN4core12basic_stringIcNS2_20StringStorageDefaultIcEEEE
U9:__ZNK14dense_hash_mapIPKcPK4RTTIN11TypeManager23ConstCharPtrHashFunctorENS5_19ConstCharPtrEqualToE13stl_allocatorINSt3__24pairIKS1_S4_EEL18MemLabelIdentifier7ELi16EEE5beginEv
xIc:__Z35Transfer_Blittable_SingleValueFieldI8JSONRead12PropertyNameEvRT_R17GeneralMonoObjectRK23StaticTransferFieldInfo
Aoa:__ZN13TranslateGLES4InitERK12GraphicsCaps16GfxDeviceLevelGL
kzg:_ListDictionary_CopyTo_m2503168443
x9e:_Array_InternalArray__ICollection_Contains_TisUIVertex_t651853193_m2585590562_gshared
tOe:_Char_ToString_m2278025418
fkd:__Z32CustomEventData_CUSTOM_AddUInt32P12Il2CppObjectP12Il2CppStringj
X1h:__Z120RuntimeInvoker_Boolean_t1367519524_RuntimeObject_Int32_t497012075_RuntimeObject_DecimalU26_t1368943462_SByte_t1872536467PFvvEPK10MethodInfoPvPS4_
oec:__ZN13ProduceHelperI10TagManagerLb0EE7ProduceE18MemLabelIdentifier18ObjectCreationMode
Epe:_EventSystem_IsPointerOverGameObject_m1611177115
rKg:_MethodCall_InitDictionary_m2679862533
G2d:__ZN6il2cpp8metadataL7CompareEPK10Il2CppTypeS3_
jif:_Array_InternalArray__Insert_TisVector2_t1132184324_m3081893431_gshared
_Wd:__ZNSt3__218uninitialized_fillIPNS_4pairIK10KeyWrapperIP12Il2CppObjectEN6il2cpp2gc9CachedCCWEEESA_EEvT_SC_RKT0_
EV:__ZN16BaseVideoTexture17UploadTextureDataEv
roc:__ZL27GetComponentsImplementationILb0ELi0EEbR10GameObjectbRK17CompareParametersRK39GetComponentsImplementation_ReturnValue
b0e:_DateTime_FromBinary_m4119923044
yMb:__ZN9Scripting36IsSystemCollectionsGenericDictionaryE17ScriptingClassPtr
X9h:__Z200RuntimeInvoker_Boolean_t1367519524_RuntimeObject_RuntimeObject_RuntimeObject_Int32_t497012075_DateTimeU26_t3762400006_SByte_t1872536467_BooleanU26_t1309790844_SByte_t1872536467_ExceptionU26_t826659714PFvvEPK10MethodInfoPvPS4_
$aa:__ZL16ReadTypeTreeImplILb0EEbR8TypeTreeRK16TypeTreeIteratorRPKhS6_i
UK:__ZN25RuntimeAnimatorControllerD2Ev
BC:__ZN27AnimationLayerMixerPlayable16SetLayerMaskCopyEjRKN7mecanim6bitsetILj70EEEPKNS0_8skeleton12SkeletonMaskE
Xqj:_Random_RandomRangeInt_m1181061814
QSg:_DES_IsSemiWeakKey_m2750822329
TWa:__ZNK22BuiltinResourceManager21GetResourceInstanceIDEPKN5Unity4TypeERKN4core12basic_stringIcNS4_20StringStorageDefaultIcEEEE
Jsc:__Z42Register_UnityEngine_RectOffset_set_bottomv
MWb:__ZN28LightProbeProxyVolumeContext8CopyFromERKS_
vNa:__ZN23TransformChangeDispatch32QueueTransformChangeIfHasChangedER18TransformHierarchy
zdj:_PositionAssertion_GetWidth_m3883669167
uxa:__ZN7ApiGLES18DeleteRenderbufferERj
_va:__ZL23ProgramUniformMatrix4fvPK7ApiGLESjiihPKv
Gxa:__ZN7ApiGLES13CreateTextureEjj14GraphicsFormatiiiii
SVh:_OpCode_GetHashCode_m398722635
Cnb:__ZN9ShaderLab20SerializedSubProgram15MatrixParameter8TransferI14SafeBinaryReadEEvRT_
u0j:_Canvas_ForceUpdateCanvases_m158124506
toc:__ZL27GetComponentsImplementationILb0ELi1EEbR10GameObjectbRK17CompareParametersRK39GetComponentsImplementation_ReturnValue
OAi:_Dictionary_2_ToTKey_m1405050908_gshared
qNg:_RemotingConfiguration_RegisterChannelTemplate_m2141838337
Cad:_Round_Down_To_Grid
ETg:_EncoderFallbackException__ctor_m1374559030
Gna:__ZN13RenderTexture7ReleaseEv
EGc:__Z18Transfer_BlittableI8JSONReadLb1EN4math12int3_storageEEvRK29SerializationCommandArgumentsR31RuntimeSerializationCommandInfo
bbb:__ZN10MeshFilter23VirtualRedirectTransferER14SafeBinaryRead
lbb:__ZN12MeshRenderer17MainThreadCleanupEv
Dwh:__ZL70RuntimePlatform_t1265094592_CustomAttributesCacheGenerator_FlashPlayerP21CustomAttributesCache
RAa:__ZN22CreateGpuProgramOutput12CreateParamsEv
oCf:_Int16_System_IConvertible_ToInt64_m2787785034
_Q:__ZN10ObjectPoolIN4FMOD7ChannelENS0_8ChannelIEE7GetFreeEi
yJh:__ZL60RawImage_t522105222_CustomAttributesCacheGenerator_m_TextureP21CustomAttributesCache
uic:__Z29AddCanvasIntermediateRendererPN2UI6CanvasEP15SharedGfxBufferP17VertexDeclarationjS3_RK10Matrix4x4ftRK4AABB4PPtrI8MaterialEi17ShadowCastingModebP6Camera
qoa:__ZNK14GfxContextGLES13GetDefaultFBOEv
l$g:_Type_get_IsInterface_m3708976732
o3f:_List_1_System_Collections_IList_Contains_m4197298734_gshared
wrj:_Vector2__ctor_m3879286827
ukc:__Z13GetImagePixelI10ColorRGBAfET_PKhii13TextureFormat15TextureWrapModeS5_ii
d$d:__GLOBAL__sub_I_Thread_cpp_7595
HPd:__ZN6il2cpp2vm6Thread49CheckCurrentThreadForInterruptAndThrowIfNecessaryEv
kHe:_LayoutGroup_OnRectTransformDimensionsChange_m2871416297
DQa:__ZNSt3__23mapIN9ShaderLab16FastPropertyNameEN18UnityPropertySheet11UnityTexEnvENS_4lessIS2_EENS_9allocatorINS_4pairIKS2_S4_EEEEEixERS9_
Kwa:__ZNK13TranslateGLES25GetTextureTargetDimensionEj
uUe:_SortedList_EnsureCapacity_m155671922
UIe:_Array_GetValue_m2916541805
qwc:__Z47Texture2D_CUSTOM_INTERNAL_CALL_GetPixelBilinearP12Il2CppObjectffR10ColorRGBAf
U6:__ZN9Scripting12LogExceptionE21ScriptingExceptionPtriPKcb
CKj:_UnityEvent_1_FindMethod_Impl_m1650874342_gshared
Wi:_emscripten_glVertexAttrib4f
iwj:_TouchScreenKeyboard_Open_m3211072426
Ulg:_Kernel_DwordDivMod_m86252235
Aqb:__ZNSt3__26vectorIN20GpuProgramParameters14ConstantBufferENS_9allocatorIS2_EEE8__appendEj
Cbj:_Regex_default_startat_m1620860819
amf:_Dictionary_2_Do_ICollectionCopyTo_TisKeyValuePair_2_t1033232373_m897339555_gshared
iwg:_RSASslSignatureFormatter_SetKey_m618438712
CB:__ZN7mecanim12statemachine24CreateStateMachineMemoryEPKNS0_20StateMachineConstantERNS_6memory9AllocatorE
Ula:__ZN9GfxDevice18SetGlobalDepthBiasEff
lBd:__ZN6il2cpp6icalls8mscorlib6System8MonoType12get_AssemblyEP20Il2CppReflectionType
ij:_emscripten_glGetPointerv
Dnj:_Mesh_SetArrayForChannelImpl_m2829121691
pG:__ZN8Animator22ApplyBuiltinRootMotionEv
qPb:__Z26ApplyMaterialPassWithCacheRK18SharedMaterialDataR17ShaderPassContextP6ShaderPN9ShaderLab4PassEibPKNS6_10GrabPassesEPNS6_11SubProgramsEPK22DeviceRenderStateBlock
jti:_Enumerator_System_Collections_IDictionaryEnumerator_get_Key_m2360165096_gshared
ETd:__ZN30dense_hashtable_const_iteratorINSt3__24pairIK10KeyWrapperIP14Il2CppIUnknownEjEES5_N6il2cpp5utils11PointerHashIS3_EEN14dense_hash_mapIS5_jSB_NS5_14EqualsComparerINS0_8equal_toIS4_EEEENS0_9allocatorIS7_EEE9SelectKeyESG_SI_EppEv
cNf:_UnexceptionalStreamReader__cctor_m2507071519
ble:_String__ctor_m2725203609
l5a:__ZN8Renderer23VirtualRedirectTransferER14SafeBinaryRead
t_h:_MonoProperty_GetRequiredCustomModifiers_m1391101998
YDf:_NumberFormatter_AppendExponent_m2576676326
qVa:__Z27ConvertSubMeshesToTrianglesR13dynamic_arrayI7SubMeshLj4EERS_ItLj2EE
pAc:__ZN5IMGUI14GUIWindowStateD2Ev
gtj:_RectTransform_GetLocalCorners_m2838733510
mGj:_SGFEBullet_Update_m3458682182
wP:__ZN12AudioManager5ResetEv
$F:__ZN7mecanim5human14RetargetToTDoFEPKNS0_5HumanEPNS0_9HumanPoseEPNS_8skeleton13SkeletonPoseTIN4math4trsXEEESB_
_Oi:_Text_get_pixelsPerUnit_m4257847130
s_d:__ZN6il2cpp6icalls8mscorlib6System11Environment20GetWindowsFolderPathEi
qA:__ZN7mecanim5human18HumanPoseBlendNodeERNS0_9HumanPoseEPS1_f
G1c:_UNITY_FT_RoundFix
Jqb:__ZN9ShaderLab20SerializedSubProgram15AddTextureParamEPKcii16TextureDimension
xUe:_SortedList_Add_m4069155176
qvd:__ZN15dense_hashtableINSt3__24pairIK10KeyWrapperIPKcEP11Il2CppClassEES5_N6il2cpp5utils11StringUtils12StringHasherIS4_EEN14dense_hash_mapIS5_S8_SE_NS5_14EqualsComparerINSB_13VmStringUtils21CaseSensitiveComparerEEENS0_9allocatorIS9_EEE9SelectKeyESJ_SL_E14squash_deletedEv
bYi:_InternalEnumerator_1_get_Current_m2256062750_gshared
$t:__Z14resize_trimmedINSt3__26vectorI24CompressedAnimationCurve13stl_allocatorIS2_L18MemLabelIdentifier26ELi16EEEEEvRT_j
K9c:_cff_parse_cid_ros
nbb:__ZNK12MeshRenderer22GetTypeVirtualInternalEv
bS:__ZN4FMOD6System17setSoftwareFormatEi17FMOD_SOUND_FORMATii18FMOD_DSP_RESAMPLER
IZa:__ZN14SafeBinaryRead19TransferSTLStyleMapINSt3__23mapIN4core12basic_stringIcNS3_20StringStorageDefaultIcEEEES7_NS1_4lessIS7_EE13stl_allocatorINS1_4pairIKS7_S7_EEL18MemLabelIdentifier1ELi16EEEEEEvRT_17TransferMetaFlags
ofd:__ZN2UI6Canvas27UpdateEventIndexesRecursiveERi
Zy:__ZN7mecanim9animation18EvaluateRootMotionERKNS0_18ClipMuscleConstantERKNS0_15ClipMuscleInputEPKfS8_RNS0_12MotionOutputEb
D_:__ZN11UnityEngine15CloudWebService16SessionContainer21PrepareDataErrorEventERN4core12basic_stringIcNS2_20StringStorageDefaultIcEEEE
g2c:_UNITY_FT_Outline_New
vYg:_Thread_Thread_init_m4152333401
_Oe:_ArrayList_IndexOf_m3763466385
rFb:__Z19TransferField_ArrayI19StreamedBinaryWriteILb0EE27Converter_SimpleNativeClassI8GUIStyleEEvRK23StaticTransferFieldInfoR31RuntimeSerializationCommandInfoRT0_
elf:_Array_Sort_TisVector4_t3374053054_m2089638356_gshared
Vhk:_emscripten_glCopyTexSubImage2D__wrapper
Bnj:_Mesh__ctor_m959702815
Cog:_EncryptedPrivateKeyInfo_get_EncryptedData_m1228837790
sGc:__Z35Transfer_Blittable_FixedBufferFieldI8JSONReadiEvRK29SerializationCommandArgumentsR31RuntimeSerializationCommandInfo
qAd:__ZNSt3__213__vector_baseIN6il2cpp2os19SocketHandleWrapperENS_9allocatorIS3_EEED2Ev
T3e:_StackTrace_ToString_m282242302
kc:invoke_viiffi
V5b:__ZN13sorted_vectorINSt3__24pairIN4core12basic_stringIcNS2_20StringStorageDefaultIcEEEEPK17MessageIdentifierEEN10vector_mapIS6_S9_NS0_4lessIS6_EENS0_9allocatorISA_EEE13value_compareESF_E10insert_oneERKSA_
dQg:_SerializationCallbacks__cctor_m3366914193
kuj:_SceneManager_INTERNAL_CALL_GetActiveScene_m2693557015
uob:__Z14resize_trimmedINSt3__26vectorIN9ShaderLab18SerializedPropertyENS0_9allocatorIS3_EEEEEvRT_j
gRj:_EqualityComparer_1__cctor_m1993200911_gshared
qyd:__ZN6il2cpp2vm13MetadataCache38GetMethodInfoFromMethodDefinitionIndexEi
apg:_RSAManaged_Dispose_m1930555866
r7a:__ZN10VertexData8TransferI24GenerateTypeTreeTransferEEvRT_
bai:__Z58RuntimeInvoker_Int32_t497012075_DateTimeOffset_t4081060068PFvvEPK10MethodInfoPvPS4_
fTg:_DecoderFallbackException__ctor_m1053964671
bAd:__ZN6il2cpp2vm13MetadataCache27GetIndexForGenericParameterEPK22Il2CppGenericParameter
G$d:__ZN13Il2CppHashMapIPK19Il2CppGenericMethodP10MethodInfoN6il2cpp8metadata23Il2CppGenericMethodHashENS6_26Il2CppGenericMethodCompareENSt3__29allocatorINS9_4pairIK10KeyWrapperIS2_ES4_EEEEEC2EjRKS7_RKS8_
R0b:__ZL10CullLightsRK22SceneCullingParametersR11CullResults
xB:__ZN7mecanim12statemachine20GetBlendTreeConstantERKNS0_13StateConstantEi
qYi:_InternalEnumerator_1_get_Current_m1178991466_AdjustorThunk
$8b:__Z40GetTemporaryCachePathApplicationSpecificv
$ja:__ZN9GfxDevice16EndAsyncJobFrameEv
Smf:_Array_InternalArray__get_Item_TisClientCertificateType_t1274654507_m3881340950_gshared
w3c:_UNITY_tt_face_load_hhea
el:___syscall3
hl:___syscall6
jl:___syscall4
xvb:__ZNSt3__26__treeINS_12__value_typeIN4core12basic_stringIcNS2_20StringStorageDefaultIcEEEEPN16MemoryFileSystem4NodeEEENS_19__map_value_compareIS6_SA_NS_4lessIS6_EELb1EEE13stl_allocatorISA_L18MemLabelIdentifier55ELi16EEE7destroyEPNS_11__tree_nodeISA_PvEE
yLe:_Boolean_System_IConvertible_ToUInt16_m3119632619
z5i:_ChannelServices_RegisterChannel_m3052772623
nXd:__ZN6il2cpp2vm3RCW14QueryInterfaceILb1EEEP14Il2CppIUnknownP15Il2CppComObjectRK10Il2CppGuid
aUc:__ZNSt3__26__sortIR24RayHitsByDepthComparitorP12RaycastHit2DEEvT0_S5_T_
LJc:__ZN27PerformanceReportingManager23VirtualRedirectTransferER14SafeBinaryRead
Zng:_MD4Managed_Encode_m2113634689
mka:__ZN9GfxDevice27UpdateComputeSkinPoseBufferE15ComputeBufferIDP12SkinMeshInfo
Gwj:_Transform_set_localPosition_m509581099
zl:_emscripten_glShaderBinary
uub:__ZNK20LocalFileSystemPosix6ExistsERK13FileEntryData
a1g:_UInt16_System_IConvertible_ToUInt32_m2914055688_AdjustorThunk
Wef:_Array_ForEach_TisRuntimeObject_m2271368127_gshared
xy:__ZN7mecanim5human19MaskHasLeftFootGoalERKNS_6bitsetILj70EEE
Kid:__Z58Register_UnityEngine_Canvas_GetETC1SupportedCanvasMaterialv
QHb:__ZN17AnimationCurveTplIfE8TransferI18StreamedBinaryReadILb1EEEEvRT_
Rmd:__ZN18UnityConnectClientD2Ev
oDd:_il2cpp_set_data_dir
Wag:_Collection_1_CheckWritable_m433892213_gshared
pAh:__ZL74SharedBetweenAnimatorsAttribute_t1936413652_CustomAttributesCacheGeneratorP21CustomAttributesCache
Zoe:_BaseInputModule_GetBaseEventData_m3213505285
OHf:_Path_WindowsDriveAdjustment_m988730709
Oge:_TripleDES__ctor_m1621527519
Wnf:_Array_InternalArray__get_Item_TisWebCamDevice_t2290386459_m1052499955_gshared
MY:__Z49WebCamTexture_CUSTOM_Internal_CreateWebCamTextureP12Il2CppObjectP12Il2CppStringiii
Vld:__ZN11UnityEngine15PlatformWrapper30GetGraphicsDriverLibraryStringEv
bCf:_Int16_System_IConvertible_ToByte_m860750059_AdjustorThunk
Xhf:_Array_InternalArray__Insert_TisUriScheme_t3118839229_m576846172_gshared
xme:_String_ReplaceUnchecked_m3308754580
lJb:__Z18Transfer_BlittableI18StreamedBinaryReadILb0EELb0E4AABBEvRK29SerializationCommandArgumentsR31RuntimeSerializationCommandInfo
A0j:_CanvasGroup_set_alpha_m585669715
gL:__ZN16MecanimAnimation24DeleteAnimatedPropertiesERP26IAnimatedPropertyEvaluator
p$j:_Nullable_1_Equals_m2135447199_gshared
BTg:_EncoderExceptionFallbackBuffer_Fallback_m2854835250
m9e:_Array_InternalArray__ICollection_Contains_TisColor32_t1926316813_m4211806247_gshared
_Sb:__Z14DrawGUITextureRK5RectTIfEP7Texture11ColorRGBA32P8Materiali
x1g:_UInt16_ToString_m345820358_AdjustorThunk
K2e:_Decimal_CompareTo_m2607890428
iAe:_Graphic_OnRectTransformDimensionsChange_m4105488076
cF:__ZN9BlobWrite8TransferI22OffsetPtrArrayTransferIKN4math7_float4EEEEvRT_PKc17TransferMetaFlags
ZDj:_RecycleGameObject_Shutdown_m1100256866
aOi:_Slider_FindSelectableOnLeft_m3536401639
IQc:__ZNK11b2EdgeShape7RayCastEP15b2RayCastOutputRK14b2RayCastInputRK11b2Transformi
bGc:__ZN9JSONWrite8TransferI4AABBEEvRT_PKc17TransferMetaFlags
dKa:__ZN25MultiBlocksMemoryFileData9SetLengthEy
dlj:_Graphics__cctor_m1461784480
Q6e:_CompareInfo__ctor_m1891616638
m7e:_CompareInfo_GetSortKey_m3025964278
ogj:_Bounds_get_min_m3788234586
FKc:__ZN10Collider2D13AwakeFromLoadE17AwakeFromLoadMode
x1a:__ZNK9Texture2D20GetRuntimeMemorySizeEv
lCc:__ZN5Unity9rapidjson13GenericReaderINS0_4UTF8IcEES3_13JSONAllocatorE9ParseTrueILj0ENS0_19GenericStringStreamIS3_EENS0_15GenericDocumentIS3_S4_S4_EEEEvRT0_RT1_
U_d:__ZN6il2cpp2gc16GarbageCollector16InvokeFinalizersEv
b0c:_UNITY_FT_Outline_Transform
hwc:__Z60Register_UnityEngine_Sprites_DataUtility_Internal_GetMinSizev
ICe:_Image_set_alphaHitTestMinimumThreshold_m766715466
XSg:_DESTransform_SetKey_m1803871480
GYb:__Z30AddDefaultStreamsToMeshBuffersR9GfxDeviceR11MeshBuffersRK16DrawBuffersRange17ShaderChannelMaskS6_
Oae:_DSACryptoServiceProvider__ctor_m1755971104
Zwa:__ZN7ApiGLES17DeleteFramebufferERN2gl6HandleILNS0_10ObjectTypeE9EEES3_
Uza:__ZN15UniformTFMethod13MapBoneBufferEj
bnj:_Mathf_Round_m3338747541
fed:__ZN2UI14CanvasRendererD2Ev
W0g:_UInt16_System_IConvertible_ToSingle_m1796631295
kOb:__Z9SetupArgviPPKc
NCf:_Int16_Parse_m2042826424
pVe:_GC_SuppressFinalize_m3287359872
Pik:_glTexParameteri__wrapper
YGe:_LayoutGroup_set_childAlignment_m2126447929
Fba:__ZN12FileAccessor4OpenER15FileSystemEntry14FilePermission16FileAutoBehavior
VZd:__ZN6il2cpp2os9Directory6CreateERKNSt3__212basic_stringIcNS2_11char_traitsIcEENS2_9allocatorIcEEEEPi
x0f:_List_1_System_Collections_IList_Contains_m1982673882_gshared
rZc:__ZL12PhysxJobFuncPN5physx10PxBaseTaskE
C4a:__ZN23TransformChangeDispatch32QueueTransformChangeIfHasChangedERK15TransformAccess
Kaa:__ZN15dense_hashtableINSt3__24pairIKiP4RTTIEEiN11TypeManager27HashFunctorPersistentTypeIDEN14dense_hash_mapIiS4_S7_NS0_8equal_toIiEE13stl_allocatorIS5_L18MemLabelIdentifier7ELi16EEE9SelectKeyESA_SD_E12maybe_shrinkEv
k4e:_Double_System_IConvertible_ToInt16_m4170711321
b$a:__ZNSt3__26vectorINS_4pairIN9ShaderLab16FastPropertyNameEN18UnityPropertySheet11UnityTexEnvEEENS_9allocatorIS6_EEE21__push_back_slow_pathIKS6_EEvRT_
Pce:_MD5CryptoServiceProvider_ProcessFinalBlock_m3704366511
MZj:_TextGenerator_Dispose_cpp_m2265670141
v0e:_DateTime_Subtract_m303192818
zch:__ZL53MethodBase_t1115899933_CustomAttributesCacheGeneratorP21CustomAttributesCache
B:tempValue
w7:__Z29scripting_class_from_fullnamePKcS0_S0_
f4h:__Z175RuntimeInvoker_Void_t3431959231_SByte_t1872536467_SByte_t1872536467_SByte_t1872536467_SByte_t1872536467_SByte_t1872536467_SByte_t1872536467_SByte_t1872536467_SByte_t1872536467PFvvEPK10MethodInfoPvPS4_
YB:__ZN26AnimatorControllerPlayable18DeallocateBindingsEv
SAg:_ServicePointManager_FindServicePoint_m114396290
TU:__ZN11AudioSource19CreateOpenALRolloffEfff
j4c:_UNITY_FT_Stream_ReadAt
Bxd:__ZN15dense_hashtableINSt3__24pairIK10KeyWrapperIN6il2cpp5utils13dynamic_arrayIPK10Il2CppTypeLj4EEEEPFvvEEESA_NS3_8metadata19Il2CppSignatureHashEN14dense_hash_mapISA_SD_SG_NSA_14EqualsComparerINSF_22Il2CppSignatureCompareEEENS0_9allocatorISE_EEE9SelectKeyESK_SM_E9set_valueEPSE_RKSE_
cCj:_X509Chain_FindCertificateParent_m2639926461
vng:_ARC4Managed_TransformBlock_m205430396
s8h:__Z88RuntimeInvoker_Boolean_t1367519524_Int64_t2229785298_Int64_t2229785298_SByte_t1872536467PFvvEPK10MethodInfoPvPS4_
eW:__ZN11AudioModule22CreateAudioClipFromWWWEP10IWWWStreamPKcbbi
ogd:__Z13RegisterClassIN2UI11CanvasGroupEEvv
X9b:__ZN6prcoreL11inner_clearILj4EEEvPhjjj
Bf:_emscripten_glClear
UQi:_ArrayReadOnlyList_1_ReadOnlyError_m2839001628_gshared
RPf:_MonoType_GetCustomAttributes_m1941480010
c8f:_Collection_1_CheckWritable_m833141215_gshared
Wyg:_HybridDictionary_Add_m3123663509
j5d:_GC_initialize_offsets
Tea:__ZNK8Playable6HandleEv
Y_h:_PropertyInfo_GetOptionalCustomModifiers_m3381810221
H9:__ZN14MessageHandler28MessageIDToMessageIdentifierEi
ARe:_CaseInsensitiveHashCodeProvider_GetHashCode_m3860329770
N7a:__ZNK11SpriteAtlas20GetRuntimeRenderDataEPK6Sprite
$$e:_DateTime_Equals_m2226220803
M6d:__ZN6il2cpp2vm10WaitHandle19NewManualResetEventEb
rFf:_Int64_System_IConvertible_ToChar_m2956465473_AdjustorThunk
j0c:__ZN20TextRenderingPrivate15DynamicFontData36GetFaceForCharacterIfAvailableInFontERKNS_7FontRefERK13dynamic_arrayI4PPtrIN13TextRendering4FontEELj4EEj
Uz:__ZN7mecanim14ValueArrayCopyILb0EEEvPKNS_10ValueArrayEPS1_
RM:__Z51Register_UnityEngine_Animator_get_hasBoundPlayablesv
Pd:emscriptenWebGLGetUniform
Ro:FUNCTION_TABLE_iiiiiiiiiii
qxj:_SpriteAtlasManager__cctor_m3070716600
p5i:_ChannelData_get_CustomProperties_m4231411825
w2b:__ZL10CleanUpJobP20CullingGroupsJobData
Rye:_Dropdown_AlphaFadeList_m2154194071
SAe:_Graphic_Raycast_m149365501
RSb:__ZN13RenderManager15BatchModeUpdateEv
Clg:_BigInteger_ToString_m4019881030
V6a:__ZN14SafeBinaryRead21TransferSTLStyleArrayI13dynamic_arrayI8Vector2fLj4EEEEvRT_17TransferMetaFlags
zDe:_InputField_set_text_m3918922878
HEa:__ZN17PersistentManager51InstanceIDToLocalSerializedObjectIdentifierInternalEiR31LocalSerializedObjectIdentifier
xPc:__ZN10ClipperLib7Clipper15SetWindingCountERNS_5TEdgeE
djg:_ReadOnlyCollection_1_System_Collections_IList_Clear_m2954284345_gshared
e9c:_UNITY_FT_Create_Class_cff_services
dpd:__ZN11UnityEngine15PlatformWrapper20SetPlayerPrefsStringERKN4core12basic_stringIcNS1_20StringStorageDefaultIcEEEES7_
sd:_glVertexAttribIPointer
Qkc:__ZNK6Sprite10GetPaddingE20SpriteRenderDataMode
G5i:_CrossAppDomainChannel_RegisterCrossAppDomainChannel_m2987296057
FEg:_X509ExtensionEnumerator_get_Current_m2974951824
Qre:_PointerEventData_IsPointerMoving_m645211454
BWb:__ZN14qsort_internal5QSortIP15RODataDepthPassi17ROSorterDepthPassEEvT_S4_T0_T1_
i4c:_UNITY_ft_glyphslot_alloc_bitmap
jOj:_GUILayoutEntry_ApplyOptions_m4094710193
Jkj:_GameObject_GetComponentsInternal_m3227930076
H2:__ZN20DynamicHeapAllocatorI17LowLevelAllocatorED0Ev
xrg:_TlsClientCertificate__ctor_m217233194
mLj:_IndexedSet_1_Contains_m3697507696_gshared
F5c:_ft_raster1_render
aii:__Z78RuntimeInvoker_Boolean_t1367519524_ColorBlock_t445741327_ColorBlock_t445741327PFvvEPK10MethodInfoPvPS4_
brg:_TlsCipherSuite__ctor_m2165997425
Eyc:__Z47Register_UnityEngine_Mesh_RecalculateBoundsImplv
cQe:_FixedSizeArrayListWrapper_AddRange_m736776
uaf:_Array_InternalArray__ICollection_Remove_TisRaycastResult_t3692659608_m152149861_gshared
Ksg:_Context_get_ProtocolNegotiated_m2101812384
cLh:__ZL76CanvasScaler_t3617245861_CustomAttributesCacheGenerator_m_MatchWidthOrHeightP21CustomAttributesCache
qHj:_PostProcessingProfile__cctor_m1118510201
yfe:_SHA256Managed_HashCore_m734679641
Mxa:__ZN18GfxFramebufferGLES13ReadbackImageER14ImageReferenceiiiiii
Crg:_TlsStream_ReadByte_m3877854367
PCc:__ZN5Unity9rapidjson6WriterI16TempBufferWriterNS0_4UTF8IcEES4_13JSONAllocatorE11WriteStringEPKcj
i1h:__Z83RuntimeInvoker_Int32_t497012075_Int16_t1836794551_Int32_t497012075_Int32_t497012075PFvvEPK10MethodInfoPvPS4_
XUg:_Encoding_GetBytes_m2693580081
mta:__ZN6prcoreL12RemapGenericI17TexFormatARGB888815TexFormatRGB565EEvPKNS_9InnerInfoE
_He:_Array_System_Collections_IList_Add_m1507697822
f9:__ZN13MonoBehaviour22GetScriptFullClassNameEv
GAj:_PKCS12__cctor_m1588343876
hMb:__ZN13MonoBehaviour9CallAwakeEv
lXa:__ZN20SphericalHarmonicsL211AddWeightedERKS_f
LJf:_FileStream_Flush_m611684485
FWb:__ZN9DepthPassD2Ev
wBb:__Z19TransferField_ArrayI17RemapPPtrTransfer27Converter_SimpleNativeClassI8GUIStyleEEvRK23StaticTransferFieldInfoR31RuntimeSerializationCommandInfoRT0_
Qhi:__Z82RuntimeInvoker_RuntimeObject_Single_t209704323_Single_t209704323_Single_t209704323PFvvEPK10MethodInfoPvPS4_
gZh:_MonoField_CheckGeneric_m2741551580
vDc:__ZN9JSONWrite8TransferI10ColorRGBAfEEvRT_PKc17TransferMetaFlags
B9:__Z25scripting_method_get_name18ScriptingMethodPtr
BUf:_Enumerator_VerifyState_m4123610882_AdjustorThunk
Pzb:__Z19TransferField_ArrayI14SafeBinaryRead16Converter_StringEvRK23StaticTransferFieldInfoR31RuntimeSerializationCommandInfoRT0_
fug:_TlsClientKeyExchange_ProcessCommon_m1602508160
j8j:_rename
tvi:_Transform_1_BeginInvoke_m61258380_gshared
Lwg:_SslClientStream_Dispose_m2086393210
l5d:_GC_exit_check
EMi:_Selectable_set_animationTriggers_m4197053968
Zs:__ZN7mecanim9animation9DenseClip8TransferI14SafeBinaryReadEEvRT_
rre:_PointerEventData_set_button_m736264031
a2i:_Comparer_1__cctor_m3786931048_gshared
SCi:_DefaultComparer_Equals_m4058544133_gshared
Q7i:_SynchronizationAttribute__ctor_m584333044
FAe:_Graphic_UpdateMaterial_m684920530
i6b:__ZNSt3__26vectorINS_4pairIN4core12basic_stringIcNS2_20StringStorageDefaultIcEEEES6_EE13stl_allocatorIS7_L18MemLabelIdentifier38ELi16EEE6insertENS_11__wrap_iterIPKS7_EERSD_
VE:__ZN9BlobWrite8TransferI22OffsetPtrArrayTransferI9OffsetPtrIN7mecanim12statemachine18StateMachineMemoryEEEEEvRT_PKc17TransferMetaFlags
s2c:_UNITY_ft_smooth_renderer_class_pic_free
psi:_Enumerator_get_CurrentValue_m4164279974_gshared
rf:_emscripten_glStencilOpSeparate
QEe:_InputField_OnDisable_m3363632754
Cji:__Z98RuntimeInvoker_Void_t3431959231_RuntimeObject_Int32_t497012075_Single_t209704323_Single_t209704323PFvvEPK10MethodInfoPvPS4_
y0d:__ZN6il2cpp2vm6String8NewUtf16EPKDsi
sZd:__ZN6il2cpp2os10ThreadImpl12QueueUserAPCEPFvPvES2_
Wai:__Z52RuntimeInvoker_Int32_t497012075_TimeSpan_t1710996894PFvvEPK10MethodInfoPvPS4_
Hmd:__ZN22BaseUnityConnectClient10QueueEventERN11UnityEngine15CloudWebService17CloudServiceEventEPKcjb
fef:_Array_InternalArray__IndexOf_TisMonoResource_t375095718_m3107315070_gshared
H8b:__ZN13WebCamTextureD0Ev
W$f:_List_1_Find_m421032784_gshared
I1c:_UNITY_FT_Hypot
aec:__ZN8RendererC2E12RendererType18MemLabelIdentifier18ObjectCreationMode
M3g:_ValueType_ToString_m403811104
SDd:_il2cpp_class_is_abstract
Mre:_PointerEventData_get_scrollDelta_m2820715554
KLd:__ZN15dense_hashtableINSt3__24pairIK10KeyWrapperIPK14Il2CppAssemblyEPK22Il2CppMonoAssemblyNameEES6_N6il2cpp5utils11PointerHashIS4_EEN14dense_hash_mapIS6_SA_SF_NS6_14EqualsComparerINS0_8equal_toIS5_EEEENS0_9allocatorISB_EEE9SelectKeyESK_SM_E14squash_deletedEv
U$e:_DateTime_AddSeconds_m83627321
tR:__Z14FMOD_FILE_SeekPvjS_
lkd:__Z56Register_UnityEngine_Analytics_CustomEventData_AddStringv
bIe:_Array_GetLowerBound_m3303300337
r8b:__ZN10systeminfo18GetOperatingSystemEv
Tf:emscriptenWebGLGet
Uba:__Z19CanReplaceComponentRN5Unity9ComponentEPKNS_4TypeEPN4core12basic_stringIcNS5_20StringStorageDefaultIcEEEE
Afc:__ZN12CubemapArray11InitTextureEiii13TextureFormatb
anc:__Z17GetSceneBuildInfoRKN4core12basic_stringIcNS_20StringStorageDefaultIcEEEEiR14SceneBuildInfo
ZGe:_LayoutGroup_get_minWidth_m2675868884
xeg:_ReadOnlyCollection_1_System_Collections_Generic_ICollectionU3CTU3E_Clear_m1025840822_gshared
CF:__ZN7mecanim5human13HumanFixTwistEPKNS0_5HumanEPNS_8skeleton13SkeletonPoseTIN4math4trsXEEES9_iiRKf
qZb:__ZL24AssignProjectorQueuesJobP30AssignProjectorQueuesJobHeader
Hmj:_Material_SetInt_m3488465746
cQh:_Default_check_type_m3152369576
FWd:__ZN14dense_hash_mapI10KeyWrapperIP12Il2CppObjectEN6il2cpp2gc9CachedCCWENS4_5utils11PointerHashIS1_EENS3_14EqualsComparerINSt3__28equal_toIS2_EEEENSB_9allocatorINSB_4pairIKS3_S6_EEEEEC2EjRKS9_RKSE_
Hxd:__ZN15dense_hashtableINSt3__24pairIK10KeyWrapperIN6il2cpp5utils13dynamic_arrayIPK10Il2CppTypeLj4EEEEPFvvEEESA_NS3_8metadata19Il2CppSignatureHashEN14dense_hash_mapISA_SD_SG_NSA_14EqualsComparerINSF_22Il2CppSignatureCompareEEENS0_9allocatorISE_EEE9SelectKeyESK_SM_E4swapERSP_
Gqb:__ZN9ShaderLab20SerializedSubProgram14SetConstBufferEPKci
lFd:__ZN6il2cpp2os4File5CloseEPNS0_10FileHandleEPi
hxd:__ZNSt3__27__sort5IRN6il2cpp5utils11collections13ArrayValueMapIPK10Il2CppType17Il2CppInteropData26InteropDataToTypeConverterNS1_8metadata14Il2CppTypeLessENSA_26Il2CppTypeEqualityComparerEE12SortComparerEPS8_EEjT0_SH_SH_SH_SH_T_
A7c:_cf2_getStdVW
j3:__Z40DebugStringToFilePostprocessedStacktraceRK21DebugStringToFileData
Jmj:_Material_SetVector_m3437397250
hIc:__Z29Transfer_Blittable_ArrayFieldI8JSONReadjEvRT_R9ArrayInfoRK23StaticTransferFieldInfo
KDe:_InputField_DetermineCharacterLine_m292593140
r5d:_GC_check_finalizer_nested
Tug:_TlsServerSettings_set_RsaParameters_m3117760224
zg:__setLetterbox
Ole:_String_TrimStart_m585417062
y2e:_Decimal_decimal2Int64_m2401287939
iIh:__ZL59GraphicRaycaster_t1203001888_CustomAttributesCacheGeneratorP21CustomAttributesCache
grg:_CipherSuiteFactory_GetTls1SupportedCiphers_m1103246557
Z9a:__ZNSt3__26vectorI17BlendShapeChannelNS_9allocatorIS1_EEE6assignINS_11__wrap_iterIPS1_EEEENS_9enable_ifIXaasr21__is_forward_iteratorIT_EE5valuesr16is_constructibleIS1_NS_15iterator_traitsISA_E9referenceEEE5valueEvE4typeESA_SA_
HQb:__Z12SetGfxDeviceP9GfxDevice
k8b:__ZN11TimeManager11GetRealtimeEv
_af:_SetPropertyUtility_SetStruct_TisSingle_t209704323_m1178714154_gshared
K4d:_GC_print_block_list
NR:__ZN29AudioEffectInternalDefinitionC2EP26UnityAudioEffectDefinitionb
lsa:_stbir_resize
N$d:__ZN15dense_hashtableINSt3__24pairIK10KeyWrapperIPK19Il2CppGenericMethodEP10MethodInfoEES6_N6il2cpp8metadata23Il2CppGenericMethodHashEN14dense_hash_mapIS6_S9_SD_NS6_14EqualsComparerINSC_26Il2CppGenericMethodCompareEEENS0_9allocatorISA_EEE9SelectKeyESH_SJ_EC2ERKSM_j
gKh:__ZL66Selectable_t3233757874_CustomAttributesCacheGenerator_m_TransitionP21CustomAttributesCache
DQe:_SynchronizedArrayListWrapper_Clear_m1750603352
XSc:__ZN24b2ChainAndCapsuleContact6CreateEP9b2FixtureiS1_iP16b2BlockAllocator
jKa:__Z37ReadDirectoryInfo_UnityWebAndUnityRawR12FileAccessorRKN20ArchiveStorageHeader6HeaderERNS1_13DirectoryInfoE
l6:__ZNSt3__26__treeINS_12__value_typeIPKciEENS_19__map_value_compareIS3_S4_15compare_tstringIS3_ELb1EEENS_9allocatorIS4_EEE7destroyEPNS_11__tree_nodeIS4_PvEE
zce:_MACTripleDES_Dispose_m2898462131
Wha:__ZN15dense_hashtableINSt3__24pairIKN4core12basic_stringIcNS2_20StringStorageDefaultIcEEEE13dynamic_arrayI4PPtrI6SpriteELj4EEEES6_20StringHash32FunctionIS6_EN14dense_hash_mapIS6_SC_SF_NS0_8equal_toIS6_EE13stl_allocatorISD_L18MemLabelIdentifier81ELi16EEE9SelectKeyESI_SL_E12expand_arrayEjN21dense_hash_map_traits17integral_constantIbLb0EEE
qVg:_StringBuilder_set_Capacity_m1938940494
MLi:_ScrollRect_StopMovement_m3431824436
zsj:_RectOffset_set_right_m3124247235
iwe:_ColorBlock_Equals_m110996502
nUj:_AudioSettings_InvokeOnAudioManagerUpdate_m1247774238
lnd:__ZN13dynamic_arrayIN4core12basic_stringIcNS0_20StringStorageDefaultIcEEEELj4EE6assignEPKS4_S7_
EIa:__ZN15dense_hashtableINSt3__24pairIKN4core12basic_stringIcNS2_20StringStorageDefaultIcEEEEP20ArchiveStorageReaderEES6_20StringHash32FunctionIS6_EN14dense_hash_mapIS6_S9_SC_NS0_8equal_toIS6_EE13stl_allocatorISA_L18MemLabelIdentifier55ELi16EEE9SelectKeyESF_SI_E5clearEv
_ed:__ZN2UI6Canvas26MarkAllNestedCanvasesDirtyEv
STd:__ZN6il2cpp2vm12ReboxIfBoxedEP14Il2CppIUnknownP11Il2CppClass
KNb:__ZN25PathNamePersistentManagerD2Ev
V7:__ZN17PersistentManager48IntegrateObjectAndUnlockIntegrationMutexInternalEi
mia:__ZZ29InitializeSortingGroupManagerPvEN44PostLateUpdateSortingGroupsUpdateRegistrator7ForwardEv
Np:__ZN6Object12SetHideFlagsENS_9HideFlagsE
lSc:__ZN9b2Fixture11SynchronizeEP12b2BroadPhaseRK11b2TransformS4_
sSg:_CryptoConfig_Initialize_m3445072187
Kfk:_emscripten_glGetFramebufferAttachmentParameteriv__wrapper
pTb:__ZN13RendererScene15InitializeUmbraEv
eWa:__Z28CalculateGlobalMatrixInverse23TransformAccessReadOnly
DAg:_WebRequest_get_DefaultWebProxy_m3545650287
Q3i:_COMException__ctor_m2285588575
m_j:_UIVertex__cctor_m1633300191
cgj:_Bounds_GetHashCode_m4280533807_AdjustorThunk
Mgj:_Camera_set_pixelRect_m3888473113
q3e:_Delegate_Combine_m3017144479
mZe:_Decimal_op_Explicit_m3730782769
Ezj:_ExtendedKeyUsageExtension_ToString_m2258001450
WTg:_EncoderReplacementFallbackBuffer_Fallback_m928300644
UOi:_Text_get_verticalOverflow_m228540958
Kjg:_ReadOnlyCollection_1_System_Collections_IList_Insert_m3072207605_gshared
iqd:__ZN12HeaderHelper14SetUnvalidatedERKN4core12basic_stringIcNS0_20StringStorageDefaultIcEEEES6_b
ON:__ZN4FMOD6SoundI7releaseEv
Lbb:__ZN14SpriteRenderer13AwakeFromLoadE17AwakeFromLoadMode
WUh:_MethodBuilder_NotSupported_m1725474719
NKa:__ZN10MemoryFile9SetLengthEy
CK:__ZN7mecanim10ValueArray8TransferI19StreamedBinaryWriteILb0EEEEvRT_
BDb:__ZN5RectTIiE8TransferI24GenerateTypeTreeTransferEEvRT_
AFd:__ZN6il2cpp2vm14TypeNameParser25ParseAssemblyNameOptionalEv
JMb:__Z28scripting_class_is_interface17ScriptingClassPtr
Qh:_glTexStorage2D
kkf:_Array_Resize_TisVector3_t831627742_m3046960366_gshared
kZa:__ZNK9ShaderLab10SubProgram14EnsureCompiledEv
g4d:_GC_push_marked
r9:__Z18BuildScriptClassId17ScriptingClassPtr
bLe:_Boolean_System_IConvertible_ToDateTime_m2623432362_AdjustorThunk
FJa:__ZL31DeleteLastPathNameComponentImplRKN4core12basic_stringIcNS_20StringStorageDefaultIcEEEEPKc
Wbc:__Z13RegisterClassI18DelayedCallManagerEvv
ILi:_ScrollRect_OnEnable_m2772351990
Vmd:__ZN18UnityConnectClient15GetCloudServiceEv
KBb:__Z18Transfer_BlittableI24GenerateTypeTreeTransferLb0EiEvRK29SerializationCommandArgumentsR31RuntimeSerializationCommandInfo
BSc:__ZN15b2CircleContact6CreateEP9b2FixtureiS1_iP16b2BlockAllocator
DMb:__ZL28SerializationCommandGroupForRK31TransferFunctionScriptingTraits17ScriptingClassPtr17ScriptingFieldPtrRK20CoreScriptingClasses
ONa:__ZN10TagManager32RegisterDefaultTagsAndLayerMasksEv
lRj:_EqualityComparer_1__cctor_m3892602027_gshared
Oyd:__ZN15dense_hashtableINSt3__24pairIK10KeyWrapperIPKcEP11Il2CppClassEES5_N6il2cpp5utils11StringUtils12StringHasherIS4_EEN14dense_hash_mapIS5_S8_SE_NS5_14EqualsComparerINSB_13VmStringUtils21CaseSensitiveComparerEEENS0_9allocatorIS9_EEE9SelectKeyESJ_SL_E15insert_noresizeERKS9_
pJf:_StreamAsyncResult_SetComplete_m152177066
tkd:__Z56Register_UnityEngine_Analytics_CustomEventData_AddUInt32v
l2e:_Decimal_System_IConvertible_ToUInt16_m3450892998
zoa:__ZN4gles8InitCapsEP7ApiGLESP12GraphicsCapsR16GfxDeviceLevelGL
Fsa:__ZN6prcore14BlitImageFloatERK14ImageReferenceRS0_NS0_8BlitModeE
$5f:_Collection_1_System_Collections_ICollection_CopyTo_m1609618968_gshared
UTa:__Z24CalculateVertexLightDataRK15SharedLightDataR14GfxVertexLight
yi:_glEnable
Ykb:__ZN15dense_hashtableINSt3__24pairIKiiEEi21InstanceIDHashFunctorN14dense_hash_mapIiiS4_NS0_8equal_toIiEE13stl_allocatorIS3_L18MemLabelIdentifier1ELi16EEE9SelectKeyES7_SA_E12maybe_shrinkEv
gZa:__ZNK9ShaderLab7Program28BeginReadUnsupportedVariantsEv
_Ub:__ZNK25CameraStackRenderingState21GetImageEffectTextureEb
ywe:_ContentSizeFitter_OnDisable_m991866352
jib:__ZNSt3__26vectorIN30RuntimeInitializeOnLoadManager9ClassInfoE13stl_allocatorIS2_L18MemLabelIdentifier13ELi16EEE7reserveEj
IDc:__Z35Transfer_Blittable_FixedBufferFieldI9JSONWriteiEvRK29SerializationCommandArgumentsR31RuntimeSerializationCommandInfo
KL:__ZZN8Animator15InitializeClassEvEN31FunctorImpl_427kDidModifyAvatar4CallEPviR11MessageData
Dtf:_DSAManaged_VerifySignature_m2936897451
QB:__ZN26AnimatorControllerPlayable17ProcessRootMotionEP35AnimationPlayableEvaluationConstantP32AnimationPlayableEvaluationInputP33AnimationPlayableEvaluationOutput
JYe:_Convert_ToInt16_m1494844574
Haf:_Array_InternalArray__ICollection_Remove_TisVector4_t3374053054_m2779826900_gshared
LJe:_Array_double_swapper_m1837907978
vld:__ZN11UnityEngine7Connect15DeviceInfoEvent16CollectExtraInfoEv
ELi:_ScrollRect_AdjustBounds_m1307680108
gTh:_EnumBuilder_GetFields_m2891765079
ILa:__ZN20ArchiveStorageReader10InitializeER15FileSystemEntryyb
S4h:__Z200RuntimeInvoker_Boolean_t1367519524_Int32_t497012075_SByte_t1872536467_MethodBaseU26_t598773739_Int32U26_t2768257997_Int32U26_t2768257997_StringU26_t3977847841_Int32U26_t2768257997_Int32U26_t2768257997PFvvEPK10MethodInfoPvPS4_
Oi:_JS_WebCamVideo_GetNativeHeight
b6i:_ConfigHandler__ctor_m1894187679
B0h:__Z52RuntimeInvoker_Boolean_t1367519524_Int16_t1836794551PFvvEPK10MethodInfoPvPS4_
Sfk:_emscripten_glScissor__wrapper
Wo:FUNCTION_TABLE_viifi
Xo:FUNCTION_TABLE_viiff
Myg:_HybridDictionary_System_Collections_IEnumerable_GetEnumerator_m1717963349
gef:_Array_InternalArray__IndexOf_TisRefEmitPermissionSet_t1830350410_m2030310877_gshared
O7g:__ZL37Type_t_CustomAttributesCacheGeneratorP21CustomAttributesCache
fbd:_UNITY_tt_face_free_hdmx
yUc:__ZNSt3__26__sortIRN18Overlap2DQueryBase29ColliderHitsByDepthComparitorEPP10Collider2DEEvT0_S7_T_
sFd:__ZN6il2cpp2vm14TypeNameParser5ParseEb
Aji:__Z102RuntimeInvoker_Void_t3431959231_Single_t209704323_Single_t209704323_Single_t209704323_Int32_t497012075PFvvEPK10MethodInfoPvPS4_
xpd:__ZN23UnityPurchasingSettingsC2Ev
gNi:_Selectable__cctor_m3393828909
Pu:__ZN24GenerateTypeTreeTransfer8TransferIN13AnimationClip9PPtrCurveEEEvRT_PKc17TransferMetaFlags
E2e:_Decimal_Multiply_m3437744150
Mgf:_Array_InternalArray__ICollection_CopyTo_TisMark_t193251893_m3846303292_gshared
A3b:__ZL10RenderFaceR9GfxDeviceR18MaterialStateCacheP13RenderTextureiif
kMf:_StringReader_Read_m2293312983
rsa:__ZL37stbir__resample_horizontal_downsampleP11stbir__infoiPf
rlb:__ZNK5Unity9Component38MarkGameObjectAndComponentDependenciesER27GarbageCollectorThreadState
t4:__ZL16OutOfMemoryErrorjj18MemLabelIdentifieriPKc
Ndf:_Array_InternalArray__IndexOf_TisKeyValuePair_2_t2106518064_m3431985310_gshared
S9:__ZNK11TypeManager15ClassNameToRTTIEPKcb
aKb:__Z18Transfer_BlittableI18StreamedBinaryReadILb0EELb1EdEvRK29SerializationCommandArgumentsR31RuntimeSerializationCommandInfo
jhk:_emscripten_glVertexAttrib2fv__wrapper
xra:__ZN4crnd12symbol_codec32decode_receive_static_data_modelERNS_25static_huffman_data_modelE
_8b:__ZN18ScriptingArguments8AddFloatEf
D1h:__Z78RuntimeInvoker_Double_t2155864068_RuntimeObject_Int32_t497012075_RuntimeObjectPFvvEPK10MethodInfoPvPS4_
lld:__ZN11UnityEngine15PlatformWrapper16GetVRRenderScaleEv
T0j:_CanvasRenderer_SetPopMaterial_m1073369223
IEc:__Z18Transfer_BlittableI9JSONWriteLb0EaEvRK29SerializationCommandArgumentsR31RuntimeSerializationCommandInfo
ZZ:__ZN11UnityEngine15CloudWebService14DataDispatcher34OnSessionContainerArchivedAndReadyERNS0_16SessionContainerE
cMc:__ZN7b2World11CreateJointEPK10b2JointDef
MFe:_InputField_Rebuild_m4124483754
faf:_Array_InternalArray__ICollection_Remove_TisParameterModifier_t1448691540_m1073301346_gshared
gdg:_Collection_1__ctor_m3200233335_gshared
umb:__ZN14SafeBinaryRead19TransferSTLStyleMapINSt3__23mapIN4core12basic_stringIcNS3_20StringStorageDefaultIcEEEEiNS1_4lessIS7_EENS1_9allocatorINS1_4pairIKS7_iEEEEEEEEvRT_17TransferMetaFlags
Akf:_Array_Sort_TisRuntimeObject_m1973156772_gshared
$2c:_gray_move_to
ZUg:_Latin1Encoding_GetByteCount_m2684452328
wKd:__ZN6il2cpp2vm10Reflection14GetEventObjectEP11Il2CppClassPK9EventInfo
R2j:_AnimationOffsetPlayable__ctor_m1339561572_AdjustorThunk
ipc:__Z30RegisterValidateMethodCallbackiPF18ScriptingMethodPtrS_17ScriptingClassPtrP6ObjectEPKc
zaj:_Regex__ctor_m2798136722
y4c:_tt_cmap_init
_Ic:__ZN8JSONRead8TransferI9BoundsIntEEvRT_PKc17TransferMetaFlagsb
La:invoke_viidi
nNj:_GUILayout_Width_m675151182
S8i:_Mark_get_IsDefined_m2041461183
EHb:__Z29Transfer_Blittable_ArrayFieldI18StreamedBinaryReadILb1EEdEvRT_R9ArrayInfoRK23StaticTransferFieldInfo
Zqg:_CipherSuiteCollection_get_IsReadOnly_m1669810120
mQ:__ZN9AudioClip7CleanupEv
ePd:__ZNK15dense_hashtableINSt3__24pairIK10KeyWrapperIP11Il2CppClassES4_EES5_N6il2cpp8metadata16SZArrayClassHashEN14dense_hash_mapIS5_S4_SA_NS5_14EqualsComparerINS9_19SZArrayClassCompareEEENS0_9allocatorIS7_EEE9SelectKeyESE_SG_E12test_deletedEj
BHc:__Z18Transfer_BlittableI8JSONReadLb0EdEvRK29SerializationCommandArgumentsR31RuntimeSerializationCommandInfo
mJ:__ZN7mecanim9animation21BlendTreeNodeConstant35Transfer_4_0_BackwardsCompatibilityI14SafeBinaryReadEEvRT_
AGg:_X509ExtensionEnumerator_Reset_m1244771851
_g:_glTexSubImage3D
VOc:__ZN10ClipperLib7Clipper15JoinCommonEdgesEv
_Zf:_List_1_Contains_m2932588385_gshared
sja:__ZNK9GfxDevice13GetViewMatrixEv
pkb:__ZN17RemapPPtrTransferC2E24TransferInstructionFlagsb
QI:__ZN14SafeBinaryRead21TransferSTLStyleArrayI22OffsetPtrArrayTransferIiEEEvRT_17TransferMetaFlags
Uaa:__ZN8TypeTree8BlobReadERPKhS1_ib
dOf:_MissingFieldException__ctor_m2320583103
Qib:__ZN18LoadSceneOperation23GetAllowSceneActivationEv
WQa:__ZN6CameraD0Ev
Odg:_Collection_1_IsValidItem_m284715838_gshared
qga:__ZN31CanvasBatchIntermediateRenderer16StaticInitializeEPv
eB:__ZN7mecanim12AndValueMaskILb0EEEvPKNS_14ValueArrayMaskEPS1_
pYe:_Double_TryParseStringConstant_m1218588206
A4b:__ZN10GameObjectC2E18MemLabelIdentifier18ObjectCreationMode
Jbd:_raccess_guess_apple_double
Uji:__Z65RuntimeInvoker_RuntimeObject_Vector3_t831627742_Single_t209704323PFvvEPK10MethodInfoPvPS4_
IIj:_InvokableCall_1__ctor_m1270268055_gshared
Vxe:_Dropdown_set_template_m1187700131
K7d:__ZN6il2cpp2os12Cryptography24OpenCryptographyProviderEv
Kfc:__ZN14Texture2DArray13RebuildMipMapEv
Iud:__ZN13Il2CppHashSetIPK17Il2CppGenericInstN6il2cpp8metadata21Il2CppGenericInstHashENS4_24Il2CppGenericInstCompareENSt3__29allocatorI10KeyWrapperIS2_EEEEC2EjRKS5_RKS6_
gxb:__Z18Transfer_BlittableI14SafeBinaryReadLb1EaEvRK29SerializationCommandArgumentsR31RuntimeSerializationCommandInfo
K_d:__ZN6il2cpp2gc16GarbageCollector14RemoveWeakLinkEPPv
Hqb:__ZN9ShaderLab20SerializedSubProgram14AddVectorParamEPKcii15ShaderParamTypei
fPg:_ObjectReader_ReadGenericArray_m2265563098
olk:_emscripten_glIsFramebuffer__wrapper
SPd:__ZN6il2cpp2vm6Thread7SetNameEP12Il2CppThreadP12Il2CppString
uqj:_PropertyName_Equals_m1745871989_AdjustorThunk
SOb:__ZN13ScreenManager18SetAllowCursorLockEb
r$:__ZN11UnityEngine15CloudWebService10RestClientINS0_23WebRequestRestHeaderMapEE16SetRequestHeaderERKN4core12basic_stringIcNS4_20StringStorageDefaultIcEEEESA_
cib:__ZN30RuntimeInitializeOnLoadManager15ClassMethodInfo8TransferI14SafeBinaryReadEEvRT_
nOf:_MissingMethodException__ctor_m1647111323
k4i:_GCHandle_Equals_m1806964520
xX:__ZL22InitializeModule_Audiov
YBg:_ServicePointManager_get_SecurityProtocol_m1860358213
bvb:__ZN16MemoryFileSystem8IsLockedERK13FileEntryData
yRd:__ZN6il2cpp6icalls8mscorlib6System2IO6MonoIO5WriteEiP11Il2CppArrayiiPi
kl:_emscripten_glBindRenderbuffer
g5d:_GC_dirty_init
X7i:_SynchronizationAttribute_GetServerContextSink_m1587664341
xVd:__ZN6il2cpp2vm5Image33GetCachedMemoryMappedResourceFileEP24Il2CppReflectionAssembly
MXd:__ZN6il2cpp2vm5Field14GetValueObjectEP9FieldInfoP12Il2CppObject
dgd:__ZNK2UI6Canvas16GetTargetDisplayEv
hea:__ZN6Object17FindObjectsOfTypeEPKN5Unity4TypeER13dynamic_arrayIPS_Lj4EEb
bMb:__ZN13MonoBehaviour17RemoveFromManagerEv
Zag:_Collection_1__ctor_m1187533804_gshared
Vrg:_RecordProtocol_EncodeRecord_m4057890451
GRa:__ZN12ImageFilters14AddImageFilterERK11ImageFilter
b6a:__ZL11DecodeValuePPKcS0_
mMf:_StringReader_ReadLine_m2594455731
y2:__ZN13MemoryManagerC2Ev
Dgd:__ZN2UI14CanvasRenderer20SetHasPopInstructionEb
aLa:__ZN20ArchiveStorageReader28AcquireAndPrefillUnusedBlockEjPNS_11CacheResultE
Efc:__Z12NHxRoughnessIA4_tEvP9Texture2DPT_iiii
TJg:_MethodCall__ctor_m1790453104
Dea:__ZN18AsyncUploadManagerD2Ev
Fsb:__ZN9Transform5ResetEv
RDb:__Z22TransferField_NonArrayI24GenerateTypeTreeTransfer16Converter_StringEvRK23StaticTransferFieldInfoR31RuntimeSerializationCommandInfoRT0_
o4c:_UNITY_FT_CMap_New
s5e:_Enum_System_IConvertible_ToUInt64_m897070040
LOb:__Z17MainLoopKeepalivePv
Qwf:_X509CertificateCollection_Add_m2225515598
K2h:__Z46RuntimeInvoker_RuntimeObject_Int64_t2229785298PFvvEPK10MethodInfoPvPS4_
I1b:__Z14CalcHullBoundsPK8Vector3fPKhhRK5PlaneRK10Matrix4x4fR10MinMaxAABB
uWb:__Z19SetupLODFadeKeywordR17ShaderPassContexti
fBj:_X509Certificate_get_Hash_m1729261591
Gya:__ZL25CheckCopyTextureArgumentsRK7ApiGLESP11GLESTextureS3_
Ejf:_Array_qsort_TisRaycastResult_t3692659608_m4047816151_gshared
u6i:_ConfigHandler_ReadPreload_m1049395518
AS:__ZN4FMOD12ChannelGroup14getNumChannelsEPi
tjb:__ZN13dynamic_arrayI26EnlightenSystemInformationLj8EE6insertEPS0_PKS0_S4_
dff:_Array_InternalArray__ICollection_Add_TisKeyValuePair_2_t2106518064_m1326304706_gshared
U3c:_tt_name_entry_ascii_from_utf16
PSf:_Enumerator_System_Collections_IEnumerator_Reset_m839242650_gshared
oDb:__Z29Transfer_Blittable_ArrayFieldI24GenerateTypeTreeTransferyEvRT_R9ArrayInfoRK23StaticTransferFieldInfo
ZQ:__ZN4FMOD7SystemI9playSoundE17FMOD_CHANNELINDEXPNS_5SoundEbPPNS_7ChannelE
AY:__Z42Register_UnityEngine_AudioSource_set_pitchv
meb:__ZN19StreamedBinaryWriteILb0EE21TransferSTLStyleArrayINSt3__26vectorI17SubstanceEnumItemNS2_9allocatorIS4_EEEEEEvRT_17TransferMetaFlags
V8b:__ZN13WebCamTexture16EnsureUniqueNameER16MonoWebCamDeviceRKNSt3__26vectorIS0_13stl_allocatorIS0_L18MemLabelIdentifier57ELi16EEEE
YQc:__ZN17PhysicsMaterial2D5ResetEv
Jog:_PrivateKeyInfo_RemoveLeadingZero_m621563710
dB:__ZN27AnimationLayerMixerPlayable17LayerMixerProcessEP35AnimationPlayableEvaluationConstantP32AnimationPlayableEvaluationInputP33AnimationPlayableEvaluationOutputM17AnimationPlayableFvS1_S3_S5_EMS_FvS1_S3_S5_ESA_MS_FvS5_S1_S3_S5_ifE
pFd:__ZN6il2cpp2os4File4ReadEPNS0_10FileHandleEPciPi
zP:__ZN12AudioManager23VirtualRedirectTransferER18StreamedBinaryReadILb0EE
euj:_Scene_GetNameInternal_m2394708467
g8g:__ZL60ObsoleteAttribute_t3527907775_CustomAttributesCacheGeneratorP21CustomAttributesCache
G9a:__ZN10VertexData13SwapEndianessEv
A8j:_realloc
Oxc:__Z57Register_UnityEngine_Transform_INTERNAL_get_localRotationv
bvf:_PKCS1_Sign_v15_m3166116620
Bck:dynCall_viif
yck:dynCall_viii
JRe:_CollectionBase_System_Collections_IList_IndexOf_m1736387337
WAb:__ZL26Transfer_SimpleNativeClassI17RemapPPtrTransfer8GradientLb0EEvRK29SerializationCommandArgumentsR31RuntimeSerializationCommandInfo
PC:__ZN17AnimationPlayable26DisconnectNoTopologyChangeEPS_i
XUf:_List_1_System_Collections_IList_Contains_m823333950_gshared
mBd:__ZN6il2cpp6icalls8mscorlib6System8MonoType14get_attributesEP20Il2CppReflectionType
cdk:dynCall_viifffi
igj:_Bounds_get_size_m3069561868
$$:__ZN13UploadHandlerD2Ev
Tak:dynCall_viiiiiffi
Jc:_emscripten_glBlendFuncSeparate
uti:_Enumerator_Reset_m2132388274_AdjustorThunk
c7:__Z20scripting_string_newPKc
Arg:_TlsClientFinished__ctor_m2912084424
ovc:__Z43Material_CUSTOM_Internal_CreateWithMaterialP12Il2CppObjectS0_
l3e:_Delegate_CreateDelegate_m1395683830
eDc:__ZN9JSONWrite12AppendToNodeEPN5Unity9rapidjson12GenericValueINS1_4UTF8IcEE13JSONAllocatorEEPKcRS6_
oRc:__ZN16PhysicsManager2D20GetRigidBodyVelocityERK11Rigidbody2D
nCf:_Int16_System_IConvertible_ToInt32_m350454558_AdjustorThunk
kG:__ZNSt3__26__sortIRPFbPKN8Animator11AnimatorJobES4_EPS4_EEvT0_S9_T_
GO:__ZN17AudioCustomFilterD2Ev
G$g:_Type_GetType_m79097526
hCj:_X509ExtensionCollection_get_Item_m3590092803
Kge:_ToBase64Transform_TransformBlock_m1266308193
qxa:__ZN18GfxFramebufferGLES18ReleaseFramebufferEP17RenderSurfaceBaseP14GfxContextGLES
s6j:_isalpha
Jhc:__ZN13ProduceHelperI6CameraLb0EE7ProduceE18MemLabelIdentifier18ObjectCreationMode
x1:__ZN19CloudServiceHandler34HandleSaveFileWebRequestPlayerLoopEv
eke:_Single_System_IConvertible_ToDateTime_m2553978487_AdjustorThunk
AC:__ZN7mecanim21ValueArrayReverseCopyEPKNS_18ValueArrayConstantEPKNS_10ValueArrayES2_PS3_PKi
oO:__Z31GetParentSampleClipFromInstancePN11SoundHandle8InstanceE
ydc:__ZNK28RectTransformPropertyBinding13GetFloatValueERKN11UnityEngine9Animation10BoundCurveE
X3b:__ZN6Camera22StandaloneCustomRenderENS_10RenderFlagEP6ShaderRKN4core12basic_stringIcNS3_20StringStorageDefaultIcEEEEPNS_21PerformRenderFunctionE
uhb:__ZNSt3__26vectorI4PPtrI6ObjectE13stl_allocatorIS3_L18MemLabelIdentifier52ELi16EEE6assignINS_11__wrap_iterIPS3_EEEENS_9enable_ifIXaasr21__is_forward_iteratorIT_EE5valuesr16is_constructibleIS3_NS_15iterator_traitsISD_E9referenceEEE5valueEvE4typeESD_SD_
U9d:__ZN6il2cpp2os16ThreadLocalValue8GetValueEPPv
QLi:_ScrollRect_OnInitializePotentialDrag_m1676656508
Vyd:__ZN6il2cpp2vm13MetadataCache14GetGenericInstEPKPK10Il2CppTypej
AX:__ZN13AudioListener17ReadExtensionNameEi
hpf:_MSCompatUnicodeTable_HasSpecialWeight_m3562186760
kd:_glUniform1uiv
Dp:setThrew
wfc:__ZL21BuildEmptyCubeTexturePKci11ColorRGBA3217TextureColorSpace
nyj:_Vector3_GetHashCode_m2907367926
xmb:__ZN14SafeBinaryRead21TransferSTLStyleArrayINSt3__26vectorIN9ShaderLab20SerializedSubProgramENS1_9allocatorIS4_EEEEEEvRT_17TransferMetaFlags
AGc:__Z15Transfer_StringI8JSONReadLb1EEvRK29SerializationCommandArgumentsR31RuntimeSerializationCommandInfo
$ta:__ZN6prcoreL17RemapGenericFloatI17TexFormatRGBFloat15TexFormatRGHalfEEvPKNS_9InnerInfoE
MXb:__Z25DoForwardShaderRenderLoopR17RenderLoopContextR13dynamic_arrayI16RenderObjectDataLj4EERK11CullResultsbbbN6Camera10RenderFlagE
jY:__Z36AudioSource_CUSTOM_PlayOneShotHelperP12Il2CppObjectS0_f
s3c:_sfnt_load_face
Z$c:_UNITY_FT_Render_Glyph_Internal
pUg:_Encoding_InvokeI18N_m386035910
j3c:_UNITY_ft_service_list_lookup
Tdf:_Array_InternalArray__IndexOf_TisSlot_t1159283672_m2605399816_gshared
sJf:_Stream_EndRead_m518265664
jAc:__ZN5IMGUI21SelectReceivingWindowER8GUIStateb
nNi:_Shadow_ModifyMesh_m2434089725
rOi:_SpriteState_Equals_m3155908411_AdjustorThunk
GPf:_MonoType_InvokeMember_m3088973079
j7j:___strchrnul
Z1:__ZN13BaseAllocator13TryDeallocateEPv
Ogk:_glGenVertexArrays__wrapper
cNj:_GUIUtility_CheckOnGUI_m2612684506
OSa:__ZNSt3__26vectorIN12FlareManager10FlareEntryENS_9allocatorIS2_EEE21__push_back_slow_pathIKS2_EEvRT_
$5j:_sprintf
Ili:__Z60RuntimeInvoker_Boolean_t1367519524_RaycastResult_t3692659608PFvvEPK10MethodInfoPvPS4_
gP:__ZN13AudioListener17RemoveFromManagerEv
Ed:_glAttachShader
kVg:_StringBuilder__ctor_m1653422019
HIe:_Array_SetValue_m3906839992
lPa:__ZNK6Camera19GetProjectionMatrixEv
bHi:_Mask_MaskEnabled_m1019024135
SWf:_List_1_System_Collections_IList_Remove_m2655901643_gshared
Qtg:_TlsClientCertificateVerify_ProcessAsSsl3_m2127017010
oqg:_CipherSuite_DecryptRecord_m1588484956
lYe:_Convert_ToDouble_m3936256141
Pqf:_BigInteger__cctor_m3094547724
kti:_Enumerator_get_CurrentKey_m3462900377_gshared
E1a:__ZNK9Texture2D20GetUnscaledTextureIDEv
Etj:_RenderTexture__ctor_m1484639029
NNg:_SoapServices__cctor_m2591590688
rik:_glFenceSync__wrapper
bwf:_SymmetricTransform_ThrowBadPaddingException_m320172997
xJf:_MonoIO_Write_m2749448143
SLe:_FormatException__ctor_m347269186
J1a:__ZNK9Texture2D26CanReuploadDataToGfxDeviceEv
aXe:_DateTime__ctor_m2461615734
Gjb:__Z29ClearRepeatingLogMessageStatev
Wda:__ZN21EnlightenSceneMappingaSERKS_
OAg:_HttpWebRequest__cctor_m2954690681
mle:_String_System_IConvertible_ToSByte_m1604624212
Nhe:_SecurityPermission_IsUnrestricted_m537124974
kDa:__ZN7ApiGLESD2Ev
gNa:__ZN9Transform47ClearTransformHierarchyAndApplyToSerializedDataEv
nvc:__Z41Material_CUSTOM_Internal_CreateWithShaderP12Il2CppObjectS0_
fHe:_LayoutGroup_SetDirty_m1365247591
aRa:__ZN6Camera23VirtualRedirectTransferER19StreamedBinaryWriteILb0EE
Sck:dynCall_fidi
BHd:__ZN15dense_hashtableINSt3__24pairIK10KeyWrapperINS1_IPK9FieldInfoP11Il2CppClassEEEjEES9_17ReflectionMapHashIS8_EN14dense_hash_mapIS9_jSD_NS9_14EqualsComparerINS0_8equal_toIS8_EEEENS0_9allocatorISB_EEE9SelectKeyESI_SK_E12resize_deltaEjj
V1e:_Decimal_System_IConvertible_ToByte_m2360084282_AdjustorThunk
Kjh:__ZL51Activator_t616036429_CustomAttributesCacheGeneratorP21CustomAttributesCache
cQa:__ZN15dense_hashtableINSt3__24pairIKN9ShaderLab7Program23ShaderKeywordSetAndHashEPKNS2_10SubProgramEEES4_NS3_24ShaderKeywordHashFunctorEN14dense_hash_mapIS4_S8_SA_NS0_8equal_toIS4_EE13stl_allocatorIS9_L18MemLabelIdentifier67ELi16EEE9SelectKeyESD_SG_E15insert_noresizeERKS9_
K9i:_PatternCompiler_EmitNotCategory_m3400074108
Ydb:__ZN14SubstanceInput8TransferI24GenerateTypeTreeTransferEEvRT_
PXa:__ZN13RenderTexture12SetDimensionE16TextureDimension
DLf:_StreamReader_Peek_m164445329
te:_SDL_FreeRW
thd:__Z34CanvasRenderer_Get_Custom_PropCullP12Il2CppObject
IU:__ZN20SoundChannelInstance8getDelayE14FMOD_DELAYTYPEPjS1_
M_c:__ZNSt3__26vectorIN20TextRenderingPrivate8FontImpl13CharacterInfoE13stl_allocatorIS3_L18MemLabelIdentifier1ELi16EEE8__appendEj
v:tempBigInt
Be:_emscripten_glVertexAttrib1fv
cnb:__ZNSt3__26vectorIN9ShaderLab20SerializedSubProgram12UAVParameterENS_9allocatorIS3_EEE7reserveEj
t9i:_Enumerator_System_Collections_IEnumerator_MoveNext_m220522968
L9j:__ZSt11__terminatePFvvE
xR:__ZN12AudioManager14systemCallbackEP11FMOD_SYSTEM24FMOD_SYSTEM_CALLBACKTYPEPvS3_
B4g:__ZL61ComVisibleAttribute_t734058107_CustomAttributesCacheGeneratorP21CustomAttributesCache
Y$h:__Z34RuntimeInvoker_Boolean_t1367519524PFvvEPK10MethodInfoPvPS4_
dYe:_Convert_ToDouble_m1886569383
fkj:_UnityEvent_AddListener_m3510296883
YYi:_InternalEnumerator_1_System_Collections_IEnumerator_get_Current_m2484957757_gshared
q0i:_InternalEnumerator_1_System_Collections_IEnumerator_get_Current_m3174355231_AdjustorThunk
dXa:__ZN16ReflectionProbes16UpdateSampleDataEv
f7e:_CompareInfo_internal_compare_switch_m2914966791
Fpj:_ScriptableObject_Internal_CreateScriptableObject_m1209291864
LCf:_Int32_ProcessTrailingWhitespace_m4168085001
odb:__ZN18ProceduralMaterial23VirtualRedirectTransferER17RemapPPtrTransfer
Pve:_ClipperRegistry_Unregister_m648790331
D3f:_List_1_AddEnumerable_m2123592530_gshared
OFd:__ZNK6il2cpp2vm14TypeNameParser10NextWillBeEcb
_e:_JS_Sound_Play
k9h:__Z49RuntimeInvoker_Single_t209704323_Int32_t497012075PFvvEPK10MethodInfoPvPS4_
Ixj:_Vector2_ToString_m2476539887
_lb:__ZN9ShaderLab16SerializedShader8TransferI14SafeBinaryReadEEvRT_
PXf:_List_1_System_Collections_IList_Remove_m3887884219_gshared
Bhi:__Z67RuntimeInvoker_Boolean_t1367519524_RuntimeObject_Double_t2155864068PFvvEPK10MethodInfoPvPS4_
k1j:_RectTransformUtility_INTERNAL_CALL_PixelAdjustRect_m3875044657
EF:__ZN7mecanim8skeleton13SkeletonAlignEPKNS0_8SkeletonERKN4math7_float4ES7_i
ogc:__ZN19ShaderPropertySheet16SetVectorIndexedEN9ShaderLab16FastPropertyNameEifRK8Vector4fNS_8SetFlagsE
MIj:_InvokableCall_1_Invoke_m1208201676_gshared
Cve:_CanvasUpdateRegistry_ParentCount_m355788048
e1:__ZN11UnityEngine15CloudWebService14DataDispatcher4StopEv
d3j:_Animator_SetFloatString_m2332075662
enb:__ZNSt3__26vectorIN9ShaderLab20SerializedSubProgram12UAVParameterENS_9allocatorIS3_EEE8__appendEj
bAc:__ZN5IMGUI9GUIWindow5OnGUIER8GUIState
FKj:_UnityEvent_1_Invoke_m510944975_gshared
E4i:_SafeHandle_DangerousAddRef_m215795605
qIa:__ZN17ScriptingGCHandle7AcquireE18ScriptingObjectPtr25ScriptingGCHandleWeakness
yEg:_X509ChainElement_UncompressFlags_m1827772180
Zyf:_ApplicationException__ctor_m971722410
aFi:_EqualityComparer_1__cctor_m1421196512_gshared
pfd:__ZN2UI14CanvasRenderer14AttachToCanvasER8JobFencePNS_6CanvasENS0_15InstructionTypeE
YRc:__ZN25SyncColliderTransformData3JobEPS_jPK23TransformAccessReadOnlyPKyj
ZQf:_CustomInfo__ctor_m3336078626
Kbk:dynCall_iifiii
$ra:__Z21HasAlphaTextureFormat13TextureFormat
NW:__ZN12AudioManager6UpdateEv
Ura:__ZN14ImageReference9BlitImageERKS_NS_8BlitModeE
Orf:_PrimalityTests_GetSPPRounds_m3887962158
Qw:__ZN8Animator12AddToManagerEv
Hsf:_ASN1_Element_m3731424844
OZe:_Convert_ToUInt16_m2384608208
WMb:__ZN23CachedSerializationDataD2Ev
X2b:__ZNK25CameraStackRenderingState31CalculateStereoCameraTargetTypeEv
Ppf:_SortKeyBuffer_AppendLevel5_m4091273480
GWa:__ZN14RenderSettings23VirtualRedirectTransferER14SafeBinaryRead
zQc:__ZNK13b2CircleShape5CloneEP16b2BlockAllocator
AZd:__ZN6il2cpp2os10ThreadImpl15CurrentThreadIdEv
iue:_AspectRatioFitter_set_aspectRatio_m2596767428
xvc:__Z57Register_UnityEngine_Material_INTERNAL_CALL_SetVectorImplv
kbd:_UNITY_tt_face_load_fpgm
XMa:__Z17IsObjectAvailablei
veb:__ZN12InputManagerD0Ev
i8d:__ZN6il2cpp6icalls8mscorlib6System11Diagnostics10StackTrace9get_traceEP15Il2CppExceptionib
KVf:_List_1_get_Item_m3037043761_gshared
IFf:_Int64_System_IConvertible_ToType_m2414245848
X7h:__Z113RuntimeInvoker_Void_t3431959231_RuntimeObject_Int32_t497012075_Int32_t497012075_Int32_t497012075_Int32_t497012075PFvvEPK10MethodInfoPvPS4_
pLg:_ReturnMessage__ctor_m1119184015
F8j:_posix_memalign
Fgc:__ZN13ProduceHelperI12MeshRendererLb0EE7ProduceE18MemLabelIdentifier18ObjectCreationMode
yuf:_SmallXmlParser_UnexpectedEndError_m567210704
kNe:_Char_System_IConvertible_ToBoolean_m4072034679
b9:__ZNK15MonoScriptCache7ReleaseEv
wtd:__ZN6il2cpp2vm5Class13HasReferencesEP11Il2CppClass
og:_glBindTexture
T6j:_snprintf
xHj:_TelevisionProfile_OnFixedUpdate_m1827604929
ihk:_emscripten_glVertexAttrib1fv__wrapper
dlb:__Z36scripting_liveness_calculation_begin17ScriptingClassPtriPFvPP12Il2CppObjectiPvES3_PFvvES7_
QMg:_RealProxy__ctor_m4053426651
SAa:__ZN16UniformCacheGLES6CreateERK20GpuProgramParameters
FJ:__ZN7mecanim12statemachine13StateConstant8TransferI24GenerateTypeTreeTransferEEvRT_
Ifk:_emscripten_glGetProgramInfoLog__wrapper
kL:__ZN25AnimatedPropertyEvaluator29BindCurveToScriptingObjectPtrERKN13AnimationClip10FloatCurveEj18ScriptingObjectPtrb
WXd:__ZN6il2cpp2vm5Field14IsThreadStaticEP9FieldInfo
laa:__ZN17PersistentManager23DestroyFromFileInternalEi
$Xb:__Z19SetupMotionMatricesR6CameraR18RPDataMotionVector
bsd:__ZL7log2_64y
TQf:_NumberFormatter_FormatRoundtrip_m1066177768
TG:__ZN26AnimatorControllerPlayable18PrepareForPlaybackERN7mecanim6memory9AllocatorE
kPi:_Text_get_preferredWidth_m415008794
NIg:_Interval_IsAdjacent_m2925686106_AdjustorThunk
zne:_ASCIIEncoding_GetChars_m2258222663
qqf:_SimpleCollator_IndexOfOrdinal_m3987378333
oQa:__ZN22CreateGpuProgramOutputC2Ev
M8e:_Array_InternalArray__ICollection_Contains_TisDateTime_t2928128394_m3107775104_gshared
uke:_Single_System_IConvertible_ToType_m3056202463_AdjustorThunk
Ape:_EventSystem_SetSelectedGameObject_m1949611020
DMh:__ZL56PositionAsUV1_t2557872842_CustomAttributesCacheGeneratorP21CustomAttributesCache
Yjd:__Z38CustomEventData_CUSTOM_InternalDestroyP12Il2CppObject
rtd:__ZN6il2cpp2vmL17SetupGCDescriptorEP11Il2CppClass
iHg:_FactoryCache_Add_m1491058295
wYi:_InternalEnumerator_1_System_Collections_IEnumerator_get_Current_m558304806_AdjustorThunk
ha:invoke_vidi
Jlc:__ZNK15GUIEventManager15GetEventAtIndexEi
Gfd:__ZN2UI14CanvasRenderer17SyncDirtyElementsER8JobFence
$0d:__ZN6il2cpp5utils11StringUtils15StringDuplicateEPKc
q4b:__Z15CanAddComponentR10GameObjectPKN5Unity4TypeE
FPa:__ZNK9ShaderLab21ShaderRasterStateDesc16ToGfxRasterStateEPK19ShaderPropertySheetS3_R14GfxRasterState
m$j:_Nullable_1_get_Value_m710292979_AdjustorThunk
$9d:__ZN6il2cpp2os9EventImplC2Ebb
ldh:__ZL71ReliabilityContractAttribute_t2658336352_CustomAttributesCacheGeneratorP21CustomAttributesCache
rtf:_DSAManaged_Generate_m2606992669
aYe:_Convert_ToDecimal_m1992923411
RTe:_SyncHashtable_get_Keys_m3189021484
VSa:__ZN12FlareManager12RemoveCameraER6Camera
K5:__Z20IsMatrixBuiltinParamPKcPi
Nsi:_Enumerator_get_CurrentKey_m1043556934_gshared
Xfc:__ZN8Renderer19PostInitializeClassEv
eNi:_Selectable_OnDeselect_m1900055208
gxh:__ZL68PreferBinarySerialization_t2330886214_CustomAttributesCacheGeneratorP21CustomAttributesCache
q6d:__ZN6il2cpp6icalls8mscorlib6System8Delegate23CreateDelegate_internalEP20Il2CppReflectionTypeP12Il2CppObjectP22Il2CppReflectionMethodb
pMb:__ZN18DelayedCallManager18CancelCallDelayed2E4PPtrI6ObjectEPF15CallObjectStatePS1_PvES7_
jGa:__ZN25ThreadsafeLinearAllocator10ReallocateEPvji
xwb:__Z18Transfer_BlittableI14SafeBinaryReadLb1E11QuaternionfEvRK29SerializationCommandArgumentsR31RuntimeSerializationCommandInfo
t6e:_FieldAccessException__ctor_m957284506
jia:__ZN18SpriteAtlasManagerD0Ev
vkj:_RenderPipelineManager_CleanupRenderPipeline_m3469583316
T5d:_GC_disable
R9a:__ZN10Matrix4x4f8TransferI14SafeBinaryReadEEvRT_
nYc:__ZN15dense_hashtableINSt3__24pairIKNS1_IPK10Collider2DS4_EEjEES5_NS2_23ColliderPairHashFunctorEN14dense_hash_mapIS5_jS8_NS0_8equal_toIS5_EE13stl_allocatorIS7_L18MemLabelIdentifier67ELi16EEE9SelectKeyESB_SE_E9copy_fromERKSH_j
dMd:__ZN14dense_hash_mapI10KeyWrapperIPK22Il2CppGenericParameterEPK24MonoGenericParameterInfoN6il2cpp5utils11PointerHashIS2_EENS4_14EqualsComparerINSt3__28equal_toIS3_EEEENSD_9allocatorINSD_4pairIKS4_S7_EEEEE15set_deleted_keyERSJ_
QG:__ZN14AvatarPlayback8StopTimeEv
wca:__Z6AppendRKN4core12basic_stringIcNS_20StringStorageDefaultIcEEEEPKc
vQj:_EqualityComparer_1_System_Collections_IEqualityComparer_GetHashCode_m4174638976_gshared
fAg:_EditorBrowsableAttribute_GetHashCode_m2515907715
kWg:_UnicodeEncoding_Equals_m1622233067
dOj:_GUILayoutEntry_SetVertical_m3992498832
rpa:__ZN7ApiGLES18ClearBufferSubDataEjN2gl12BufferTargetEll
CM:__ZN8Animator7SetBoolEib
wqc:__Z37Camera_Get_Custom_PropAllCamerasCountv
G8a:__ZN14Texture2DArray8TransferI18StreamedBinaryReadILb0EEEEvRT_
t1i:_Comparer_1_System_Collections_IComparer_Compare_m1298471363_gshared
uHf:_BinaryReader_ReadString_m3844701951
SVe:_Convert_ToByte_m3464872177
x0e:_DateTime_ToString_m4239426972
$5c:_Split_Cubic
fb:invoke_fiiii
Afe:_SHA256Managed_HashFinal_m4024025420
CZd:__ZN6il2cpp2os10ThreadImpl22CreateForCurrentThreadEv
N5c:_ft_black_render
O1d:__ZN6il2cpp2vm8Profiler12GCHeapResizeEx
_ck:dynCall_viiifi
Uwa:__ZN18GfxFramebufferGLES20ActiveContextChangedEPP17RenderSurfaceBaseS2_
tgk:_glAttachShader__wrapper
Hwa:__Z19PluginsRenderMarkeri
UL:__ZN10HumanTrait18InitializeBoneNameEv
ete:_StandaloneInputModule_ActivateModule_m3322660275
VWe:_DateTime__ctor_m2511487087
qnj:_Matrix4x4_GetColumn_m3144493741
CVd:__ZNSt3__214__split_bufferIN6il2cpp2vm5Image20EmbeddedResourceDataERNS_9allocatorIS4_EEEC2EjjS7_
OO:__ZN12AudioManager17RemoveAudioSourceEP11AudioSource
Ehf:_Array_InternalArray__Insert_TisCustomAttributeNamedArgument_t3990136598_m4093065740_gshared
vke:_Single_System_IConvertible_ToUInt16_m1411089868
i2i:_Comparer_1__cctor_m1418580594_gshared
K$e:_DateTime_GetNow_m2842682595
rec:__ZN13ProduceHelperI14SpriteRendererLb0EE7ProduceE18MemLabelIdentifier18ObjectCreationMode
_Y:__ZN5physx14PxLightCpuTask12addReferenceEv
KTc:__Z10b2DistanceP16b2DistanceOutputP14b2SimplexCachePK15b2DistanceInput
s2f:_List_1_System_Collections_IList_IndexOf_m4201212085_gshared
P3a:__ZN21EnlightenSceneMapping8TransferI19StreamedBinaryWriteILb0EEEEvRT_
bXd:__ZN6il2cpp2gc16GarbageCollector19InitializeFinalizerEv
CC:__ZN7mecanim8skeleton18CreateSkeletonMaskEjPKNS0_19SkeletonMaskElementERNS_6memory9AllocatorE
Hzc:__ZN10GUIManager10DoGUIEventER10InputEventb
oCb:__Z35Transfer_Blittable_FixedBufferFieldI24GenerateTypeTreeTransferxEvRK29SerializationCommandArgumentsR31RuntimeSerializationCommandInfo
WZe:_Convert_ToUInt16_m3591813638
pbd:_UNITY_TT_Init_Glyph_Loading
$Wb:__Z20CalculateSqrDistanceRK8Vector3fRK4AABB
IUg:_UTF7Encoding__ctor_m1483832841
ojg:_ReadOnlyCollection_1_System_Collections_IList_set_Item_m2202013066_gshared
$S:__Z32AudioMixerDuckingProcessCallbackP21UnityAudioEffectStatePfS1_jii
H8j:__ZNSt3__27__sort3IRNS_6__lessIiiEEPiEEjT0_S5_S5_T_
ovf:_PrivateKeyInfo_Decode_m2755654867
$ec:__ZN26CustomRenderTextureManagerD2Ev
Eji:__Z108RuntimeInvoker_Single_t209704323_RuntimeObject_RuntimeObject_Single_t209704323_ILayoutElementU26_t3388123136PFvvEPK10MethodInfoPvPS4_
EP:__ZN12AudioManager8TransferI24GenerateTypeTreeTransferEEvRT_
bra:__Z25GetBytesFromTextureFormat13TextureFormat
VQd:__ZN6il2cpp6icalls8mscorlib6System9Threading6Thread20Thread_free_internalEP12Il2CppThreadi
Vak:dynCall_iiffi
bdg:_Collection_1_IsValidItem_m2523004602_gshared
_of:_MSCompatUnicodeTable_SetCJKReferences_m2002365376
d7e:_CompareInfo_Finalize_m1405254872
dL:__ZN16MecanimAnimation25RegisterIAnimationBindingEPKN5Unity4TypeEiP17IAnimationBinding
aaa:__Z32scripting_class_get_assemblyname17ScriptingClassPtr
nld:__ZN11UnityEngine15PlatformWrapper15GetVRDeviceNameEv
szd:__ZN6il2cpp2vm13MetadataCache23GetInvokerMethodPointerEPK10MethodInfoPK20Il2CppGenericContext
lCa:__ZN9GfxDevice21RegisterNativeTextureE9TextureIDi16TextureDimension
Sjk:b101
y7d:__ZN6il2cpp6icalls8mscorlib6System10Reflection4Emit11TypeBuilder20create_generic_classEP27Il2CppReflectionTypeBuilder
pSe:_KeyNotFoundException__ctor_m1008847351
rIf:_MonoIO_DeleteFile_m2584131486
G4j:_AnalyticsTracker_OnDestroy_m4168417157
uY:__Z60Register_UnityEngine_AudioListener_GetNumExtensionPropertiesv
hj:_emscripten_glUniformMatrix4fv
gOd:__ZN15dense_hashtableINSt3__24pairIK10KeyWrapperINS1_IP11Il2CppClassjEEES4_EES6_N6il2cpp8metadata14ArrayClassHashEN14dense_hash_mapIS6_S4_SB_NS6_14EqualsComparerINSA_17ArrayClassCompareEEENS0_9allocatorIS8_EEE9SelectKeyESF_SH_E13set_empty_keyERKS8_
qrb:__ZN12ScriptMapperD2Ev
Qmj:_Material_SetFloatArray_m2091826446
Fi:emscriptenWebGLGetTexPixelData
RIf:_MonoIO_Seek_m1304033984
Owc:__Z52Register_UnityEngine_RenderTexture_Internal_GetWidthv
D4d:_GC_check_leaked
Ipb:__ZN9ShaderLab20SerializedSubProgram16TextureParameter8TransferI19StreamedBinaryWriteILb0EEEEvRT_
sFa:__ZNK7Hash12812PackToUInt32Ev
sVi:_InternalEnumerator_1_get_Current_m718413993_AdjustorThunk
Rba:__ZNSt3__227__insertion_sort_incompleteIRNS_6__lessI14ObjectLoadDataS2_EEPS2_EEbT0_S6_T_
m1:__ZN11UnityEngine15CloudWebService16SessionContainer8AddEventEPNS0_14CloudEventInfoE
UAa:__Z4TrimRKN4core12basic_stringIcNS_20StringStorageDefaultIcEEEES5_
deg:_ReadOnlyCollection_1_System_Collections_IList_Clear_m203714388_gshared
Brg:_ClientRecordProtocol_ProcessHandshakeMessage_m2013307779
_0i:_DefaultComparer_Compare_m3989670175_gshared
d7a:__ZN10VertexData8TransferI14SafeBinaryReadEEvRT_
iJf:_FileStream_FlushBuffer_m2708906129
TQ:__ZN4FMOD8ChannelI8setDelayE14FMOD_DELAYTYPEjj
x5d:_GC_malloc_atomic
d8d:__ZN6il2cpp5utils6Memory13AlignedMallocEjj
EVd:__ZNSt3__214__split_bufferIN6il2cpp2vm5Image20EmbeddedResourceDataERNS_9allocatorIS4_EEED2Ev
b8:__ZL20SortItemByInstanceIDRKN18AwakeFromLoadQueue4ItemES2_
W$e:_DateTime_Compare_m1094607200
OC:__ZNK34AnimationStateMachineMixerPlayable26GetInterruptedPosePlayableEv
jod:__ZN20UnityConnectSettings8TransferI24GenerateTypeTreeTransferEEvRT_
fF:__ZN34BlobWriteTransferSTLStyleArrayImplI22OffsetPtrArrayTransferIbEEclERS1_17TransferMetaFlagsR9BlobWrite
W1h:__Z78RuntimeInvoker_Decimal_t407386666_RuntimeObject_Int32_t497012075_RuntimeObjectPFvvEPK10MethodInfoPvPS4_
stg:_Context_get_Current_m634936053
RBe:_GridLayoutGroup_SetLayoutVertical_m2466070759
h$e:_DateTime_System_IConvertible_ToSingle_m33690103_AdjustorThunk
AJa:__Z16FlaggedAsSkippedIN4core12basic_stringIcNS0_20StringStorageDefaultIcEEEEEbRK13FileEntryInfoRKT_19FileEnumerationFlag
Lda:__ZL31InitializeRendererUpdateManagerPv
Cdf:_Array_IndexOf_TisVector2_t1132184324_m3377008812_gshared
dOg:_WellKnownClientTypeEntry_ToString_m65010217
oAj:_PKCS12_AddPrivateKey_m944620215
ZNf:_MemberAccessException__ctor_m2293542211
lfb:__ZN11TimeManager8TransferI19StreamedBinaryWriteILb0EEEEvRT_
k_g:_TimeSpan_Add_m1268838530_AdjustorThunk
see:_RSA_Create_m842031921
i9e:_Array_InternalArray__ICollection_Contains_TisUInt16_t2648343906_m650292021_gshared
_Mg:_RemotingProxy__cctor_m3664865542
W6c:_compare_uni_maps
pTg:_DecoderReplacementFallbackBuffer_get_Remaining_m893673873
_ld:__ZN11UnityEngine15PlatformWrapper27GetGraphicsCapsSupportFlagsEv
YAa:__ZN18GlslGpuProgramGLES25LoadFromBinaryShaderCacheERKN4core12basic_stringIcNS0_20StringStorageDefaultIcEEEER17ShaderChannelMaskPKc
RFb:__ZN12NativeBufferI16Converter_StringE15SetupForWritingER9ArrayInfo
Mek:___cxa_end_catch__wrapper
p6i:_ConfigHandler_ReadClientWellKnown_m3959547840
d$j:_U3CCreateWhereIteratorU3Ec__Iterator1D_1_System_Collections_Generic_IEnumerableU3CTSourceU3E_GetEnumerator_m667624057_gshared
ZMb:__ZN13MonoBehaviour22DoScriptRebuildWarningEv
yqc:__Z38Camera_CUSTOM_INTERNAL_CALL_RaycastTryP12Il2CppObjectRK3Rayfi
XPd:__ZN6il2cpp6icalls8mscorlib6System5Array13ClearInternalEP11Il2CppArrayii
XXe:_Decimal_Parse_m3269966801
ESf:_Enumerator_System_Collections_IEnumerator_Reset_m2721531265_AdjustorThunk
noj:_MonoBehaviour_Internal_CancelInvokeAll_m2334243161
tak:_llvm_cttz_i32
KAc:__ZN11IMGUIModule25GetGUIStyleScriptingClassEv
O9c:_tt_get_interface
GQd:__ZN6il2cpp5utils9PathUtils7CombineIcEENSt3__212basic_stringIT_NS3_11char_traitsIS5_EENS3_9allocatorIS5_EEEERKSA_SC_
qZj:_FontTextureRebuildCallback_Invoke_m1622184350
pGc:__ZN9JSONWrite8TransferI13dynamic_arrayIiLj4EEEEvRT_PKc17TransferMetaFlags
Pic:__ZN13PlayableGraph21InvalidateMultithreadEv
Okf:_Array_Sort_TisRaycastHit_t2952049248_m2804270152_gshared
QPe:_ArrayListWrapper_GetEnumerator_m3093713169
X_d:__ZN6il2cpp2os20PathErrnoToErrorCodeERKNSt3__212basic_stringIcNS1_11char_traitsIcEENS1_9allocatorIcEEEEi
$Kf:_Path__cctor_m3808324827
Gmc:__Z24GetActualTargetFrameRatev
wsf:_ASN1_DecodeTLV_m2168908718
Qrd:__ZL16my_g_bit_nth_msfj
kVb:__Z23SetupStereoFlareElementP11FlareVertexRK8Vector2fS3_S3_RK11ColorRGBA32RK10Matrix4x4fRK8Vector3fb
l3h:__Z118RuntimeInvoker_RuntimeObject_RuntimeObject_Int32_t497012075_RuntimeObject_Int32_t497012075_RuntimeObject_RuntimeObjectPFvvEPK10MethodInfoPvPS4_
ta:invoke_iiiifiiii
CYg:_Thread_GetCachedCurrentCulture_m1908680913
V_j:_Func_3_BeginInvoke_m647121845_gshared
dhf:_Array_InternalArray__ICollection_CopyTo_TisVector2_t1132184324_m1816028488_gshared
ylj:_Input_get_mousePresent_m479799212
wxa:__ZL19BlitFramebufferImplRN4gles23BlitFramebufferDrawQuadER9GfxDevice9TextureIDRK8Vector4f
Rbk:dynCall_viiiifii
U_j:_Func_3_Invoke_m1214318516_gshared
Yad:_TT_Hint_Glyph
D0c:_UNITY_FT_List_Add
yfc:__ZN14Texture2DArray11InitTextureEiii13TextureFormatb
Cwj:_Transform_set_position_m3386731116
V5e:_Environment_GetWindowsFolderPath_m2572310234
J0e:_DateTimeOffset__ctor_m2759792537
yUe:_SortedList_Contains_m4217564093
X_h:_PropertyInfo_SetValue_m1033432925
eDh:__ZL49Canvas_t3486434352_CustomAttributesCacheGeneratorP21CustomAttributesCache
D3j:_CustomEventData_AddString_m249470506
P8i:_LinkStack__ctor_m2433286472
idj:_Literal_GetWidth_m1995020274
Wge:_TripleDESTransform_GetStrongKey_m462531650
pZb:__ZNK6Camera26GetStereoSingleCullEnabledEv
nib:__Z14resize_trimmedINSt3__26vectorIN4core12basic_stringIcNS2_20StringStorageDefaultIcEEEE13stl_allocatorIS6_L18MemLabelIdentifier13ELi16EEEEEvRT_j
fxb:__Z18Transfer_BlittableI14SafeBinaryReadLb0EaEvRK29SerializationCommandArgumentsR31RuntimeSerializationCommandInfo
Pgj:_Camera_get_clearFlags_m423246357
SCf:_Int32_FindSign_m2107822877
EGg:_X509KeyUsageExtension_GetValidFlags_m4024180806
Yxg:_SslStreamBase_Read_m976084315
XWe:_DateTime_ToUniversalTime_m3350818433
Qob:__ZN15SerializeTraitsINSt3__26vectorIN9ShaderLab20SerializedSubProgram15MatrixParameterENS0_9allocatorIS4_EEEEE8TransferI24GenerateTypeTreeTransferEEvRS7_RT_
KHg:_Interpreter_TryMatch_m3502556744
_v:__ZN19StreamedBinaryWriteILb0EE8TransferIKN4math7_float3EEEvRT_PKc17TransferMetaFlags
wTb:__Z20SyncFenceCullResultsR11CullResults
Iza:__ZN15TextureTFMethod20IsBoneCountSupportedEi
soj:_MonoBehaviour_StartCoroutine_m1000992173
Z2e:_Decimal_op_Increment_m2941390814
Wcj:_CompositeExpression_IsComplex_m3343261481
zBb:__Z22TransferField_NonArrayI17RemapPPtrTransfer27Converter_SimpleNativeClassI8GUIStyleEEvRK23StaticTransferFieldInfoR31RuntimeSerializationCommandInfoRT0_
Sdc:__ZNK17AnimationCurveTplIfE20EvaluateWithoutCacheEfRf
s$d:__ZN6il2cpp2os6Thread12QueueUserAPCEPFvPvES2_
WWa:__ZN19ShaderPropertySheet10SetTextureERK23FastTexturePropertyNameP7Texture
MPh:_AssemblyName_OnDeserialization_m2071225424
klc:__ZN4Mesh10SetNormalsEPK8Vector3fj
$kg:_Comparison_1_BeginInvoke_m2562654969_gshared
bZc:__Z66Register_UnityEngine_Physics2D_INTERNAL_CALL_GetRayIntersectionAllv
$Hi:_Navigation_set_selectOnUp_m2791960899
Avg:_RecordProtocol_ReadRecordBuffer_m2650861266
At:__ZN17AnimationCurveTplIfE8TransferI14SafeBinaryReadEEvRT_
tzj:_NetFxCoreExtensions_GetMethodInfo_m71257014
z6b:__Z29StdTemplateConversionFunctionIybEbPvR14SafeBinaryRead
E5a:__ZNSt3__26vectorIN15QualitySettings14QualitySettingENS_9allocatorIS2_EEE6assignIPS2_EENS_9enable_ifIXaasr21__is_forward_iteratorIT_EE5valuesr16is_constructibleIS2_NS_15iterator_traitsIS9_E9referenceEEE5valueEvE4typeES9_S9_
UP:__ZN12AudioManager21FixMasterGroupRoutingEv
Ljg:_ReadOnlyCollection_1_System_Collections_IList_Remove_m1613939083_gshared
bRe:_BitArray_set_Item_m2411149642
TXi:_InternalEnumerator_1_get_Current_m3935747880_gshared
UXi:_InternalEnumerator_1_System_Collections_IEnumerator_get_Current_m3884117973_AdjustorThunk
lG:__ZN13dynamic_arrayIN8Animator11AnimatorJobELj8EE9push_backERKS1_
Ljj:_InvokableCallList_RemoveListener_m4015934933
RVe:_Decimal_u64_m1222052468
fnj:_Mathf_Sign_m2617545344
$wf:_X509Certificate_get_DSA_m1430044338
aqd:__ZNK12HeaderHelper3GetERKN4core12basic_stringIcNS0_20StringStorageDefaultIcEEEE
Neb:__ZN9InputAxis8TransferI14SafeBinaryReadEEvRT_
q8:__ZNK21ExecutionOrderManager30GetCustomAwakeFromLoadQueueForEPKN5Unity4TypeE
Apd:__Z27RegisterModule_UnityConnectv
pLd:__ZN6il2cpp2vm10Reflection27GetCustomAttributesCacheForEP25Il2CppReflectionParameter
ITh:_FieldBuilder_GetCustomAttributes_m345608382
hIf:_DirectoryInfo__ctor_m4018899899
j$e:_DateTime_ToString_m3516395174
UWc:__ZNK17Physics2DSettings22GetTypeVirtualInternalEv
lS:__ZN10ObjectPoolIN4FMOD12ChannelGroupENS0_13ChannelGroupIEE7SetSizeEi
qbc:__ZN9Polygon2D7SetPathEiRK13dynamic_arrayI8Vector2fLj4EE
tki:__Z77RuntimeInvoker_Void_t3431959231_RuntimeObject_RuntimeObject_Single_t209704323PFvvEPK10MethodInfoPvPS4_
FI:__ZN15SerializeTraitsINSt3__24pairI8StateKey10StateRangeEEE8TransferI14SafeBinaryReadEEvRS4_RT_
_Md:__ZN14dense_hash_mapI10KeyWrapperINSt3__24pairIPK9EventInfoP11Il2CppClassEEEj17ReflectionMapHashIS8_ENS9_14EqualsComparerINS1_8equal_toIS8_EEEENS1_9allocatorINS2_IKS9_jEEEEE15set_deleted_keyERSH_
Ryb:__Z14resize_trimmedINSt3__26vectorI17AnimationCurveTplIfE13stl_allocatorIS3_L18MemLabelIdentifier1ELi16EEEEEvRT_j
V2b:__ZN25CameraStackRenderingState19SetupLastEyeCamerasERK11CameraStack
BLa:__Z12GUIDToStringRK9UnityGUID
Zye:_Dropdown_DestroyDropdownList_m66017657
lO:__ZN11SoundHandleC2ERKS_
EB:__ZN17AnimationPlayableC2E18DirectorPlayerType
Cyd:__ZNK6il2cpp5utils11collections13ArrayValueMapIPK10Il2CppType17Il2CppInteropData26InteropDataToTypeConverterNS_8metadata14Il2CppTypeLessENS8_26Il2CppTypeEqualityComparerEE10find_firstERKS5_
yUa:__ZN15SerializeTraitsI12fixed_bitsetILi24EjEE8TransferI18StreamedBinaryReadILb0EEEEvRS1_RT_
sD:__ZN8Animator22OnGraphTopologyChangedEP8Playablei
Fz:__ZN17AnimationPlayable18DeallocateBindingsEv
C4b:__ZN6Camera25StandaloneRenderToCubemapEP7TextureiPFvPK9SceneNodePK4AABBR9IndexListPvESA_j
Dve:_CanvasUpdateRegistry_SortLayoutList_m2217890317
lKg:_MethodCall_InitMethodProperty_m2521357006
KWa:__ZN14RenderSettings18TransferDeprecatedI14SafeBinaryReadEEvRT_
EFi:_EqualityComparer_1__cctor_m121468466_gshared
aQi:_VertexHelper_Dispose_m3485824036
s4:__ZN12TLSAllocatorI14StackAllocatorE8AllocateEji
q9:__ZN16ScriptingManager18GetMonoScriptCacheEi
tKf:_MemoryStream_CalculateNewCapacity_m533424207
QIh:__ZL70InputField_t1180063600_CustomAttributesCacheGenerator_m_SelectionColorP21CustomAttributesCache
m_i:_InternalEnumerator_1_System_Collections_IEnumerator_get_Current_m667815192_gshared
vwa:__ZNSt3__227__insertion_sort_incompleteIR25ValueParameterArraySorterPN20GpuProgramParameters14ValueParameterEEEbT0_S6_T_
mxb:__Z18Transfer_BlittableI14SafeBinaryReadLb1EyEvRK29SerializationCommandArgumentsR31RuntimeSerializationCommandInfo
mmj:_Material_Internal_CreateWithMaterial_m3002926550
lDc:__ZN8JSONRead8TransferIfEEvRT_PKc17TransferMetaFlagsb
zPg:_SerializationCallbacks_GetSerializationCallbacks_m569068577
tqb:__ZN9ShaderLab7Program22ComputeSupportsShadowsEv
d9j:__ZNSt3__212basic_stringIcNS_11char_traitsIcEENS_9allocatorIcEEE6appendEPKcj
FEf:_Int32_System_IConvertible_ToSByte_m187263431_AdjustorThunk
oua:__ZN6prcoreL17RemapGenericFloatI18TexFormatARGBFloat17TexFormatRGBAHalfEEvPKNS_9InnerInfoE
JT:__ZN11AudioSource21ApplyCachedParametersE12SoundChannel
h4i:_GCHandle_Free_m3388917055
Kef:_Array_InternalArray__IndexOf_TisWebCamDevice_t2290386459_m3754536329_gshared
w_e:_CultureAwareComparer__ctor_m1631781767
w4f:_Enumerator_MoveNext_m182525633_AdjustorThunk
r3a:__ZN15SerializeTraitsI33EnlightenTerrainChunksInformationE8TransferI14SafeBinaryReadEEvRS0_RT_
ZRc:__ZN6b2Body12SetTransformERK6b2Vec2f
lgc:__ZNK32RendererMaterialAnimationBinding9BindValueER6ObjectRKN11UnityEngine9Animation14GenericBindingERNS3_10BoundCurveE
S$a:__Z13GetIAnimationv
xsa:__ZL18stbir__support_onef
O8e:_Array_InternalArray__ICollection_Contains_TisDouble_t2155864068_m3844554812_gshared
YEc:__Z26Transfer_UnityEngineObjectI9JSONWriteLb0EEvRK29SerializationCommandArgumentsR31RuntimeSerializationCommandInfo
l_a:__ZNSt3__26vectorIN4core12basic_stringIcNS1_20StringStorageDefaultIcEEEE13stl_allocatorIS5_L18MemLabelIdentifier1ELi16EEE6assignINS_11__wrap_iterIPS5_EEEENS_9enable_ifIXaasr21__is_forward_iteratorIT_EE5valuesr16is_constructibleIS5_NS_15iterator_traitsISF_E9referenceEEE5valueEvE4typeESF_SF_
Ped:__ZNSt3__27__sort5IRNS_6__lessIN2UI14DepthSortEntryES3_EEPS3_EEjT0_S7_S7_S7_S7_T_
i0c:_UNITY_FT_DivFix
PVc:__ZN17PolygonCollider2D12SetPolygon2DEP9Polygon2D
Da:invoke_vdd
rha:__ZN14dense_hash_mapIN4core12basic_stringIcNS0_20StringStorageDefaultIcEEEE13dynamic_arrayI4PPtrI6SpriteELj4EE20StringHash32FunctionIS4_ENSt3__28equal_toIS4_EE13stl_allocatorINSC_4pairIKS4_S9_EEL18MemLabelIdentifier81ELi16EEE15set_deleted_keyERSH_
N_g:_TimeSpan_op_GreaterThanOrEqual_m1777890247
Cec:__ZNK30SpriteRendererAnimationBinding12GetPPtrValueERKN11UnityEngine9Animation10BoundCurveE
ocd:__ZZ29InitializeTextRenderingModulevEN27cleanupAfterLoadRegistrator7ForwardEv
ewf:_SymmetricTransform_TransformFinalBlock_m3931296131
cB:__ZN27AnimationLayerMixerPlayable24ProcessAnimationLayerMixEP33AnimationPlayableEvaluationOutputP35AnimationPlayableEvaluationConstantP32AnimationPlayableEvaluationInputS1_if
n5i:_ChannelData_get_ServerProviders_m3322652766
G2b:__Z29PluginsIssueRenderingExtEvent26UnityRenderingExtEventTypePv
r$f:_List_1_get_Item_m394698291_gshared
mfc:__Z14RandomRotationP9Texture2DPhiiii
wkk:_emscripten_glLinkProgram__wrapper
RYe:_Convert_ToInt32_m72760516
btf:__ZN21InterfaceFuncInvoker5IiP22ByteU5BU5D_t1961095761iiS1_iE6InvokeEjP11Il2CppClassP12Il2CppObjectS1_iiS1_i
eCg:_WebHeaderCollection_AddWithoutValidate_m2199510617
yKe:_BitConverter_ToInt64_m3706170509
vj:_JS_WebRequest_SetResponseHandler
akk:_glDeleteProgram__wrapper
Iqc:__Z50Register_UnityEngine_Camera_INTERNAL_get_pixelRectv
Qoj:_MessageEvent__ctor_m739645906
mzg:_ListDictionary_get_Item_m1864465109
Gta:__ZN6prcoreL18BlitFloatToIntegerERK14ImageReferenceRS0_
bDe:_Image_UpdateMaterial_m3464033677
Jse:_RaycastResult_ToString_m3490729552_AdjustorThunk
H0:__ZN11UnityEngine15CloudWebService14RestDownloader17OnCompleteContentEv
WGd:__ZN15dense_hashtableINSt3__24pairIK10KeyWrapperINS1_IPK14Il2CppAssemblyP11Il2CppClassEEEjEES9_17ReflectionMapHashIS8_EN14dense_hash_mapIS9_jSD_NS9_14EqualsComparerINS0_8equal_toIS8_EEEENS0_9allocatorISB_EEE9SelectKeyESI_SK_E15insert_noresizeERKSB_
mYi:_InternalEnumerator_1_System_Collections_IEnumerator_get_Current_m3549448609_AdjustorThunk
Ta:invoke_viffi
_C:__ZN17AnimationPlayable28UpdateInternalStateRecursiveILi1ELb0EEEvPK35AnimationPlayableEvaluationConstant
Wa:invoke_vifff
Oik:_glGetVertexAttribiv__wrapper
Ze:_emscripten_request_fullscreen
VNb:__ZN20LocalFileSystemWebGL6DeleteER13FileEntryDatab
$e:_emscripten_glDisableVertexAttribArray
$2h:__Z93RuntimeInvoker_Void_t3431959231_RuntimeObject_Int32_t497012075_Int32_t497012075_RuntimeObjectPFvvEPK10MethodInfoPvPS4_
ln:FUNCTION_TABLE_iiiifiiii
sc:invoke_fifffi
aqa:__ZN4gles23ClearCurrentFramebufferEP7ApiGLESbbbRK10ColorRGBAffi
yB:__ZN7mecanim12statemachine20CreateStateWorkspaceEjjjRNS_6memory9AllocatorE
Gee:_RSACryptoServiceProvider_DecryptValue_m99848941
lf:_emscripten_glDeleteObjectARB
gg:_IMG_Load
ECj:_X509Extension_Equals_m1717008716
Rvg:_ReceiveRecordAsyncResult_get_IsCompleted_m1619934718
g9e:_Array_InternalArray__ICollection_Contains_TisMark_t193251893_m1046129270_gshared
Qwc:__Z53Register_UnityEngine_RenderTexture_Internal_GetHeightv
Hua:__ZN6prcoreL17RemapGenericFloatI17TexFormatRGBAHalf18TexFormatARGBFloatEEvPKNS_9InnerInfoE
wLg:_ReturnMessage_get_MethodSignature_m3765858692
Dge:_SymmetricAlgorithm_Create_m4108435859
AUc:__ZNSt3__27__sort4IRN18Overlap2DQueryBase29ColliderHitsByDepthComparitorEPP10Collider2DEEjT0_S7_S7_S7_T_
AAc:__Z14GetBuiltinSkini
vl:_JS_SystemInfo_GetBrowserVersionString
bsb:__ZN2UI13RectTransform23VirtualRedirectTransferER14SafeBinaryRead
nob:__ZNSt3__26vectorIN9ShaderLab20SerializedSubProgramENS_9allocatorIS2_EEE6assignIPS2_EENS_9enable_ifIXaasr21__is_forward_iteratorIT_EE5valuesr16is_constructibleIS2_NS_15iterator_traitsIS9_E9referenceEEE5valueEvE4typeES9_S9_
iHc:__Z18Transfer_BlittableI8JSONReadLb0E8BitFieldEvRK29SerializationCommandArgumentsR31RuntimeSerializationCommandInfo
QZe:_Convert_ToUInt16_m1532917275
jHb:__ZL17Transfer_GUIStyleI18StreamedBinaryReadILb1EELb0EEvRK29SerializationCommandArgumentsR31RuntimeSerializationCommandInfo
NHg:_Interpreter_GetLastDefined_m1699834297
xfi:__Z89RuntimeInvoker_Void_t3431959231_Int64_t2229785298_Int32_t497012075_RuntimeObject_IntPtr_tPFvvEPK10MethodInfoPvPS4_
RUg:_Encoding_InternalCodePage_m2476679222
tmb:__ZN9ShaderLab14SerializedPass8TransferI14SafeBinaryReadEEvRT_
sBc:__Z71Register_UnityEngine_GUILayoutUtility_INTERNAL_CALL_Internal_MoveWindowv
RW:__ZN12AudioManager16SetListenerPauseEb
SVc:__ZThn160_N17PolygonCollider2DD0Ev
Cfc:__Z22GenerateDitherTexturesv
HOc:__ZNSt3__26__sortIRN10ClipperLib12LocMinSorterEPNS1_12LocalMinimumEEEvT0_S6_T_
GRd:__ZN6il2cpp2vm9Exception25RaiseOutOfMemoryExceptionERKNS_5utils10StringViewIDsEE
Mrg:_TlsServerKeyExchange_verifySignature_m3105966924
f$j:_U3CCreateWhereIteratorU3Ec__Iterator1D_1_Dispose_m2507374234_gshared
IXh:_MethodBase_Invoke_m3098124752
ea:invoke_viiiiiiiiiii
E5j:___syscall_ret
DFd:__ZNSt3__212basic_stringIcNS_11char_traitsIcEENS_9allocatorIcEEE6assignINS_11__wrap_iterIPKcEEEENS_9enable_ifIXaasr21__is_forward_iteratorIT_EE5valuesr38__libcpp_string_gets_noexcept_iteratorISC_EE5valueERS5_E4typeESC_SC_
wkd:__Z56Register_UnityEngine_Analytics_CustomEventData_AddDoublev
J7a:__ZN11ChannelInfo8TransferI19StreamedBinaryWriteILb0EEEEvRT_
$Xh:_Module__cctor_m3835716421
Hhk:_emscripten_glLineWidth__wrapper
$Vb:__ZN14qsort_internal13Partition3WayIP17RODataReplacementi19ROSorterReplacementEENSt3__24pairIT_S6_EES6_S6_T0_T1_
Tpf:_SortKeyBuffer_AppendKana_m982034571
Trc:__Z34Register_UnityEngine_Gradient_Initv
eQe:_FixedSizeArrayListWrapper_Insert_m2958677785
E6a:__ZN13ScreenManager23SetIsOrientationEnabledE18EnabledOrientationb
EIi:_RawImage_set_texture_m2338787227
iB:__ZN7mecanim5human25HumanPoseAddOverrideLayerERNS0_9HumanPoseERKS1_fRKNS_6bitsetILj70EEE
Mdc:__ZN13ProduceHelperI9TransformLb0EE7ProduceE18MemLabelIdentifier18ObjectCreationMode
hKh:__ZL62Selectable_t3233757874_CustomAttributesCacheGenerator_m_ColorsP21CustomAttributesCache
Rde:_RIPEMD160Managed_CompressFinal_m2583035290
syc:__Z13RegisterClassI13WebCamTextureEvv
Xrf:_Kernel_AddSameSign_m2507441083
EMa:__ZN10GameObject23VirtualRedirectTransferER18StreamedBinaryReadILb0EE
S_d:__ZN6il2cpp2gc16GarbageCollector13AllocateFixedEjPv
bQj:_AesManaged_GenerateKey_m261548726
Eg:_glFrontFace
omg:_BigInteger_op_LeftShift_m40653940
$rj:_Rect_Contains_m260376057_AdjustorThunk
c3i:_ResourceInfo_t875479330_marshal_pinvoke_cleanup
wve:_CanvasUpdateRegistry_PerformUpdate_m205395203
nve:_CanvasScaler_SetReferencePixelsPerUnit_m162195906
Lcc:__ZN13ProduceHelperI19LowerResBlitTextureLb0EE7ProduceE18MemLabelIdentifier18ObjectCreationMode
Snh:__ZL94WebRequest_t374043321_CustomAttributesCacheGenerator_WebRequest_GetDefaultWebProxy_m2303729873P21CustomAttributesCache
h7h:__Z123RuntimeInvoker_Void_t3431959231_Int64_t2229785298_RuntimeObject_RuntimeObject_Int64_t2229785298_RuntimeObject_RuntimeObjectPFvvEPK10MethodInfoPvPS4_
m8e:_Array_get_swapper_TisCustomAttributeNamedArgument_t3990136598_m2054872696_gshared
d9g:__ZL63ReadOnlyCollection_1_t1398657119_CustomAttributesCacheGeneratorP21CustomAttributesCache
Dte:_TouchInputModule_ProcessTouchEvents_m704610304
xGf:_IntPtr_Equals_m2720298676
Xcd:__Z51Register_UnityEngine_TextGenerator_GetLinesInternalv
wyg:_TlsStream_Read_m777545506
_Fd:__ZNSt3__26vectorIN6il2cpp2vm17TypeNameParseInfoENS_9allocatorIS3_EEEC2ERKS6_
C0g:_UInt16_System_IConvertible_ToBoolean_m3987274542
spd:__ZN20UnityConnectSettings10InitializeEv
Lgj:_Camera_INTERNAL_get_pixelRect_m3172785892
tRc:__ZN16PhysicsManager2D12BeginContactEP9b2Contact
cO:__ZN9AudioClip11CreateSoundEv
Uwe:_ColorTween_TweenValue_m2561362029_AdjustorThunk
mNd:__ZN14dense_hash_mapI10KeyWrapperINSt3__24pairIPK9FieldInfoP11Il2CppClassEEEj17ReflectionMapHashIS8_ENS9_14EqualsComparerINS1_8equal_toIS8_EEEENS1_9allocatorINS2_IKS9_jEEEEEC2EjRKSB_RKSF_
OId:__ZNK15dense_hashtableINSt3__24pairIK10KeyWrapperINS1_IPK10MethodInfoP11Il2CppClassEEEjEES9_17ReflectionMapHashIS8_EN14dense_hash_mapIS9_jSD_NS9_14EqualsComparerINS0_8equal_toIS8_EEEENS0_9allocatorISB_EEE9SelectKeyESI_SK_E13find_positionERSA_
d9b:__Z10tesvertLeqP10TESSvertexS0_
tyj:_Vector3_get_magnitude_m444595022_AdjustorThunk
H_i:_InternalEnumerator_1_get_Current_m20705038_gshared
yma:__ZN13GfxDeviceGLES20CreateComputeProgramEPKhj
Iod:__ZN11UnityEngine7Connect16PersistentValues13RestoreValuesER8JSONRead
WJa:__ZN20ArchiveStorageReader31TryToReadDirectoryFromBlockDataEyPKvj
XTd:__ZN6il2cpp2vmL11GetIdentityEP14Il2CppIUnknown
m4d:_GC_push_gc_structures
Rvh:__ZL55RectTransform_t365540649_CustomAttributesCacheGeneratorP21CustomAttributesCache
mtj:_Vector2_Scale_m128775970
ACd:__ZN6il2cpp6icalls8mscorlib6SystemL8IsPublicEPK9EventInfo
czj:_Vector4_ToString_m2166138740_AdjustorThunk
$ik:_glUniform4iv__wrapper
w1d:__ZThn4_N6il2cpp2vm13ComObjectBase18ReleaseMarshalDataEP13Il2CppIStream
Ht:__ZNSt3__26vectorIN13AnimationClip10FloatCurveE13stl_allocatorIS2_L18MemLabelIdentifier26ELi16EEE6resizeEj
QAe:_Graphic_OnDidApplyAnimationProperties_m3569173187
XYc:__Z41Rigidbody2D_CUSTOM_INTERNAL_CALL_AddForceP12Il2CppObjectRK13Vector2fIcallN11Rigidbody2D9ForceModeE
y3j:_UnityAnalyticsHandler_SendCustomEventName_m194302509
nci:__Z95RuntimeInvoker_Void_t3431959231_RuntimeObject_RuntimeObject_SByte_t1872536467_SByte_t1872536467PFvvEPK10MethodInfoPvPS4_
aUe:_SyncHashtable_Clone_m307798900
VSe:_Hashtable_get_Values_m2173924446
ZIf:_ObjectDisposedException__ctor_m2782075743
a8a:__ZNSt3__213__stable_sortIRNS_4lessI4PPtrI11SpriteAtlasEEENS_11__wrap_iterIPS4_EEEEvT0_SA_T_NS_15iterator_traitsISA_E15difference_typeEPNSD_10value_typeEi
wyj:_Vector3_get_sqrMagnitude_m2557422321_AdjustorThunk
Nvi:_Transform_1_BeginInvoke_m3461185044_gshared
i5:__ZN8keywords6CreateEPKc
lFf:_Int32_GetTypeCode_m2384835561_AdjustorThunk
S:Math_imul
grj:_Ray_GetPoint_m2810287191
DCf:_Int16_CompareTo_m4081690752_AdjustorThunk
qIg:_InterpreterFactory_NewInstance_m1694675589
ecb:__ZN14SpriteRenderer15SetupPropertiesEv
$_e:_DateTime_System_IConvertible_ToInt16_m681122014_AdjustorThunk
S5a:__ZN11PlayerPrefs6GetIntERKN4core12basic_stringIcNS0_20StringStorageDefaultIcEEEEi
nxd:__ZN6il2cpp5utils13dynamic_arrayIPK10Il2CppTypeLj4EEC2ERKS5_
Fcd:__Z45TextGenerator_CUSTOM_INTERNAL_get_rectExtentsP12Il2CppObjectP5RectTIfE
dse:_PointerInputModule_StateForMouseButton_m1502485364
v8h:__Z47RuntimeInvoker_RuntimeObject_Double_t2155864068PFvvEPK10MethodInfoPvPS4_
kIa:__Z18ReadStringFromFilePN4core17string_with_labelILi1EEERKNS_12basic_stringIcNS_20StringStorageDefaultIcEEEE
W6:__ZN18ScriptingArguments9AddObjectE18ScriptingObjectPtr
Wgd:__Z39CanvasGroup_Get_Custom_PropInteractableP12Il2CppObject
TZ:__ZN11UnityEngine15CloudWebService16SessionContainerD2Ev
Tod:__ZL38InitializeUnityConnectScriptingClassesv
vqe:_ExecuteEvents_Execute_m3417931630
p3b:__ZN13ProbeRenderer8ConvolveEbijjb
qqa:__ZN17GenericDynamicVBOC2ER9GfxDevice13GfxBufferModejj
OUc:__Z28GetPhysics2DScriptingClassesv
Bzc:__ZZN10GUIManager14InitGUIManagerEvEN41PreUpdateIMGUISendQueuedEventsRegistrator7ForwardEv
hlj:_HeaderAttribute__ctor_m3039466787
k$:__ZN11UnityEngine15CloudWebService17SessionEventQueue10PurgeItemsEj
fNe:_Byte_ToString_m2575441108_AdjustorThunk
DGb:__Z18Transfer_BlittableI18StreamedBinaryReadILb1EELb1EtEvRK29SerializationCommandArgumentsR31RuntimeSerializationCommandInfo
Aab:__ZN12BoneWeights48TransferI19StreamedBinaryWriteILb0EEEEvRT_
Hka:__ZN9GfxDevice20DeallocRenderSurfaceEP17RenderSurfaceBase
yvf:_RSAManaged_GenerateKeyPair_m2529699912
pwa:__ZN20GpuProgramParameters36UpdatePrepareValuesMaximumBufferSizeEv
PNi:_Slider_OnEnable_m1723469984
Ktc:__Z53Register_UnityEngine_Quaternion_INTERNAL_CALL_Inversev
Poj:_MessageTypeSubscribers_get_MessageTypeId_m1611385958
PFe:_InputField_GenerateCaret_m4019934054
sOa:__ZN12BaseRenderer23RendererBecameInvisibleEv
$ri:_Comparer_1_System_Collections_IComparer_Compare_m1127460554_gshared
U_c:__ZN20TextRenderingPrivate8FontImpl13CharacterInfo8TransferI18StreamedBinaryReadILb0EEEEvRT_
SDb:__Z29Transfer_Blittable_ArrayFieldI24GenerateTypeTreeTransferfEvRT_R9ArrayInfoRK23StaticTransferFieldInfo
Rca:__ZNSt3__26__treeINS_12__value_typeIN4core12basic_stringIcNS2_20StringStorageDefaultIcEEEES6_EENS_19__map_value_compareIS6_S7_NS_4lessIS6_EELb1EEE13stl_allocatorIS7_L18MemLabelIdentifier13ELi16EEE7destroyEPNS_11__tree_nodeIS7_PvEE
j5b:__ZN19CustomRenderTexture9AddParentE4PPtrIS_E
G4a:__ZN8Gradient8TransferI14SafeBinaryReadEEvRT_
k_a:__ZNSt3__26vectorIN4core12basic_stringIcNS1_20StringStorageDefaultIcEEEE13stl_allocatorIS5_L18MemLabelIdentifier1ELi16EEE7reserveEj
DPh:_AssemblyName_InternalGetPublicKeyToken_m3010515278
NIh:__ZL71InputField_t1180063600_CustomAttributesCacheGenerator_m_OnValidateInputP21CustomAttributesCache
Mvj:_Texture_INTERNAL_get_texelSize_m180849746
$ij:_Display_RecreateDisplayList_m2415350176
cnj:_Mathf_CeilToInt_m3760747508
qSj:_Enumerator_CheckState_m52491566_gshared
g3d:_GC_new_free_list_inner
uGg:_X509Extension_CopyFrom_m2038942383
pfe:_SHA1Internal_Initialize_m2996731934
cRj:_EqualityComparer_1_System_Collections_IEqualityComparer_GetHashCode_m278679164_gshared
YHc:__ZN8JSONRead8TransferI10RectOffsetEEvRT_PKc17TransferMetaFlagsb
U_:__ZN9JSONWrite8TransferIN11UnityEngine15CloudWebService14DataErrorEvent15FileErrorDetailEEEvRT_PKc17TransferMetaFlags
Ofk:_emscripten_glColorPointer__wrapper
H7i:_ContextAttribute_GetPropertiesForNewContext_m4271511309
pif:_Array_InternalArray__set_Item_TisBoolean_t1367519524_m2027277820_gshared
fR:__ZN12SoundManager20RegisterModifiedClipEP10SampleClip
Dpf:_SimpleCollator_ToDashTypeValue_m804696790
CT:__ZN11AudioSource4PlayEd
jwd:__ZN15dense_hashtableI10KeyWrapperIPK17Il2CppGenericInstES4_N6il2cpp8metadata21Il2CppGenericInstHashEN14dense_hash_setIS4_S7_NS4_14EqualsComparerINS6_24Il2CppGenericInstCompareEEENSt3__29allocatorIS4_EEE8IdentityESB_SE_E13set_empty_keyERKS4_
oGg:_X509ChainStatus__ctor_m1898935717_AdjustorThunk
Wij:_Display_get_systemWidth_m2946915223
Xxj:_Vector2_op_Implicit_m686500940
z1a:__ZN7Cubemap23VirtualRedirectTransferER18StreamedBinaryReadILb0EE
pBi:_Dictionary_2_CopyToCheck_m4210769332_gshared
Htc:__ZNSt3__27__sort4IRNS_6__lessI11KeyframeTplIfES3_EEPS3_EEjT0_S7_S7_S7_T_
sad:_Read_CVT
hKa:__ZN12FileAccessor4SeekEx10FileOrigin
GCb:__ZL26Transfer_SimpleNativeClassI24GenerateTypeTreeTransfer17AnimationCurveTplIfELb0EEvRK29SerializationCommandArgumentsR31RuntimeSerializationCommandInfo
YIc:__ZN8JSONRead21TransferSTLStyleArrayI13dynamic_arrayI9BoundsIntLj4EEEEvRT_17TransferMetaFlags
B3a:__ZN24GenerateTypeTreeTransfer8TransferI13dynamic_arrayI33EnlightenTerrainChunksInformationLj4EEEEvRT_PKc17TransferMetaFlags
xQh:_CustomAttributeData_ToString_m272110690
Yqe:_PhysicsRaycaster_get_finalEventMask_m479099742
Uda:__ZN16LightmapSettings20DidChangeActiveSceneEP10UnitySceneS1_
VMh:__ZL59g_AssemblyU2DCSharp_Assembly_CustomAttributesCacheGeneratorP21CustomAttributesCache
lxc:__Z39Register_UnityEngine_Time_get_timeScalev
OCd:__ZN6il2cpp5utils9PathUtils8BasenameIcEENSt3__212basic_stringIT_NS3_11char_traitsIS5_EENS3_9allocatorIS5_EEEERKSA_
eBc:__Z35Register_UnityEngine_Event_get_typev
Frg:_HandshakeMessage_Process_m2383643987
SRd:__ZN6il2cpp2vm9Exception23GetInvalidCastExceptionERKNS_5utils10StringViewIDsEE
Zze:_Graphic_get_defaultGraphicMaterial_m2831332995
u0g:_TypedReference_Equals_m4227821140
Ydk:_emscripten_glDepthRange__wrapper
$C:__ZN8Animator28BuildControllerPlayableCacheEv
nhe:_X509Certificate_GetPublicKey_m1240146147
Nef:_Array_LastIndexOf_TisRuntimeObject_m1780941060_gshared
f8:__Z63ThreadAndSerializationSafeCheckGetMonoBehaviourBeingTransferredv
S5d:_GC_enable
hre:_PointerEventData_set_eligibleForClick_m3032480761
UJf:_WriteDelegate_Invoke_m1938587726
ltc:__Z37Register_UnityEngine_Input_GetAxisRawv
Y_g:_TimeZone_ToUniversalTime_m2824447171
gHj:_StaticProfile__ctor_m1660988579
Fre:_PointerEventData_get_pressPosition_m2902996450
zti:_Enumerator_System_Collections_IEnumerator_get_Current_m3286745265_gshared
yVb:__ZN12ImageFilters27SetSurfaceUseResolvedBufferEP13RenderTextureb
Cwf:_PKCS12_MAC_m2101185263
p8a:__ZN14Texture2DArray23VirtualRedirectTransferER18StreamedBinaryReadILb0EE
Urb:__ZN2UI13RectTransform13AwakeFromLoadE17AwakeFromLoadMode
qOf:_MonoCustomAttrs__cctor_m2987512451
z_b:__ZN14qsort_internal30FindAndMovePivotToLastPositionIP20ShadowCasterSortDatai26ShadowCasterSortDataSorterEEvT_S4_T0_T1_
Pwd:__ZNK15dense_hashtableI10KeyWrapperIPK19Il2CppGenericMethodES4_N6il2cpp8metadata23Il2CppGenericMethodHashEN14dense_hash_setIS4_S7_NS4_14EqualsComparerINS6_26Il2CppGenericMethodCompareEEENSt3__29allocatorIS4_EEE8IdentityESB_SE_E3endEv
ewb:__Z18Transfer_BlittableI14SafeBinaryReadLb1EiEvRK29SerializationCommandArgumentsR31RuntimeSerializationCommandInfo
Ydg:_ReadOnlyCollection_1_System_Collections_Generic_IListU3CTU3E_RemoveAt_m2478417765_gshared
Dkb:__ZN17PersistentManager13GetAllFileIDsERKN4core12basic_stringIcNS0_20StringStorageDefaultIcEEEER13dynamic_arrayIxLj8EE
CAf:_NotImplementedException__ctor_m4095549570
csj:_Rect_OrderMinMax_m253510905
Rk:_glGetStringi
$Of:_LongComparer_Compare_m2431744820
U9i:_PatternCompiler_EmitBalance_m2542679542
DHf:_DirectoryInfo_get_Parent_m629620424
CLj:_U3CStartU3Ec__Iterator0_Reset_m1257815770_gshared
z3b:__ZNK13RenderTexture32CalculateNeedsInvertedProjectionEv
c7i:_Context_get_HasDynamicSinks_m3746829439
IE:__ZN8Animator9WriteStepEy
Nee:_RSAParameters_t176179818_marshal_pinvoke_cleanup
G$:__ZN11UnityEngine15CloudWebService20WebRequestRestClient18GetResponseHeadersEv
cjc:__ZN16PropertyAccessorC2Ev
$5a:__ZNSt3__23mapIN4core12basic_stringIcNS1_20StringStorageDefaultIcEEEE9PrefValueNS_4lessIS5_EENS_9allocatorINS_4pairIKS5_S6_EEEEEixERSB_
Gic:__ZN15DirectorManager22ConstructPlayableGraphEv
Tnf:_Array_InternalArray__get_Item_TisVector2_t1132184324_m1310935873_gshared
Mcd:__Z38Register_UnityEngine_Font_HasCharacterv
JSi:_InternalEnumerator_1_get_Current_m1026757365_gshared
y2b:__Z35IntersectSpherePlaneBoundsOptimizedRKN4math7_float4EPS1_i
APi:_ToggleGroup_ValidateToggleIsInGroup_m2983488139
Ukc:__ZNK9Texture2D17CheckHasPixelDataEv
jQh:_Default_check_type_with_score_m3786605209
tda:__Z22CleanupLODGroupManagerPv
aBc:__Z21Event_CUSTOM_PopEventP12Il2CppObject
Lqf:_BigInteger__ctor_m2415679890
Bl:_glUniform3fv
Y8d:__ZNK6il2cpp8metadata24Il2CppGenericInstCompareclERK10KeyWrapperIPK17Il2CppGenericInstES8_
ohb:__ZNSt3__218__insertion_sort_3IRN15ResourceManager10Dependency6SorterEPS2_EEvT0_S6_T_
ybd:_UNITY_FT_Init_Class_tt_service_gx_multi_masters
yqe:_ExecuteEvents_Execute_m4233839462
hZb:__ZNK16LightmapSettings31GetRealtimeLightmapDecodeValuesEv
wS:__ZN5audio5mixer12SetSuspendedERNS0_16AudioMixerMemoryEb
ylb:__ZN17PersistentManager21UnloadNonDirtyStreamsEv
ISd:__ZN6il2cpp2vm13LivenessStateC2EP11Il2CppClassjPFvPP12Il2CppObjectiPvES7_PFvvESB_
bUb:__ZN12ImageFilters4BlitER17ShaderPassContextP7TextureP13RenderTextureiPK18SharedMaterialDataPKcP6ShaderiNS_9BlitFlagsE11CubemapFaceRK8Vector2fSH_
u$:__ZN11UnityEngine15CloudWebService10RestClientINS0_23WebRequestRestHeaderMapEED2Ev
b3g:_UInt64_Parse_m1765433452
Yl:_emscripten_glDepthMask
sPi:_ToggleEvent__ctor_m1329640621
Bra:__ZN4crnd25static_huffman_data_model22prepare_decoder_tablesEv
$zc:__Z23GUIStatePopDisplayIndexv
l4:__ZL22CleanupUnityWebStreamsPv
Zda:__Znaj
Akk:_emscripten_glEnableClientState__wrapper
c6:__ZN17MessageIdentifierC2EPKcNS_7OptionsEPKN5Unity4TypeES1_
aRf:_Object_GetHashCode_m2151719110
Axe:_DefaultControls_SetDefaultColorTransitionValues_m3309692528
rke:_Single_System_IConvertible_ToSingle_m3958191669
Kak:dynCall_viiifiii
GY:__Z55Register_UnityEngine_AudioSource_get_spatializeInternalv
Y7a:__ZN15dense_hashtableINSt3__24pairIKN4core12basic_stringIcNS2_20StringStorageDefaultIcEEEE13dynamic_arrayI4PPtrI6SpriteELj4EEEES6_20StringHash32FunctionIS6_EN14dense_hash_mapIS6_SC_SF_NS0_8equal_toIS6_EE13stl_allocatorISD_L18MemLabelIdentifier81ELi16EEE9SelectKeyESI_SL_E12resize_deltaEjj
GGa:__ZN14SafeBinaryRead8TransferI14ConstantStringEEvRT_PKc17TransferMetaFlags
Vna:__ZNK6Camera16GetStereoEnabledEv
DYf:_List_1__ctor_m3976501435_gshared
wt:__ZN13AnimationClip9PPtrCurveaSERKS0_
Ofc:__ZN12LightManager15InitializeClassEv
OPa:__ZN9ShaderLab11shaderprops16GetComputeBufferEPK19ShaderPropertySheetS3_NS_16FastPropertyNameE
i7:__ZN18ScriptingArgumentsC2Ev
pnf:_Array_InternalArray__get_Item_TisLabelFixup_t1745572545_m47529816_gshared
caf:_Array_InternalArray__ICollection_Remove_TisILTokenInfo_t1114482274_m1445829670_gshared
M2h:__Z82RuntimeInvoker_RuntimeObject_Int64_t2229785298_Int64_t2229785298_Int64_t2229785298PFvvEPK10MethodInfoPvPS4_
VNe:_Char_Equals_m573940800
Vfk:_emscripten_glBlendFuncSeparate__wrapper
Coa:__Z17HasSampledTexture14GraphicsFormat13formatSupport
$Ub:__ZNK25CameraStackRenderingState27GetStereoImageEffectTextureEb
mAd:__ZN6il2cpp6icalls6System6System3Net7Sockets6Socket7ReceiveEiP11Il2CppArrayiiNS4_11SocketFlagsEPi
rmc:__ZN13BuildSettings13GetSceneIndexERKN4core12basic_stringIcNS0_20StringStorageDefaultIcEEEE
Uo:FUNCTION_TABLE_ii
gOa:__ZN10TagManager8TransferI18StreamedBinaryReadILb0EEEEvRT_
yEc:__Z18Transfer_BlittableI9JSONWriteLb0E8BitFieldEvRK29SerializationCommandArgumentsR31RuntimeSerializationCommandInfo
_Nd:__ZNK15dense_hashtableINSt3__24pairIK10KeyWrapperINS1_IP11Il2CppClassjEEES4_EES6_N6il2cpp8metadata14ArrayClassHashEN14dense_hash_mapIS6_S4_SB_NS6_14EqualsComparerINSA_17ArrayClassCompareEEENS0_9allocatorIS8_EEE9SelectKeyESF_SH_E10test_emptyEj
KAh:__ZL54AudioSource_t1299949758_CustomAttributesCacheGeneratorP21CustomAttributesCache
yb:invoke_diiii
ekc:__ZNK6Sprite15GenerateOutlineEfhbRNSt3__26vectorI13dynamic_arrayI8Vector2fLj4EENS0_9allocatorIS4_EEEEi
gZi:_InternalEnumerator_1_System_Collections_IEnumerator_get_Current_m2527701887_gshared
GLa:__Z24CreateDirectoryRecursiveRKN4core12basic_stringIcNS_20StringStorageDefaultIcEEEE
OHi:_MaskableGraphic_RecalculateMasking_m1671355411
jpb:__ZN9ShaderLab20SerializedSubProgram8TransferI18StreamedBinaryReadILb0EEEEvRT_
o9f:_Collection_1_Insert_m2736644852_gshared
NQi:_ArrayReadOnlyList_1_Contains_m3102298678_gshared
rdd:__ZN2UI13CanvasManager9AddCanvasEPNS_6CanvasE
h9a:__ZN9Texture3D8TransferI19StreamedBinaryWriteILb0EEEEvRT_
DVb:__ZNK6Camera22CalculateRenderingPathEv
lek:b42
SFc:__ZN9JSONWrite8TransferI5RectTIfEEEvRT_PKc17TransferMetaFlags
fDg:_X509BasicConstraintsExtension_Decode_m2731803770
Pti:_Enumerator_MoveNext_m959555715_AdjustorThunk
qG:__ZN11UnityEngine9Animation37SetGenericRootTransformPropertyValuesERKNS0_30AnimatorGenericBindingConstantERKN7mecanim10ValueArrayER9Transformbb
Rxa:__Z13ConvertMipmap14GraphicsFormatPKvS_Pviiii
mBb:__ZL12InvokeMethodI17RemapPPtrTransferEvRK29SerializationCommandArgumentsR31RuntimeSerializationCommandInfo
Jyg:_HybridDictionary__ctor_m1428994126
Zjj:_PersistentCallGroup__ctor_m1074591670
wek:b49
d4c:_tt_sbit_decoder_load_image
PMe:_Byte_CompareTo_m910930979_AdjustorThunk
d8f:_Collection_1_IsSynchronized_m3810725531_gshared
Vzc:__ZNSt3__24listIN10GUIManager12SortedScriptE11memory_poolIS2_EE6__sortI13OldSortScriptEENS_15__list_iteratorIS2_PvEESA_SA_jRT_
cBe:_GraphicRaycaster_get_sortOrderPriority_m1241870297
Wmf:_Array_InternalArray__get_Item_TisDictionaryEntry_t790271503_m49497350_gshared
rwg:_SslClientStream__ctor_m3187748519
Tmd:__ZN18UnityConnectClient12CloseServiceEv
Zu:__ZN13AnimationClip8TransferI17RemapPPtrTransferEEvRT_
DIe:_Array_GetValue_m3648936394
UQd:__ZN6il2cpp6icalls8mscorlib6System9ThreadingL11ThreadStartEPv
ISe:_Hashtable__ctor_m4266988179
Sfa:__ZN15DirectorManager12OnSampleTimeEv
A4a:__ZN15dense_hashtableINSt3__24pairIKiiEEi21InstanceIDHashFunctorN14dense_hash_mapIiiS4_NS0_8equal_toIiEE13stl_allocatorIS3_L18MemLabelIdentifier67ELi16EEE9SelectKeyES7_SA_E12resize_deltaEjj
kye:_Dropdown_set_captionImage_m2627491731
vEa:__ZN12CachedReader10Align4ReadEv
IRc:__ZN15b2WorldManifold10InitializeEPK10b2ManifoldRK11b2TransformfS5_f
yt:__Z14resize_trimmedINSt3__26vectorIN13AnimationClip10FloatCurveE13stl_allocatorIS3_L18MemLabelIdentifier26ELi16EEEEEvRT_j
sdh:__ZL71ComDefaultInterfaceAttribute_t1354630745_CustomAttributesCacheGeneratorP21CustomAttributesCache
gFa:__ZNK9Behaviour22GetTypeVirtualInternalEv
PTj:_AudioExtensionManager_AddSpatializerExtension_m3774643505
ZHf:_MonoIO_CreateDirectory_m3025603164
AMh:__ZL100IVertexModifier_t888488034_CustomAttributesCacheGenerator_IVertexModifier_ModifyVertices_m3338567323P21CustomAttributesCache
j3b:__Z21GetScriptingArraySize17ScriptingArrayPtr
r_c:__ZN20TextRenderingPrivate8FontImpl8TransferI14SafeBinaryReadEEvRT_
TFi:_EqualityComparer_1__cctor_m216136233_gshared
mgf:_Array_InternalArray__ICollection_CopyTo_TisKeyValuePair_2_t1581640713_m1748489395_gshared
OQf:_NumberFormatter_NumberToString_m842430324
_fe:_SHA512Managed_processWord_m155416940
q5h:__Z128RuntimeInvoker_Void_t3431959231_IntPtr_t_Int32_t497012075_SByte_t1872536467_Int32_t497012075_SByte_t1872536467_SByte_t1872536467PFvvEPK10MethodInfoPvPS4_
mag:_Collection_1_IsFixedSize_m1911043230_gshared
Dla:__ZN9GfxDevice17ImmediateTexCoordEifff
AFe:_InputField_LineUpCharacterPosition_m3119437183
spj:_Plane_ToString_m588332526
kPc:__ZN10ClipperLib7Clipper13AppendPolygonEPNS_5TEdgeES2_
WMj:_Event_get_isMouse_m881319748
tNf:_UnmanagedMemoryStream_get_Position_m643227840
Grj:_Rect_get_yMax_m1753491385
hNf:_UnexceptionalStreamReader_ReadLine_m1661635387
PBb:__Z35Transfer_Blittable_FixedBufferFieldI24GenerateTypeTreeTransferhEvRK29SerializationCommandArgumentsR31RuntimeSerializationCommandInfo
T9i:_PatternCompiler_EmitLink_m2195929138
Ndk:_emscripten_glUniform4f__wrapper
j$i:_InternalEnumerator_1_get_Current_m586300970_gshared
NOa:__ZNK6Camera16GetProjectionFarEv
ir:__Z24InverseTransformRotationRK23TransformAccessReadOnlyRKN4math7_float4E
cKi:_Scrollbar_OnBeginDrag_m256229322
vT:__ZN11AudioSource6UpdateEv
E8f:_Collection_1_InsertItem_m3923470304_gshared
Opd:__Z31GetPerformanceReportingSettingsv
_$a:__ZNK14PlayableOutput11DerivesFromE17ScriptingClassPtr
m1a:__ZN7Texture34CreateFileTextureUploadInstructionE18TextureUploadFlagsj
fza:__ZN13ComputeShader14SetBufferParamEjRKN9ShaderLab16FastPropertyNameE15ComputeBufferID
fMe:_Byte_System_IConvertible_ToChar_m1165417774
qff:_Array_InternalArray__ICollection_Add_TisIntPtr_t_m1025052909_gshared
CH:__ZN8Animator8TransferI14SafeBinaryReadEEvRT_
uLc:__ZNK14b2CapsuleShape5CloneEP16b2BlockAllocator
Px:__ZN17AnimationPlayable34CollectAnimatorControllerPlayablesER13dynamic_arrayIP26AnimatorControllerPlayableLj4EE
dge:_SHA512Managed_HashFinal_m647257754
JW:__ZN16BaseVideoTexture19UpdateVideoTexturesEv
aVa:__Z28BuildSingleStreamChannelInfo17ShaderChannelMaskRK20VertexChannelsLayoutS_S2_P11ChannelInfo
UQa:__ZNK16LightmapSettings23HasLightProbeTetrahedraEv
L6a:__ZN6Sprite23VirtualRedirectTransferER19StreamedBinaryWriteILb0EE
pxc:__Z38Transform_CUSTOM_INTERNAL_set_positionP12Il2CppObjectRK8Vector3f
RHd:__ZNK15dense_hashtableINSt3__24pairIK10KeyWrapperINS1_IPK9FieldInfoP11Il2CppClassEEEjEES9_17ReflectionMapHashIS8_EN14dense_hash_mapIS9_jSD_NS9_14EqualsComparerINS0_8equal_toIS8_EEEENS0_9allocatorISB_EEE9SelectKeyESI_SK_E5beginEv
u$d:__ZN6il2cpp2os6Thread15CurrentThreadIdEv
wF:__ZN15SerializeTraitsIN4math4trsXEE8TransferI8BlobSizeEEvRS1_RT_
lpa:__ZN14DataBufferGLES11CopySubDataEPKS_jjj
pe:_emscripten_glVertexPointer
pDa:__ZNSt3__26__treeI20DeviceDepthStateGLES11memcmp_lessIS1_S1_ENS_9allocatorIS1_EEE7destroyEPNS_11__tree_nodeIS1_PvEE
yfd:__ZN2UI13PrepareOutputERNS_7BatchesEjjNS_30AdditionalCanvasShaderChannelsE
hvi:_Transform_1_BeginInvoke_m125064444_gshared
d$b:__Z17GetFrustumPortionPK8Vector3fffPS_
tTd:__ZN15dense_hashtableINSt3__24pairIK10KeyWrapperIP14Il2CppIUnknownEjEES5_N6il2cpp5utils11PointerHashIS3_EEN14dense_hash_mapIS5_jSB_NS5_14EqualsComparerINS0_8equal_toIS4_EEEENS0_9allocatorIS7_EEE9SelectKeyESG_SI_E14squash_deletedEv
uoj:_MonoBehaviour_StopCoroutine_m2352943821
uCi:_Dictionary_2_U3CCopyToU3Em__0_m891512733_gshared
zja:__ZNK9GfxDevice27GetPlatformAdjustedViewportEv
Zqj:_RangeAttribute__ctor_m1080704147
K4h:__Z64RuntimeInvoker_Double_t2155864068_RuntimeObject_Int32_t497012075PFvvEPK10MethodInfoPvPS4_
MYe:_Convert_ToInt32_m1497253183
gjc:__ZN16StreamedResource8TransferI24GenerateTypeTreeTransferEEvRT_
oNc:__ZN11b2GearJoint4DumpEv
wVi:_InternalEnumerator_1_System_Collections_IEnumerator_get_Current_m2318607246_gshared
uHe:_LayoutRebuilder_Initialize_m418310384
dAa:__ZN10Matrix3x3f15InvertTransposeEv
Nbe:_HMAC_set_Key_m1161369583
y9b:__ZL21ConnectLeftDegenerateP14TESStesselatorP12ActiveRegionP10TESSvertex
PSb:__Z11IsBatchmodev
V3f:_List_1_RemoveAt_m1204275475_gshared
Ozb:__Z29Transfer_Blittable_ArrayFieldI14SafeBinaryRead8Vector3fEvRT_R9ArrayInfoRK23StaticTransferFieldInfo
dFf:_Int32_ToString_m3077962028
g$c:__ZN20TextRenderingPrivate8FontImpl18ResetCachedTextureEv
lfj:_LowMemoryCallback_Invoke_m4247184188
UJe:_Swapper_BeginInvoke_m887429456
Fxg:_SslStreamBase_get_ServerCertificate_m3144856319
bpf:_MSCompatUnicodeTable_Level2_m1072805474
cNc:__ZNK12b2WheelJoint10GetAnchorBEv
Yyj:_Vector4_op_Subtraction_m3852795677
fcj:_Assertion_GetWidth_m1145608344
dqc:__Z53Register_UnityEngine_Behaviour_get_isActiveAndEnabledv
hQf:_MulticastDelegate_KPM_m1527339201
Hq:__ZNSt3__26vectorIN4core12basic_stringIcNS1_20StringStorageDefaultIcEEEENS_9allocatorIS5_EEE8__appendEj
kEd:_il2cpp_gc_collect
Egb:__ZN26PlayerSettingsSplashScreen8TransferI17RemapPPtrTransferEEvRT_
KBd:__ZN6il2cpp6icalls8mscorlib6SystemL17CollectTypeFieldsINS_5utils10functional10TrueFilterEEEvP11Il2CppClassPKS7_iRNSt3__26vectorIP9FieldInfoNSB_9allocatorISE_EEEERKT_
wvf:_RSAManaged_remove_KeyGenerated_m877814236
Yac:__Z13GetTagManagerv
Yzj:_SubjectAltNameExtension_ToString_m1318876782
DZ:__ZN11UnityEngine15CloudWebService17CloudJobSchedulerD0Ev
Tib:__ZN18LoadSceneOperation7PerformEv
Rdd:__ZNK2UI11CanvasGroup22GetTypeVirtualInternalEv
c1f:_List_1_RemoveAt_m1083047446_gshared
iPc:__ZN10ClipperLib7Clipper14IntersectEdgesEPNS_5TEdgeES2_RNS_8IntPointE
nAc:__Z21CleanupGlobalGUIStatev
cJb:__Z18Transfer_BlittableI18StreamedBinaryReadILb0EELb1EN4math12int3_storageEEvRK29SerializationCommandArgumentsR31RuntimeSerializationCommandInfo
Nkc:__ZNSt3__26vectorI14SubstanceInputNS_9allocatorIS1_EEE6assignIPS1_EENS_9enable_ifIXaasr21__is_forward_iteratorIT_EE5valuesr16is_constructibleIS1_NS_15iterator_traitsIS8_E9referenceEEE5valueEvE4typeES8_S8_
NBa:__ZN22VertexDeclarationCache5ClearEv
Rae:_DSACryptoServiceProvider__ctor_m2832136166
f6b:__ZN17PersistentManager12SetPathRemapERKN4core12basic_stringIcNS0_20StringStorageDefaultIcEEEES6_
tA:__Z27ProcessRootMotionEmptyMixerP35AnimationPlayableEvaluationConstantP32AnimationPlayableEvaluationInputP33AnimationPlayableEvaluationOutput
j1h:__Z63RuntimeInvoker_RuntimeObject_Int32_t497012075_Int16_t1836794551PFvvEPK10MethodInfoPvPS4_
J0b:__ZN6Camera24PrepareCullingParametersERK23CameraCullingParameters13RenderingPathR11CullResults
Wgf:_Array_InternalArray__ICollection_CopyTo_TisPlayableBinding_t1137603368_m1249088035_gshared
bmc:__Z12SetIUISystemP9IUISystem
ejb:__ZN19RuntimeSceneManager22EndIntegrateMainThreadEP10UnitySceneNS_11LoadingModeE
OMe:_Byte_CompareTo_m910930979
oBb:__Z26Transfer_UnityEngineObjectI17RemapPPtrTransferLb0EEvRK29SerializationCommandArgumentsR31RuntimeSerializationCommandInfo
eng:_ASN1Convert_ToOid_m412273643
yig:_ReadOnlyCollection_1_System_Collections_ICollection_CopyTo_m1923001958_gshared
JDb:__Z29Transfer_Blittable_ArrayFieldI24GenerateTypeTreeTransfer4AABBEvRT_R9ArrayInfoRK23StaticTransferFieldInfo
S4d:_GC_adj_bytes_allocd
hHj:_TelevisionProfile__ctor_m1160321974
BNc:__ZN13b2PulleyJoint24SolveVelocityConstraintsERK12b2SolverData
gAj:_PKCS12_Decrypt_m1093428812
Q$h:__Z70RuntimeInvoker_Boolean_t1367519524_Int16_t1836794551_SByte_t1872536467PFvvEPK10MethodInfoPvPS4_
bdb:__ZN13MonoBehaviour10FindMethodEPKc
Ea:invoke_fiiifii
X6j:_modff
nXa:__ZN20SphericalHarmonicsL219AddDirectionalLightERKN4math7_float3ERKNS0_7_float4E
AMi:_Selectable_set_colors_m1059866064
Jfa:__Z26ScheduleJobForEachInternalR8JobFencePFvPvjES1_iPFvS1_E11JobPriority
ASb:__ZZ23InitPlayerLoopCallbacksvEN41PostLateUpdateProfilerEndFrameRegistrator7ForwardEv
Dmc:__ZN9Scripting18RaiseMonoExceptionEPKcz
t2a:__ZN9Texture2D8TransferI19StreamedBinaryWriteILb0EEEEvRT_
Vni:__Z67RuntimeInvoker_Void_t3431959231_Int32_t497012075_Double_t2155864068PFvvEPK10MethodInfoPvPS4_
VBg:_ServicePointManager__cctor_m765897306
mgc:__ZN9ShaderLab16FastPropertyName15InitBy28BitHashEj
o1e:_DBNull__cctor_m728154550
XWh:_TypeBuilder_IsAssignableFrom_m1057016540
edg:_Collection_1_IsSynchronized_m3061552495_gshared
tdc:__ZN13ProduceHelperIN2UI13RectTransformELb0EE7ProduceE18MemLabelIdentifier18ObjectCreationMode
N9a:__ZN17PackedFloatVector12UnpackFloatsEPfiiii
hgf:_Array_InternalArray__ICollection_CopyTo_TisLink_t321403524_m732567416_gshared
xD:__ZN17AnimationPlayable28UpdateInternalStateRecursiveILi3ELb0EEEvPK35AnimationPlayableEvaluationConstant
zma:__ZN13GfxDeviceGLES21DestroyComputeProgramER12ObjectHandleI18ComputeProgram_TagPvE
qUj:_DelegatePInvokeWrapper_AudioConfigurationChangeHandler_t1062738401
HLg:_RemotingServices_IsTransparentProxy_m851510363
hQd:__ZN6il2cpp6icalls8mscorlib6System5Array12SetValueImplEP11Il2CppArrayP12Il2CppObjecti
xda:__ZN17UniqueIDGenerator16DestroyPureIndexEj
baa:__ZL21AppendNestedClassName17ScriptingClassPtrRN4core17string_with_labelILi1EEE
Vmb:__ZN14SafeBinaryRead21TransferSTLStyleArrayINSt3__26vectorIN9ShaderLab20SerializedSubProgram12UAVParameterENS1_9allocatorIS5_EEEEEEvRT_17TransferMetaFlags
M_:__ZN24TextDOMTransferWriteBaseI9JSONWriteE12PushMetaFlagEi
BM:__ZN8Animator8SetFloatEif
ime:_String_LastIndexOfAny_m3324838235
_ua:__ZN6prcoreL26RemapGenericIntegerToFloatI17TexFormatARGB888815TexFormatRFloatEEvPKNS_9InnerInfoE
Swc:__Z60Register_UnityEngine_RenderTexture_Internal_SetSRGBReadWritev
SFd:__ZN6il2cpp2vm17TypeNameParseInfoD2Ev
FQ:__ZN4FMOD7Channel7setModeEj
g4a:__ZNK8Renderer8GetLayerEv
rCf:_Int16_System_IConvertible_ToSByte_m2215832160_AdjustorThunk
vTa:__ZN12FlareManager11DeleteFlareEi
lXb:__ZNK6Camera20GetReplacementShaderEv
wfk:_glProgramBinary__wrapper
U7d:__ZNSt3__26__treeINS_12__value_typeINS_12basic_stringIcNS_11char_traitsIcEENS_9allocatorIcEEEEPFvvEEENS_19__map_value_compareIS7_SA_NS_4lessIS7_EELb1EEENS5_ISA_EEE4findIS7_EENS_15__tree_iteratorISA_PNS_11__tree_nodeISA_PvEEiEERKT_
hnb:__ZNSt3__26vectorIN9ShaderLab20SerializedSubProgram14ConstantBufferENS_9allocatorIS3_EEE7reserveEj
nsa:__ZL23stbir__calculate_memoryP11stbir__info
oAe:_Graphic_CacheCanvas_m979684790
K:Math_tan
yJi:_Selectable__ctor_m2586495167
LGh:__ZL59PhysicsRaycaster_t1980233035_CustomAttributesCacheGeneratorP21CustomAttributesCache
oLj:_IndexedSet_1_get_Count_m4260564165_gshared
e7i:_Context_GetClientContextSinkChain_m3394160699
oUb:__ZNK6Camera18GetRenderRectangleEv
DVg:_StringBuilder_Append_m2977267299
TBf:_Guid_ToString_m1029683893_AdjustorThunk
nKg:_MethodCall_get_LogicalCallContext_m3228504655
W7a:__ZN13sorted_vectorIN4core12basic_stringIcNS0_20StringStorageDefaultIcEEEENSt3__24lessIS4_EE13stl_allocatorIS4_L18MemLabelIdentifier81ELi16EEE4findIS4_EENS5_11__wrap_iterIPS4_EERKT_
AFf:_Int64_System_IConvertible_ToInt32_m1662985203
mre:_PointerEventData_set_clickTime_m1298604667
rHc:__ZL26Transfer_SimpleNativeClassI8JSONRead10RectOffsetLb1EEvRK29SerializationCommandArgumentsR31RuntimeSerializationCommandInfo
chd:__Z44CanvasRenderer_CUSTOM_INTERNAL_CALL_SetColorP12Il2CppObjectRK10ColorRGBAf
swg:_SslClientStream__ctor_m3983438079
Rlc:__ZN12InputManager9GetAnyKeyEv
aZe:_Convert_ToInt64_m544562861
mbk:dynCall_fiiifii
gEc:__Z18Transfer_BlittableI9JSONWriteLb1EsEvRK29SerializationCommandArgumentsR31RuntimeSerializationCommandInfo
aPc:__ZN10ClipperLib8JoinHorzEPNS_5OutPtES1_S1_S1_NS_8IntPointEb
zkd:__Z48UnityAnalyticsHandler_CUSTOM_SendCustomEventNameP12Il2CppObjectP12Il2CppString
qnc:__ZN9Transform16SetLocalRotationERK11Quaternionf
hKe:_Attribute_GetCustomAttribute_m3806490219
iTb:__ZN13RenderManager37RenderCamerasWithScriptableRenderLoopEi
hLj:_IndexedSet_1_AddUnique_m3215176955_gshared
UGf:_InvalidOperationException__ctor_m559493195
y5:__ZN23InstancedPropInfoStaticL16RegisterCallbackEPv
FF:__ZN7mecanim8skeleton25SkeletonPoseComputeLocalQEPKNS0_8SkeletonEPKNS0_13SkeletonPoseTIN4math4trsXEEEPS7_ii
iqf:_SimpleCollator_LastIndexOfOrdinalIgnoreCase_m3011885066
yXd:__ZN6il2cpp2os19ReleaseSocketHandleEj
$$g:_Type_IsValueTypeImpl_m617537416
ZV:__ZN11AudioModule16GetDSPSampleRateEv
u7h:__Z88RuntimeInvoker_Void_t3431959231_RuntimeObject_RuntimeObject_StreamingContext_t1941487469PFvvEPK10MethodInfoPvPS4_
gak:___cxa_can_catch
nSf:_KeyValuePair_2_ToString_m3632330246_gshared
B6i:_LifetimeServices_set_LeaseManagerPollTime_m2776587964
FYd:__ZN6il2cpp2os5posix15PosixWaitObjectC2ENS2_4TypeE
xVb:__ZN6Camera21PostMultiCustomRenderENS_10RenderFlagEb
yFg:_X509Certificate2Enumerator_System_Collections_IEnumerator_Reset_m2416527947
Nya:__ZN12_GLOBAL__N_112UploadImagesEP7ApiGLESjji14GraphicsFormatPKhjS2_iiii16TextureUsageModePh
mQb:__ZN23ShaderVariantCollection13WarmupShadersEv
kCf:_Int16_System_IConvertible_ToInt16_m2021547170
Kze:_FontData_set_richText_m818449548
I9:__Z25GetCommonScriptingClassesv
Ijb:__Z27scripting_gc_collect_unsafei
cW:__ZN11AudioModule20SuspendVideoTexturesEv
q7i:_Context_SwitchToContext_m392864064
fsi:_Enumerator_System_Collections_IEnumerator_get_Current_m1071429448_AdjustorThunk
_yf:_ApplicationException__ctor_m138022313
sY:__Z59Register_UnityEngine_AudioExtensionManager_GetAudioListenerv
Yxc:__Z45Register_UnityEngine_Transform_get_childCountv
bPi:_Text_UpdateGeometry_m4203530892
nfi:__Z67RuntimeInvoker_Void_t3431959231_Vector3_t831627742_Int32_t497012075PFvvEPK10MethodInfoPvPS4_
T1j:_Physics2D_Raycast_m3520000979
_ng:_MD4Managed_Padding_m124920813
S1c:_UNITY_FT_GlyphLoader_CheckPoints
GLh:__ZL54LayoutGroup_t3052677397_CustomAttributesCacheGeneratorP21CustomAttributesCache
rTa:__ZN15SharedLightData7PrecalcEv
eae:__ZNK6il2cpp8metadata22Il2CppGenericClassHashclEPK18Il2CppGenericClass
jnj:_Mathf_Approximately_m2537940732
yGb:__Z35Transfer_Blittable_FixedBufferFieldI18StreamedBinaryReadILb1EEsEvRK29SerializationCommandArgumentsR31RuntimeSerializationCommandInfo
vAj:_PKCS12_GetExistingParameters_m2613084051
IJa:__ZN15ArchiveReadFileD0Ev
CQg:_SerializationInfoEnumerator_Reset_m4073236615
emd:__ZN11UnityEngine15PlatformWrapper18GetOperatingSystemEv
Edi:__Z128RuntimeInvoker_RuntimeObject_RuntimeObject_SByte_t1872536467_SByte_t1872536467_SByte_t1872536467_SByte_t1872536467_RuntimeObjectPFvvEPK10MethodInfoPvPS4_
Vwj:_Transform_INTERNAL_set_localScale_m3196993481
Qse:_StandaloneInputModule_get_inputActionsPerSecond_m374739426
KUg:_Encoding_get_UTF8Unmarked_m3099102897
yWe:_DateTime_ParseExact_m2270273692
H1c:_FT_MSB
aik:_emscripten_glReadPixels__wrapper
YOd:__ZN15dense_hashtableINSt3__24pairIK10KeyWrapperINS1_IP11Il2CppClassjEEES4_EES6_N6il2cpp8metadata14ArrayClassHashEN14dense_hash_mapIS6_S4_SB_NS6_14EqualsComparerINSA_17ArrayClassCompareEEENS0_9allocatorIS8_EEE9SelectKeyESF_SH_E3endEv
o8d:__ZN6il2cpp6icalls8mscorlib4Mono8Security12Cryptography18KeyPairPersistence10_CanSecureEP12Il2CppString
LEe:_InputField_set_selectionAnchorPosition_m3019717266
EYi:_InternalEnumerator_1_System_Collections_IEnumerator_get_Current_m3416049132_gshared
udj:_Parser_IsIgnoreCase_m1037246937
gFd:__ZN6il2cpp2os4File11GetFileStatERKNSt3__212basic_stringIcNS2_11char_traitsIcEENS2_9allocatorIcEEEEPNS0_8FileStatEPi
Zhf:_Array_InternalArray__Insert_TisContactPoint2D_t3889213458_m2242814455_gshared
Uia:__ZN13GfxDeviceGLES14SetRasterStateEPK17DeviceRasterState
jrj:_Ray_ToString_m2768692410
LDa:__ZN14SafeBinaryRead11EndTransferEv
ksf:_SequentialSearchPrimeGeneratorBase_GenerateSearchBase_m1544079256
Pxb:__ZN14SafeBinaryRead8TransferI8MonoPPtrEEvRT_PKc17TransferMetaFlags
fuf:_SmallXmlParser_Parse_m895426083
oMg:_SerializationInfoEnumerator_get_Value_m951370737
Nza:__ZN21UniformBufferTFMethod13MapBoneBufferEj
Tif:_Array_InternalArray__set_Item_TisResourceInfo_t875479330_m3964933574_gshared
F9i:_PatternCompiler_EmitTrue_m3307009693
wQd:__ZNSt3__26vectorIcNS_9allocatorIcEEEC2Ej
Pkc:__ZN13RenderTexture15SetAntiAliasingEi
eOg:_WellKnownServiceTypeEntry__ctor_m1855320895
jtc:__Z40Register_UnityEngine_Input_GetKeyDownIntv
jB:__ZN7mecanim5human14HumanPoseClearERNS0_9HumanPoseERKNS_6bitsetILj70EEE
teh:__ZL102ChannelServices_t4172997341_CustomAttributesCacheGenerator_ChannelServices_RegisterChannel_m4014352160P21CustomAttributesCache
uaa:__ZN14SerializedFileD2Ev
WAc:__Z30Event_Get_Custom_PropModifiersP12Il2CppObject
iFf:_Int32_ToString_m2107612443
ey:__ZN7mecanim9animation16CreateClipOutputEPKNS0_4ClipERNS_6memory9AllocatorE
Wqf:_BigInteger_Randomize_m116391403
mLb:__ZNSt3__218__stable_sort_moveIRN10vector_mapI17ScriptingClassPtrPKN5Unity4TypeENS_4lessIS2_EENS_9allocatorINS_4pairIS2_S6_EEEEE13value_compareENS_11__wrap_iterIPSB_EEEEvT0_SJ_T_NS_15iterator_traitsISJ_E15difference_typeEPNSM_10value_typeE
Plb:__ZN6Shader21AwakeFromLoadThreadedEv
BOg:_FormatterConverter_ToInt64_m989594809
aua:__ZN6prcoreL17RemapGenericFloatI17TexFormatRGBFloat17TexFormatRGBAHalfEEvPKNS_9InnerInfoE
Iwj:_Transform_get_forward_m138673936
x9d:__ZN6il2cpp2os9SemaphoreC2Eii
OOi:_Text_get_alignByGeometry_m3972404684
Rxb:__ZNSt3__26vectorI8MonoPPtr13stl_allocatorIS1_L18MemLabelIdentifier1ELi16EEE8__appendEj
mlg:_BigInteger__ctor_m3668089360
bWb:__ZN14qsort_internal30FindAndMovePivotToLastPositionIP17RODataReplacementi19ROSorterReplacementEEvT_S4_T0_T1_
Yza:__ZN15UniformTFMethod20IsBoneCountSupportedEi
Dwd:__ZN14dense_hash_setI10KeyWrapperIPK19Il2CppGenericMethodEN6il2cpp8metadata23Il2CppGenericMethodHashENS4_14EqualsComparerINS6_26Il2CppGenericMethodCompareEEENSt3__29allocatorIS4_EEEC2EjRKS7_RKSA_
tbk:dynCall_viidi
dRj:_EqualityComparer_1_System_Collections_IEqualityComparer_Equals_m2798343158_gshared
u7:__ZN24ScriptingMethodFiltering17FilterOnSignatureENS_18MethodSearchFilterE
tGg:_X509Extension__ctor_m2463287678
zRc:__ZThn4_N16PhysicsManager2D12BeginContactEP9b2Contact
I5b:__ZN18ScreenManagerWebGL13SetLockCursorE14CursorLockMode
m8c:_cf2_arrstack_finalize
Yie:_WindowsIdentity__ctor_m158562700
NMg:_ProviderData_CopyFrom_m2831092040
edc:__ZN13MonoBehaviour19HandleNotificationsEPviR11MessageData
bae:__ZN6il2cpp2os9EventImpl5ResetEv
ane:_String_CreateString_m2061915787
zQg:_SerializationInfo_GetInt64_m1202921383
Ybk:dynCall_vid
Vek:b58
Wek:b59
mTb:__ZN25CameraStackRenderingState18EndStereoRenderingEv
Gqf:_PreviousInfo__ctor_m1548912909_AdjustorThunk
Eek:b53
Bek:b50
Cek:b51
Uek:b57
Fek:b54
_7g:__ZL52Exception_t1401167022_CustomAttributesCacheGeneratorP21CustomAttributesCache
VVf:_List_1_System_Collections_IList_Insert_m4143790476_gshared
Yii:__Z154RuntimeInvoker_Vector2_t1132184324_BoundsU26_t3786836824_BoundsU26_t3786836824_SByte_t1872536467_SByte_t1872536467_Int32_t497012075_Vector2U26_t1828543388PFvvEPK10MethodInfoPvPS4_
q6e:_ExecutionEngineException__ctor_m2918931916
bJg:_CostDelegate_Invoke_m3450996883
Fhc:__ZN10GameObject12CleanupClassEv
jAj:_DeriveBytes_set_Salt_m133637071
BQg:_SerializationInfoEnumerator_System_Collections_IEnumerator_get_Current_m2924970378
Ija:__ZN9GfxDevice25SetShaderPropertiesSharedERK19ShaderPropertySheet
PIg:_Interval_Contains_m1322008981_AdjustorThunk
zac:__ZN19SpriteMeshGenerator4path9clip_edgeEi
Xgc:__ZL25InitializeDefaultMaterialv
Chd:__Z53Register_UnityEngine_CanvasRenderer_get_materialCountv
O3:__GLOBAL__sub_I_runtime_graphics_lod_0_cpp
rHe:_U3CDelayedSetDirtyU3Ec__Iterator0_Reset_m766953810
OHa:__ZN17PersistentManager12UnloadStreamERKN4core12basic_stringIcNS0_20StringStorageDefaultIcEEEEb
wei:__Z86RuntimeInvoker_Single_t209704323_Single_t209704323_Single_t209704323_Single_t209704323PFvvEPK10MethodInfoPvPS4_
JK:__ZN15SerializeTraitsI9OffsetPtrIN7mecanim9animation17BlendTreeConstantEEE8TransferI19StreamedBinaryWriteILb0EEEEvRS4_RT_
WVc:__ZN19CompositeCollider2D22SimplifyCompositePathsERKNSt3__26vectorINS1_IN10ClipperLib8IntPointENS0_9allocatorIS3_EEEENS4_IS6_EEEERS8_
e6a:__ZN13ScreenManager17RequestResolutionEiibi
kSh:_DerivedType_MakeGenericType_m314256469
vEd:_il2cpp_unity_liveness_calculation_from_statics
v1f:_List_1_System_Collections_IList_IndexOf_m4240009381_gshared
OB:__ZNK26AnimatorControllerPlayable11DerivesFromE17ScriptingClassPtr
S4a:__ZN8Renderer8TransferI17RemapPPtrTransferEEvRT_
Bje:_String_IndexOf_m754487162
ewi:_Transform_1_Invoke_m777561214_gshared
ASj:_Enumerator_CheckState_m52491566_AdjustorThunk
JFf:_Int64_System_IConvertible_ToType_m2414245848_AdjustorThunk
Pfe:_SHA384Managed_HashFinal_m3866654214
Ode:_RIPEMD160Managed_ProcessBlock_m557840276
Vyf:_AppDomainInitializer_Invoke_m528854423
hWj:__ZL24UnresolvedVirtualCall_71P12Il2CppObjectS0_S0_iS0_S0_S0_PK10MethodInfo
KWc:__ZN16PhysicsManager2D19AddRigidbodyUpdatesEP11Rigidbody2D
lOj:_GUIStyle_get_name_m3633220171
J3b:__Z24LookRotationToQuaternionRK8Vector3fS1_P11Quaternionf
H3b:__ZN16ReflectionProbes9GetCameraEv
OBf:_Guid_BaseToString_m2320618531
e8e:_CultureInfo_GetCultureInfo_m260958838
fgd:__ZN2UI6Canvas17SetSortingLayerIDEi
CYd:__ZN6il2cpp2vm11MethodStack23CleanupForCurrentThreadEv
AAj:_X509CertificateEnumerator_MoveNext_m1956736691
nUa:__ZN20TierGraphicsSettings8TransferI24GenerateTypeTreeTransferEEvRT_
Kxd:__ZN15dense_hashtableINSt3__24pairIK10KeyWrapperIN6il2cpp5utils13dynamic_arrayIPK10Il2CppTypeLj4EEEEPFvvEEESA_NS3_8metadata19Il2CppSignatureHashEN14dense_hash_mapISA_SD_SG_NSA_14EqualsComparerINSF_22Il2CppSignatureCompareEEENS0_9allocatorISE_EEE9SelectKeyESK_SM_E16reset_thresholdsEv
Bzb:__ZN14SafeBinaryRead21TransferSTLStyleArrayI13dynamic_arrayI4AABBLj4EEEEvRT_17TransferMetaFlags
I_a:__ZN18UnityPropertySheet8TransferI19StreamedBinaryWriteILb0EEEEvRT_
oif:_Array_InternalArray__set_Item_TisClientCertificateType_t1274654507_m2610847262_gshared
Bga:__ZNSt3__26__treeINS_12__value_typeIiN11TypeManager18TypeCallbackStructEEENS_19__map_value_compareIiS4_NS_4lessIiEELb1EEENS_9allocatorIS4_EEE7destroyEPNS_11__tree_nodeIS4_PvEE
MEg:_X509Chain_FindCrl_m561118949
RPc:__ZN16PhysicsManager2D42RegisterTransformChangeInterestForColliderEP10Collider2D
Yic:__ZNK14PlayableOutput23GetSourcePlayableUnsafeEv
Wna:__ZL19GetCameraTargetRectRK6Camerabb
eld:__ZN11UnityEngine7Connect17XRDeviceInfoEventD0Ev
big:_ReadOnlyCollection_1_System_Collections_IList_Remove_m2301919821_gshared
bNa:__ZN13dynamic_arrayIN10GameObject13ComponentPairELj4EE6insertEPS1_RKS1_
tFf:_Int64_System_IConvertible_ToDateTime_m193689225_AdjustorThunk
Y1:__ZN21UnityDefaultAllocatorI17LowLevelAllocatorE10DeallocateEPv
bu:__ZN15PackedIntVector8TransferI14SafeBinaryReadEEvRT_
YHe:_Array_System_Collections_IList_set_Item_m2824934918
_Ne:_Char_GetHashCode_m1905987505
fzg:_ListDictionary_AddImpl_m1301008734
Tvg:_ReceiveRecordAsyncResult_get_CompletedWithError_m878336828
vgf:_Array_InternalArray__ICollection_CopyTo_TisInt64_t2229785298_m3494596689_gshared
iP:__ZN13AudioListener8DoUpdateEv
xDj:_EnemyScript__ctor_m532066436
yCc:__ZN5Unity9rapidjson13GenericReaderINS0_4UTF8IcEES3_13JSONAllocatorE9ParseTrueILj1ENS0_25GenericInsituStringStreamIS3_EENS0_15GenericDocumentIS3_S4_S4_EEEEvRT0_RT1_
TVe:__Z13bankers_roundd
tgb:__ZN14SafeBinaryRead8TransferI5RectTIfEEEvRT_PKc17TransferMetaFlags
Ei:_emscripten_glGenFramebuffers
wga:__ZN17BaseObjectManager16StaticInitializeEPv
DXh:_MemberInfoSerializationHolder_GetRealObject_m908563269
Rxe:_Graphic_RegisterDirtyVerticesCallback_m878013989
FUe:_SortedList_ContainsKey_m3554441846
y0a:__ZN12CubemapArray23VirtualRedirectTransferER14SafeBinaryRead
iy:__ZN21AnimationClipPlayable16ProcessHumanPassEPK35AnimationPlayableEvaluationConstantPK32AnimationPlayableEvaluationInputP33AnimationPlayableEvaluationOutput
D4j:_AnalyticsTracker_OnEnable_m798479952
ing:_ARC4Managed_Finalize_m182535254
T8e:_Array_InternalArray__ICollection_Contains_TisRuntimeObject_m2735572943_gshared
JIh:__ZL75InputField_t1180063600_CustomAttributesCacheGenerator_m_CharacterValidationP21CustomAttributesCache
Huc:__Z43RectTransform_CUSTOM_INTERNAL_set_sizeDeltaP12Il2CppObjectRK13Vector2fIcall
LUd:__ZN15dense_hashtableINSt3__24pairIK10KeyWrapperINS1_IPKcS4_EEEiEES6_24NamespaceAndNamePairHashN14dense_hash_mapIS6_iS9_NS6_14EqualsComparerI26NamespaceAndNamePairEqualsEENS0_9allocatorIS8_EEE9SelectKeyESD_SF_E6insertERKS8_
BFa:__ZN24GenerateTypeTreeTransfer18BeginArrayTransferEPKcS1_Ri17TransferMetaFlags
cra:__Z16DecompressCrunchPKhRjR13TextureFormatiiii18MemLabelIdentifier
hHg:_FactoryCache__ctor_m3565396008
Cm:___syscall51
Gm:___syscall54
k3i:_ResourceSet_Dispose_m907474542
jrb:__ZN9ShaderLab9SubShader19CreateFromSubShaderERKS0_
AH:__ZNK8Animator20IsAnyRendererVisibleEv
zhe:_String_Format_m3079567026
FVd:__ZN6il2cpp2vm5Image21GetCachedResourceDataEPK11Il2CppImageRKNSt3__212basic_stringIcNS5_11char_traitsIcEENS5_9allocatorIcEEEE
lhe:_X509Certificate_GetIssuerName_m1531663294
ywb:__Z18Transfer_BlittableI14SafeBinaryReadLb0E10ColorRGBAfEvRK29SerializationCommandArgumentsR31RuntimeSerializationCommandInfo
Ba:invoke_iiiiiiiiii
kIf:_FileSystemInfo__ctor_m3563048212
O1e:_Decimal__ctor_m3685246944_AdjustorThunk
LX:__ZN11AudioSource25GetNumExtensionPropertiesEv
$Pf:_MonoType_get_ContainsGenericParameters_m2535839655
LDf:_NumberFormatter_RemoveTrailingZeros_m273506927
Eef:_Array_InternalArray__IndexOf_TisUILineInfo_t233092741_m2824364009_gshared
Xgi:__Z110RuntimeInvoker_Void_t3431959231_RuntimeObject_RuntimeObject_Int32_t497012075_Int32_t497012075_Int32_t497012075PFvvEPK10MethodInfoPvPS4_
Uib:__ZN18LoadSceneOperation19IntegrateTimeSlicedEi
P7b:__ZN10FileSystem19SetCurrentDirectoryERKN4core12basic_stringIcNS0_20StringStorageDefaultIcEEEE
caa:__ZN16ScriptingManager24NotifyScriptCacheReleaseEi
Xpc:__Z47Register_UnityEngine_Coroutine_ReleaseCoroutinev
U9g:__ZL53StackTrace_t1712091150_CustomAttributesCacheGeneratorP21CustomAttributesCache
VP:__ZN15AudioReverbZone13SetFMODValuesEv
lHf:_BinaryReader_ReadByte_m1281854435
D6:__ZL19StaticDestroyShaderPv
ke:_glRenderbufferStorageMultisample
WVh:_OpCode_Equals_m2454270957_AdjustorThunk
WC:__ZN23AnimationPlayableOutput17SetTargetAnimatorEP8Animator
jGc:__ZN9JSONWrite8TransferI13dynamic_arrayIN4math12int3_storageELj4EEEEvRT_PKc17TransferMetaFlags
sYb:__ZN22MotionVectorRenderLoopD2Ev
Gse:_RaycastResult_get_isValid_m3650914734_AdjustorThunk
HPf:_MonoType_ReorderParamArrayArguments_m1084697173
Bv:__ZN17PackedFloatVector8TransferI18StreamedBinaryReadILb0EEEEvRT_
G8j:__ZNSt3__26__sortIRNS_6__lessIiiEEPiEEvT0_S5_T_
A1a:__ZN7Cubemap23VirtualRedirectTransferER17RemapPPtrTransfer
ksc:__Z37Register_UnityEngine_Screen_get_widthv
Wjc:__ZN22BlockMemoryCacheWriter11GetPathNameEv
xnc:__ZN23TransformChangeDispatch38CheckAndClearChangedForMultipleSystemsEyP19ProfilerInformation
wyf:_ActivationContext_Dispose_m1561919714
xJi:_ScrollEvent__ctor_m3895086848
FKh:__ZL74SpriteState_t1563742202_CustomAttributesCacheGenerator_m_HighlightedSpriteP21CustomAttributesCache
Azf:_GregorianCalendar_GetDayOfMonth_m1677261522
tCj:_X509Crl_GetCrlEntry_m2990859831
pye:_Dropdown_set_options_m3055264118
zp:stackAlloc
$Nj:_GUIStyle_INTERNAL_CALL_GetRectOffsetPtr_m2513048127
tqc:__Z44Camera_CUSTOM_INTERNAL_CALL_ScreenPointToRayP12Il2CppObjectRK8Vector3fR3Ray
TKa:__ZN25SingleBlockMemoryFileData4LockEPPv
gjk:_glProgramParameteri__wrapper
ikc:__ZN15dense_hashtableINSt3__24pairIK12TriangleEdgeiEES2_16TriangleEdgeHashN14dense_hash_mapIS2_iS5_NS0_8equal_toIS2_EENS0_9allocatorIS4_EEE9SelectKeyES8_SA_E12resize_deltaEjj
vsc:__Z32RectOffset_Get_Custom_PropBottomP12Il2CppObject
oVi:_InternalEnumerator_1_System_Collections_IEnumerator_get_Current_m3208019345_AdjustorThunk
Tyb:__ZNSt3__26vectorI17AnimationCurveTplIfE13stl_allocatorIS2_L18MemLabelIdentifier1ELi16EEE6assignINS_11__wrap_iterIPS2_EEEENS_9enable_ifIXaasr21__is_forward_iteratorIT_EE5valuesr16is_constructibleIS2_NS_15iterator_traitsISC_E9referenceEEE5valueEvE4typeESC_SC_
Ygj:_Camera_get_allCamerasCount_m2198753440
$Pa:__ZN9ShaderLab10SubProgram7CompileEv
kOc:__ZN15b2DistanceJoint23InitVelocityConstraintsERK12b2SolverData
dai:__Z80RuntimeInvoker_Int32_t497012075_RuntimeObject_Int32_t497012075_Int16_t1836794551PFvvEPK10MethodInfoPvPS4_
wQb:__ZNSt3__218__insertion_sort_3IRNS_4lessIN22BuiltinResourceManager8ResourceEEEPS3_EEvT0_S7_T_
ma:invoke_iiiiiiiiiiii
y8e:_Array_InternalArray__ICollection_Contains_TisClientCertificateType_t1274654507_m1136329710_gshared
WDe:_InputField_get_caretWidth_m3679398761
Wkj:_Gradient_Init_m2298603676
JS:__ZN10AudioMixer12RebindOutputEv
wOd:__ZNK15dense_hashtableINSt3__24pairIK10KeyWrapperIP11Il2CppClassES4_EES5_N6il2cpp8metadata16SZArrayClassHashEN14dense_hash_mapIS5_S4_SA_NS5_14EqualsComparerINS9_19SZArrayClassCompareEEENS0_9allocatorIS7_EEE9SelectKeyESE_SG_E5beginEv
Xde:_RIPEMD160Managed_JJ_m4282040606
otd:__ZN6il2cpp2vm17SetupFieldsLockedEP11Il2CppClassRKNS_2os12FastAutoLockE
kT:__ZN11AudioSourceD0Ev
Wub:__ZN16MemoryFileSystem4NameEv
EWh:_TypeBuilder_create_generic_class_m3310097553
ryc:__Z13SetCopyBufferRKN4core12basic_stringIcNS_20StringStorageDefaultIcEEEE
xKf:_MemoryStream_Write_m3503118942
F0c:_UNITY_FT_New_Size
moc:__Z42ScriptingGetComponentsOfTypeFromGameObjectRK26ScriptingGetComponentsArgs
Ctf:_DSAManaged_CreateSignature_m2507590384
x4f:_Enumerator_get_Current_m2421053162_AdjustorThunk
eif:_Array_InternalArray__Insert_TisContentType_t3903349743_m3145817594_gshared
d$a:__ZNSt3__27__sort4IRPFbRKNS_4pairIN9ShaderLab16FastPropertyNameEN18UnityPropertySheet11UnityTexEnvEEES8_EPS6_EEjT0_SD_SD_SD_T_
i8c:_cf2_hintmap_build
c6c:_Line_Up
ERg:_SByte_System_IConvertible_ToUInt32_m2041806297
axg:_SslHandshakeHash_Initialize_m4050431720
wue:_BaseMeshEffect_get_graphic_m2398307027
re:_emscripten_glBufferSubData
JCg:_AsnEncodedData_CopyFrom_m1480691967
Gkj:_GameObject__ctor_m1890306313
Tui:_ShimEnumerator_get_Value_m510391706_gshared
UXg:_ExecutionContext__ctor_m2205804757
cta:__ZN6prcoreL12RemapGenericI15TexFormatRGB88817TexFormatARGB8888EEvPKNS_9InnerInfoE
pq:__Z17CalculateGlobalRS23TransformAccessReadOnly
R6d:__ZNSt3__210__list_impIPN6il2cpp5utils10MemoryPool6RegionENS_9allocatorIS5_EEE5clearEv
Mog:_PrivateKeyInfo_DecodeDSA_m3328780322
Ftj:_Texture__ctor_m3932044458
Aqa:__ZN17GenericDynamicVBO17DrawChunkInternalERK21DynamicVBOChunkHandle17ShaderChannelMaskS3_P17VertexDeclarationP16DrawBuffersRangeij
xzb:__ZN14SafeBinaryRead21TransferSTLStyleArrayI13dynamic_arrayI9BoundsIntLj4EEEEvRT_17TransferMetaFlags
Clb:__ZN22MemoryCacherReadBlocks14LockCacheBlockEjPPhS1_
nUb:__ZNK9GfxDevice26GetSinglePassStereoEyeMaskEv
_0d:__ZN4utf88internal15increase_safelyIPKcEENS0_9utf_errorERT_S5_
E$c:__ZN20TextRenderingPrivate8FontImpl16CacheFontForTextEPtiifjPK13dynamic_arrayINS_16TextFormatChangeELj4EE
sEg:_X509ChainElementEnumerator_get_Current_m339611812
HGi:_LayoutUtility_GetLayoutProperty_m2864917424
Qae:__Z21ArrayElementTypeCheckP11Il2CppArrayPv
XQc:__ZN17PhysicsMaterial2D16CheckConsistencyEv
b9j:__ZNSt3__212basic_stringIcNS_11char_traitsIcEENS_9allocatorIcEEE6appendEjc
WXc:__ZN16PhysicsManager2D20WorldContactFilter2D13ShouldCollideEP9b2FixtureS2_
Gwh:__ZL73RuntimePlatform_t1265094592_CustomAttributesCacheGenerator_MetroPlayerARMP21CustomAttributesCache
Iid:__Z42Register_UnityEngine_Canvas_get_rootCanvasv
vuc:__Z27Random_Get_Custom_PropValuev
Yee:_RSAPKCS1SignatureFormatter_CreateSignature_m2062106583
Dif:_Array_InternalArray__set_Item_TisDecimal_t407386666_m1619928223_gshared
Oxb:__Z14resize_trimmedINSt3__26vectorI8MonoPPtr13stl_allocatorIS2_L18MemLabelIdentifier1ELi16EEEEEvRT_j
h6e:_Exception__ctor_m1182740778
af:_TTF_RenderText_Solid
lNg:_RemotingServices_CreateWellKnownServerIdentity_m702625562
Kga:__ZN15dense_hashtableINSt3__24pairIKPKcPK4RTTIEES3_N11TypeManager23ConstCharPtrHashFunctorEN14dense_hash_mapIS3_S7_SA_NS9_19ConstCharPtrEqualToE13stl_allocatorIS8_L18MemLabelIdentifier7ELi16EEE9SelectKeyESC_SF_E15insert_noresizeERKS8_
zwf:_PKCS12__ctor_m2501499652
Bff:_Array_InternalArray__ICollection_Add_TisResourceInfo_t875479330_m4132871280_gshared
I3j:_CustomEventData_AddUInt16_m3740451964
kpd:__ZN11UnityEngine7Connect16PersistentValuesC2Ev
r2g:_UInt32_ToString_m263584017_AdjustorThunk
sEc:__Z18Transfer_BlittableI9JSONWriteLb0E5RectTIiEEvRK29SerializationCommandArgumentsR31RuntimeSerializationCommandInfo
csd:__ZL7log2_32j
fxa:__Z15IsIEEE754Format14GraphicsFormat
tBb:__Z19TransferField_ArrayI17RemapPPtrTransfer27Converter_UnityEngineObjectEvRK23StaticTransferFieldInfoR31RuntimeSerializationCommandInfoRT0_
Rgb:__ZN19StreamedBinaryWriteILb0EE8TransferI13dynamic_arrayI16SplashScreenLogoLj4EEEEvRT_PKc17TransferMetaFlags
JZb:__ZN19ShaderPropertySheet24SetTextureFromTextureRefERK23FastTexturePropertyNamePK10TextureRef
Xka:__ZN13GfxDeviceGLES15UploadTexture2DE9TextureID16TextureDimensionPKhiii14GraphicsFormati18TextureUploadFlags16TextureUsageMode
Nri:__Z76RuntimeInvoker_RuntimeObject_UIVertex_t651853193_RuntimeObject_RuntimeObjectPFvvEPK10MethodInfoPvPS4_
SSg:_DES_set_Key_m2852477284
MR:__ZN4FMOD6System9createDSPEP20FMOD_DSP_DESCRIPTIONPPNS_3DSPE
sC:__ZN7mecanim9animation26DestroyControllerWorkspaceEPNS0_19ControllerWorkspaceERNS_6memory9AllocatorE
PN:__ZN4FMOD8ChannelI11EndCallbackEv
zAc:__ZN8GUIStyle14SetDefaultFontEPN13TextRendering4FontE
y5a:__ZN15QualitySettings23VirtualRedirectTransferER24GenerateTypeTreeTransfer
iEj:_Hitstop_Stop_m4188818665
lne:_StringComparer_Compare_m2382290689
kSj:_GenericEqualityComparer_1_Equals_m1730684599_gshared
nre:_PointerEventData_set_clickCount_m3316494602
f8e:_CultureInfo_CreateCulture_m2010370741
ZI:__ZN14SafeBinaryRead21TransferSTLStyleArrayI22OffsetPtrArrayTransferI9OffsetPtrIN7mecanim12statemachine17ConditionConstantEEEEEvRT_17TransferMetaFlags
$vd:__ZN30dense_hashtable_const_iteratorINSt3__24pairIK10KeyWrapperIPK19Il2CppGenericMethodEPK26Il2CppGenericMethodIndicesEES6_N6il2cpp8metadata23Il2CppGenericMethodHashEN14dense_hash_mapIS6_SA_SE_NS6_14EqualsComparerINSD_26Il2CppGenericMethodCompareEEENS0_9allocatorISB_EEE9SelectKeyESI_SK_EppEv
z$b:__Z31ResolveDepthIntoTextureIfNeededR9GfxDeviceR10RenderLoop17DepthBufferFormatRP13RenderTextureP9TextureIDPb
cCi:_Dictionary_2_InitArrays_m3080116713_gshared
h0c:_UNITY_FT_Request_Metrics
jTd:__ZN6il2cpp6icalls8mscorlib6System10Reflection10MonoMethod29get_IsGenericMethodDefinitionEP22Il2CppReflectionMethod
QPd:__ZN6il2cpp2vm6Thread21AllocThreadStaticDataEi
EPg:_SerializationCallbacks_GetMethodsByAttribute_m3708650913
lo:FUNCTION_TABLE_difi
X$d:__ZN30dense_hashtable_const_iteratorINSt3__24pairIK10KeyWrapperIPK19Il2CppGenericMethodEP10MethodInfoEES6_N6il2cpp8metadata23Il2CppGenericMethodHashEN14dense_hash_mapIS6_S9_SD_NS6_14EqualsComparerINSC_26Il2CppGenericMethodCompareEEENS0_9allocatorISA_EEE9SelectKeyESH_SJ_EppEv
jbf:_SetPropertyUtility_SetStruct_TisNavigation_t2003855052_m1306172179_gshared
TW:__Z13RegisterClassI13AudioListenerEvv
Y2f:_List_1_RemoveAt_m3829555362_gshared
RDc:__Z18Transfer_BlittableI9JSONWriteLb0E8Vector3fEvRK29SerializationCommandArgumentsR31RuntimeSerializationCommandInfo
ag:_emscripten_glUniform4i
mf:_emscripten_glUniform4f
Kj:___unlock
CIa:__ZN15dense_hashtableINSt3__24pairIKN4core12basic_stringIcNS2_20StringStorageDefaultIcEEEEP20ArchiveStorageReaderEES6_20StringHash32FunctionIS6_EN14dense_hash_mapIS6_S9_SC_NS0_8equal_toIS6_EE13stl_allocatorISA_L18MemLabelIdentifier55ELi16EEE9SelectKeyESF_SI_ED2Ev
h6b:__ZN13sorted_vectorINSt3__24pairIN4core12basic_stringIcNS2_20StringStorageDefaultIcEEEES6_EEN10vector_mapIS6_S6_27compare_tstring_insensitiveIS6_E13stl_allocatorIS7_L18MemLabelIdentifier38ELi16EEE13value_compareESD_E9erase_oneIS6_EEjRKT_
Fjg:_ReadOnlyCollection_1_System_Collections_IEnumerable_GetEnumerator_m4112029012_gshared
wwc:__Z46RenderTexture_CUSTOM_Internal_SetSRGBReadWriteP12Il2CppObjecth
VT:__ZN20SoundChannelInstance19setReverbPropertiesEP29FMOD_REVERB_CHANNELPROPERTIES
lyg:_TlsCipherSuite_ComputeKeys_m141973363
TXg:_ExecutionContext__ctor_m3315278820
n_e:_Convert_ToUInt64_m831638287
OPj:_SymmetricTransform_FinalEncrypt_m2829622311
rZe:_Convert_ToSByte_m375024172
_xc:__Z40Register_UnityEngine_Transform_IsChildOfv
uie:_Evidence_GetEnumerator_m3033958832
mrc:__Z45Register_UnityEngine_Display_GetSystemExtImplv
N_h:_ParameterInfo_GetCustomAttributes_m30971544
hz:__ZN7mecanim9animation23TransformValuesFromClipEiiiRKNS_10ValueArrayERKNS0_10ClipOutputERKNS0_12ClipBindingsERS1_RNS_14ValueArrayMaskEb
HTj:_AudioSource_INTERNAL_CALL_ReadExtensionName_m127658506
mih:__ZL72SecuritySafeCriticalAttribute_t3626105140_CustomAttributesCacheGeneratorP21CustomAttributesCache
u0i:_InternalEnumerator_1_get_Current_m1413365016_AdjustorThunk
hTg:_DecoderFallbackException__ctor_m1402656866
WEf:_Int32_CompareTo_m3735717699
Sme:_String_InternalSetChar_m1668888534
Qed:__ZNSt3__218__insertion_sort_3IRNS_6__lessIN2UI14DepthSortEntryES3_EEPS3_EEvT0_S7_T_
udc:__ZN2UI13RectTransform15InitializeClassEv
Jea:__ZN13RuntimeStaticI15DirectorManagerLb0EE16StaticInitializeEPv
ifb:__ZN11TimeManager6UpdateEv
mBf:_GuidParser_ParseGuid2_m990884964
qPa:__ZN17LightProbeContext4InitERK16LightmapSettingsRK14RenderSettings
D$b:__ZN18DeferredRenderLoop14RenderLightingER21ActiveLightingContextP13RenderTexture9TextureIDPS3_iRK8Vector4fRK14LightingLayersR10MinMaxAABBb12ObjectHandleI17RenderSurface_TagP17RenderSurfaceBaseE
uae:__GLOBAL__sub_I_Error_cpp
qke:_Single_System_IConvertible_ToSByte_m3007264841_AdjustorThunk
w4e:_Double_System_IConvertible_ToUInt32_m1602595507
fwe:_ColorBlock_get_fadeDuration_m3820566661_AdjustorThunk
wYd:__ZN6il2cpp2vm11MethodStack17GetStackFramesRawEv
VI:__ZN14SafeBinaryRead21TransferSTLStyleArrayI22OffsetPtrArrayTransferI9OffsetPtrIN7mecanim12statemachine21SelectorStateConstantEEEEEvRT_17TransferMetaFlags
W1b:__Z34ProcessIndexListIsNodeVisibleStep2RK22SceneCullingParametersPK9SceneNodePK4AABBR9IndexList
mNb:__ZN10MonoScriptD2Ev
cv:__ZN18StreamedBinaryReadILb0EE8TransferINSt3__26vectorIN13AnimationClip12Vector3CurveE13stl_allocatorIS5_L18MemLabelIdentifier26ELi16EEEEEEvRT_PKc17TransferMetaFlags
KNg:_ServerIdentity_CreateObjRef_m940443440
Vsc:__Z39Input_CUSTOM_INTERNAL_get_mousePositionP8Vector3f
d5c:_tt_cmap13_char_next
grb:__ZN9ShaderLab4Pass16SetupPassOptionsEv
qh:_JS_Sound_ReleaseInstance
$Dg:_X509Certificate2_get_SignatureAlgorithm_m3421366931
Wja:__ZN13GfxDeviceGLES19DrawBuffersIndirectEP9GfxBufferPK18VertexStreamSourceiP17VertexDeclaration17ShaderChannelMask16GfxPrimitiveType15ComputeBufferIDj
hJe:_Array_IndexOf_m188456400
Qsi:_Enumerator_get_CurrentValue_m89301480_gshared
Wgk:_emscripten_glPixelStorei__wrapper
rWc:__Z20GetRigidbodyChildrenRK9Transform13dynamic_arrayIP11Rigidbody2DLj4EE
Um:FUNCTION_TABLE_diddi
aQd:__ZN6il2cpp6icalls8mscorlib6System5Array8FastCopyEP11Il2CppArrayiS5_ii
Eif:_Array_InternalArray__set_Item_TisDouble_t2155864068_m1941811388_gshared
gvc:__Z26Material_CUSTOM_SetIntImplP12Il2CppObjectii
Wri:__Z51RuntimeInvoker_RuntimeObject_ColorTween_t3489028161PFvvEPK10MethodInfoPvPS4_
FOg:_BinaryCommon_GetTypeFromCode_m1469257569
q2f:_List_1_System_Collections_IList_Add_m3458447608_gshared
ked:__ZNK2UI14CanvasRenderer22GetTypeVirtualInternalEv
XDa:__ZNK16TypeTreeIterator4NextEv
Isc:__Z42Register_UnityEngine_RectOffset_get_bottomv
Kch:__ZL56ParameterInfo_t4166441304_CustomAttributesCacheGeneratorP21CustomAttributesCache
nqe:_ExecuteEvents_Execute_m2430359170
yzb:__ZN9BoundsInt8TransferI14SafeBinaryReadEEvRT_
p$e:_DateTimeFormatInfo_GetDayName_m3719569327
abk:dynCall_di
o$c:__ZN20TextRenderingPrivate19NativeTextGeneratorC2ERK11UTF16StringPNS_8FontImplE11ColorRGBA32ifRK8Vector2fbifiibffbbbP13dynamic_arrayIN2UI8UIVertexELj4EE
yDc:__Z28RegisterModule_JSONSerializev
hBg:_IPv6Address__ctor_m334076740
LMg:_RealProxy__ctor_m267761368
tKg:_MethodDictionary_GetInternalProperties_m2429669634
isb:__ZN2UI13RectTransform8TransferI14SafeBinaryReadEEvRT_
wpf:_SimpleCollator_IsHalfKana_m3338758127
KEc:__Z35Transfer_Blittable_FixedBufferFieldI9JSONWriteaEvRK29SerializationCommandArgumentsR31RuntimeSerializationCommandInfo
Vlc:__Z20IsHumanControllingUsv
JTb:__ZNK19RenderEventsContext21ExecuteCommandBuffersEijR17ShaderPassContextR15RenderNodeQueueP19ProfilerInformationi
JWh:_FieldInfo_get_IsStatic_m2111219565
N2:__ZNK20DynamicHeapAllocatorI17LowLevelAllocatorE10GetPtrSizeEPKv
ht:__ZN7mecanim5human9HumanGoal8TransferI14SafeBinaryReadEEvRT_
lpe:_BaseRaycaster_OnDisable_m1189910224
laf:_Array_InternalArray__ICollection_Remove_TisSingle_t209704323_m61051943_gshared
Ez:__ZN17AnimationPlayable16AllocateBindingsEPK35AnimationPlayableEvaluationConstant
Nja:__ZN13GfxDeviceGLES17DestroyGpuProgramEPK10GpuProgram
Yvb:__Z44InitializeTransferFunctionScriptingTraitsForI18StreamedBinaryReadILb0EEEvR31TransferFunctionScriptingTraits
VZb:__ZNSt3__218__insertion_sort_3IR23CompareReflectionProbesP31RuntimeReflectionProbeBlendInfoEEvT0_S5_T_
OOh:_RankException__ctor_m316978024
DBb:__ZN12NativeBufferI27Converter_SimpleNativeClassI8GradientEE15SetupForWritingER9ArrayInfo
$Mi:_Selectable_DoStateTransition_m2025530140
zha:__ZNSt3__213__stable_sortIRNS_4lessIN4core12basic_stringIcNS2_20StringStorageDefaultIcEEEEEENS_11__wrap_iterIPS6_EEEEvT0_SC_T_NS_15iterator_traitsISC_E15difference_typeEPNSF_10value_typeEi
x4:__ZN12_GLOBAL__N_113StaticDestroyEPv
sRh:_ConstructorBuilder_Invoke_m642805478
alk:_glUnmapBuffer__wrapper
Xdf:_Array_InternalArray__IndexOf_TisInt16_t1836794551_m2744307864_gshared
i2f:_List_1_get_Item_m2644268819_gshared
Ttc:__Z32Mesh_CUSTOM_ExtractArrayFromListP12Il2CppObject
EQf:_NumberFormatter_get_DecimalDigits_m1936452615
ang:_BitConverterLE_GetBytes_m3916785250
qIc:__ZN8JSONRead21TransferSTLStyleArrayINSt3__26vectorI8Gradient13stl_allocatorIS3_L18MemLabelIdentifier1ELi16EEEEEEvRT_17TransferMetaFlags
Ffb:__ZNSt3__218__insertion_sort_3IRNS_6__lessINS_4pairIPKN5Unity4TypeE7Hash128EES8_EEPS8_EEvT0_SC_T_
vHg:_GroupCollection__ctor_m4019856843
lDb:__ZN10RectOffset8TransferI24GenerateTypeTreeTransferEEvRT_
U7j:_srand
JRc:__ZNK10Collider2D15GetAttachedBodyEv
xCb:__Z18Transfer_BlittableI24GenerateTypeTreeTransferLb1E5RectTIiEEvRK29SerializationCommandArgumentsR31RuntimeSerializationCommandInfo
kRa:__ZNSt3__24listI4PPtrI6CameraENS_9allocatorIS3_EEE6removeERKS3_
Y6j:_exp2f
zed:__ZN2UI13CanvasManager19RemoveDirtyRendererEPNS_6CanvasEPNS_14CanvasRendererE
IZf:_List_1_System_Collections_IList_Insert_m3838585372_gshared
_wd:__ZN15dense_hashtableI10KeyWrapperIPK17Il2CppGenericInstES4_N6il2cpp8metadata21Il2CppGenericInstHashEN14dense_hash_setIS4_S7_NS4_14EqualsComparerINS6_24Il2CppGenericInstCompareEEENSt3__29allocatorIS4_EEE8IdentityESB_SE_E12resize_deltaEjj
inc:__ZN8Material14DisableKeywordERKN4core12basic_stringIcNS0_20StringStorageDefaultIcEEEE
v8e:_Array_get_swapper_TisVector4_t3374053054_m3921118418_gshared
Sld:__ZN11UnityEngine15PlatformWrapper25GetGraphicsRendererStringEv
q9f:__ZN23InterfaceActionInvoker2Ii25RaycastResult_t3692659608E6InvokeEjP11Il2CppClassP12Il2CppObjectiS0_
bNj:_GUI_set_skin_m4110005139
u1:__ZN11UnityEngine15CloudWebService17WebFileDownloaderINS0_20WebRequestRestClientENS0_23WebRequestRestHeaderMapEED2Ev
Xb:invoke_vi
BPc:__ZNSt3__26vectorINS0_IN10ClipperLib8IntPointENS_9allocatorIS2_EEEENS3_IS5_EEE7reserveEj
ZFc:__ZN9JSONWrite8TransferI13dynamic_arrayI9BoundsIntLj4EEEEvRT_PKc17TransferMetaFlags
Vb:invoke_vd
ub:invoke_vf
Vba:__ZNK10GameObject8IsActiveEv
Vqc:__Z34Component_Get_Custom_PropTransformP12Il2CppObject
UCh:__ZL67g_UnityEngine_PhysicsModule_Assembly_CustomAttributesCacheGeneratorP21CustomAttributesCache
feg:_ReadOnlyCollection_1_System_Collections_IList_IndexOf_m3454193113_gshared
Vwa:__ZN18GfxFramebufferGLES23SetupDefaultFramebufferEPP17RenderSurfaceBaseS2_N2gl6HandleILNS3_10ObjectTypeE9EEE
aDd:__ZN6il2cpp2vm7Runtime29RaiseExecutionEngineExceptionEPKc
Hlj:_Input_get_compositionCursorPos_m342343509
Ntd:__ZN6il2cpp2vm5Class12SetupMethodsEP11Il2CppClass
Enc:__Z39DeleteLastPathNameComponentWithAnySlashRKN4core12basic_stringIcNS_20StringStorageDefaultIcEEEE
zzc:__ZN10GUIManager14InitGUIManagerEv
VDe:_InputField_set_caretBlinkRate_m1442633761
Rzg:__KeysEnumerator_MoveNext_m370316617
Vnh:__ZL64X500DistinguishedName_t1651298389_CustomAttributesCacheGeneratorP21CustomAttributesCache
rkf:_Array_Sort_TisRuntimeObject_TisRuntimeObject_m1117146512_gshared
jCf:_Int16_System_IConvertible_ToDouble_m864052417_AdjustorThunk
wwf:_StrongName_get_TokenAlgorithm_m196407053
IBc:__Z37Register_UnityEngine_GUIStyle_Cleanupv
Pa:invoke_iiifii
wlk:b113
V0f:_List_1_GetIndex_m312061641_gshared
CUg:_Type_GetType_m3499821902
mxc:__Z39Register_UnityEngine_Time_set_timeScalev
kHj:_OLDTVPreset_OnEnable_m2769832103
uCd:__ZN6il2cpp6icalls8mscorlib6System8MonoType13IsPointerImplEP20Il2CppReflectionType
o3e:_Delegate_GetHashCode_m2306764026
dLg:_MonoMethodMessage_get_OutArgs_m3781162113
bj:_emscripten_glFramebufferRenderbuffer
L0b:__ZN19CullingGroupManager17CullAndSendEventsERK22SceneCullingParametersiRK13CullingOutputRK8JobFence
hnf:_Array_InternalArray__get_Item_TisInt16_t1836794551_m1890353293_gshared
LLe:_Boolean_CompareTo_m2049075608_AdjustorThunk
Lgi:__Z95RuntimeInvoker_TextGenerationError_t4194355460_RuntimeObject_TextGenerationSettings_t3463204300PFvvEPK10MethodInfoPvPS4_
ZVe:_Convert_ToByte_m4286654042
cNa:__ZN9Transform30EnsureTransformHierarchyExistsEv
r5i:_ChannelInfo__ctor_m3198481520
nW:__ZN11AudioModule26SetDefaultMicrophoneDriverEPv
euf:_SecurityParser_LoadXml_m2720155437
Fpc:__Z46Register_UnityEngine_Application_get_isPlayingv
dDg:_X509BasicConstraintsExtension__ctor_m3649685189
Pg:___cxa_find_matching_catch_4
_5b:__ZNSt3__26vectorINS_4pairIN4core12basic_stringIcNS2_20StringStorageDefaultIcEEEEPK17MessageIdentifierEENS_9allocatorISA_EEE12__move_rangeEPSA_SE_SE_
TPj:_Action_Invoke_m1744127875
cWb:__ZN14qsort_internal17MedianOfThreeSwapIP17RODataReplacement19ROSorterReplacementEEvT_S4_S4_T0_
He:_JS_WebCamVideo_CanPlay
mIg:_IntStack_Push_m2812492814_AdjustorThunk
Dsd:__ZNK15dense_hashtableINSt3__24pairIK10KeyWrapperIPK22Il2CppGenericParameterEP11Il2CppClassEES6_N6il2cpp5utils11PointerHashIS4_EEN14dense_hash_mapIS6_S9_SE_NS6_14EqualsComparerINS0_8equal_toIS5_EEEENS0_9allocatorISA_EEE9SelectKeyESJ_SL_E3endEv
znc:__ZN17TransformInternal36OnScaleChangedCalculateTransformTypeE15TransformAccess
o8f:_Collection_1_System_Collections_IList_Remove_m137338903_gshared
f0i:_InternalEnumerator_1_get_Current_m337939005_gshared
VIa:__ZN17ArchiveFileSystem10ToAbsoluteEPKc
_bk:dynCall_vii
e3e:_Delegate_CreateDelegate_internal_m3447285260
Fmd:__ZN19UnityConnectService15GetPlayerUserIdEv
zjj:_Object_CompareBaseObjects_m1406999487
quc:__Z53PlayableHandle_CUSTOM_INTERNAL_CALL_GetPlayableTypeOfR9HPlayable
cE:__ZN7mecanim6CRCKeyENS_7eStringE
wuf:_SmallXmlParser_ReadUntil_m2311303769
Akc:__ZL12SetPrefValueRKN4core12basic_stringIcNS_20StringStorageDefaultIcEEEERK9PrefValue
Eib:__Z21GetBackgroundJobQueuev
G0d:__ZN6il2cpp5utils11StringUtils6PrintfEPKcz
MOd:__ZNSt3__26vectorIN6il2cpp8metadata18GenericArrayMethodENS_9allocatorIS3_EEE7reserveEj
r$a:__ZN15NameToObjectMapI6ShaderNSt3__23mapI4PPtrIS0_EN4core12basic_stringIcNS5_20StringStorageDefaultIcEEEENS1_4lessIS4_EENS1_9allocatorINS1_4pairIKS4_S9_EEEEEENS1_8multimapIS9_S4_NSA_IS9_EENSC_INSD_IKS9_S4_EEEEEEE4FindERSK_
gsd:__ZN6il2cpp6icalls8mscorlib6System7Decimal13decimal2Int64EP19il2cpp_decimal_reprPx
cYd:__ZN6il2cpp2vm6Object5CloneEP12Il2CppObject
yNi:_Slider_set_direction_m3747588089
r6j:_strnlen
m8d:__ZN6il2cpp6icalls8mscorlib6System9Threading5Mutex20CreateMutex_internalEbP12Il2CppStringPb
K0i:__ZN21InterfaceFuncInvoker1Ii26DateTimeOffset_t4081060068E6InvokeEjP11Il2CppClassP12Il2CppObjectS0_
tWa:__ZNSt3__212__deque_baseI18ReflectionProbeJobNS_9allocatorIS1_EEED2Ev
AD:__ZN11UnityEngine9Animation27DestroyAnimationSetBindingsEPNS0_20AnimationSetBindingsERN7mecanim6memory9AllocatorE
Mmb:__ZN15dense_hashtableINSt3__24pairIKiN4core17string_with_labelILi1EEEEEi18SInt32HashFunctionN14dense_hash_mapIiS5_S7_NS0_8equal_toIiEE13stl_allocatorIS6_L18MemLabelIdentifier1ELi16EEE9SelectKeyESA_SD_E13set_empty_keyERKS6_
CL:__ZN8Animator12CleanupClassEv
oIc:__Z13TransferFieldI8JSONReadLb0E27Converter_SimpleNativeClassI10RectOffsetEEvRK23StaticTransferFieldInfoR31RuntimeSerializationCommandInfoRT1_
alj:_Graphics_Blit_m737424909
GVd:__GLOBAL__sub_I_GenericMetadata_cpp
m3j:_AnimatorTransitionInfo_t2324272649_marshal_pinvoke_back
sWb:__ZNK17InstancedPropInfo14IsInstanceableERK19ShaderPropertySheet
x1b:__Z24CalculateSpotLightBoundsffRK10Matrix4x4fR15SpotLightBounds
zte:_TouchInputModule_ShouldActivateModule_m2673432109
RMb:__Z19ShouldTransferFieldR32SerializationCommandQueueBuilder17ScriptingClassPtriR18TransferField_InfoRK20CoreScriptingClasses
Zdh:__ZL55_EventBuilder_t488838903_CustomAttributesCacheGeneratorP21CustomAttributesCache
xBa:__ZN26SinglePassStereoSupportExt21SetStereoMatrixCommonE21MonoOrStereoscopicEye24BuiltinShaderMatrixParamRK10Matrix4x4f
PUe:_Slot_t1159283672_marshal_pinvoke_back
WZc:__ZL21InitializeCachedStripPv
K1d:__ZN6il2cpp6icalls8mscorlib6System7Convert24InternalFromBase64StringEP12Il2CppStringb
XQd:__ZN6il2cpp6icalls8mscorlib6System9Threading6Thread23GetCachedCurrentCultureEP12Il2CppThread
cTb:__ZN24MaterialDisplayListCache22InvalidateDisplayListsER18SharedMaterialData
ROa:__ZNK6Camera22GetWorldToCameraMatrixEv
sYd:__ZN6il2cpp2vm12GenericClass11IsValueTypeEP18Il2CppGenericClass
hng:_RC4__ctor_m3507524376
ovd:__ZN15dense_hashtableINSt3__24pairIK10KeyWrapperIPKcEP11Il2CppClassEES5_N6il2cpp5utils11StringUtils12StringHasherIS4_EEN14dense_hash_mapIS5_S8_SE_NS5_14EqualsComparerINSB_13VmStringUtils21CaseSensitiveComparerEEENS0_9allocatorIS9_EEE9SelectKeyESJ_SL_E15set_deleted_keyERKS9_
a4:__GLOBAL__sub_I_runtime_shaders_shaderimpl_0_cpp
ijb:__ZN18AwakeFromLoadQueue5ClearEv
MBa:__Z24ReleaseBufferManagerGLESv
Qoe:_BaseInputModule_DetermineMoveDirection_m1864968734
a0b:__ZNSt3__27__sort5IR15ReflProbeSorterPP15ReflectionProbeEEjT0_S6_S6_S6_S6_T_
Hk:_glGenTransformFeedbacks
FHa:__ZN13LoadOperationD2Ev
z3i:_DecimalConstantAttribute__ctor_m2520075129
O8h:__Z52RuntimeInvoker_Double_t2155864068_Double_t2155864068PFvvEPK10MethodInfoPvPS4_
ZSe:_Hashtable_PutImpl_m707044318
D8f:_Collection_1_Insert_m1519367549_gshared
FPb:__Z21PlayerStartFirstSceneb
e$a:__ZNSt3__27__sort5IRPFbRKNS_4pairIN9ShaderLab16FastPropertyNameEN18UnityPropertySheet11UnityTexEnvEEES8_EPS6_EEjT0_SD_SD_SD_SD_T_
Ooa:__ZNK7ApiGLES18GetExtensionStringEv
Oif:_Array_InternalArray__set_Item_TisILTokenInfo_t1114482274_m2304879013_gshared
K1g:_UInt32_System_IConvertible_ToDouble_m122272381_AdjustorThunk
pgk:_emscripten_glVertexAttrib1f__wrapper
dtb:__ZNK12HandlerChain4SizeERK13FileEntryData
xp:FUNCTION_TABLE_iiiiiiiii
poj:_MonoBehaviour_InvokeRepeating_m3532998730
aMc:__Z22GetPhysicsGroundBody2Dv
V5c:_Horizontal_Sweep_Span
p3d:_GC_allochblk
xjb:__Z15UnloadGameScenev
xnj:_Matrix4x4_get_identity_m1501429427
dib:__ZNSt3__26vectorIN30RuntimeInitializeOnLoadManager15ClassMethodInfoE13stl_allocatorIS2_L18MemLabelIdentifier13ELi16EEE7reserveEj
cId:__ZN15dense_hashtableINSt3__24pairIK10KeyWrapperIPK10Il2CppTypeEjEES6_N6il2cpp8metadata14Il2CppTypeHashEN14dense_hash_mapIS6_jSB_NS6_14EqualsComparerINSA_26Il2CppTypeEqualityComparerEEENS0_9allocatorIS8_EEE9SelectKeyESF_SH_E3endEv
S_f:_List_1_AddEnumerable_m4102862988_gshared
bee:_RIPEMD160Managed_ROL_m3336479069
QRg:_SByte_Parse_m3635934504
oQh:_ConstructorInfo_Invoke_m269856082
Yrc:__Z36Renderer_Get_Custom_PropSortingOrderP12Il2CppObject
hId:__ZNK15dense_hashtableINSt3__24pairIK10KeyWrapperIPK10Il2CppTypeEjEES6_N6il2cpp8metadata14Il2CppTypeHashEN14dense_hash_mapIS6_jSB_NS6_14EqualsComparerINSA_26Il2CppTypeEqualityComparerEEENS0_9allocatorIS8_EEE9SelectKeyESF_SH_E13find_positionERS7_
VXa:__ZN7Texture5ResetEv
rLc:__ZNK14b2CapsuleShape7RayCastEP15b2RayCastOutputRK14b2RayCastInputRK11b2Transformi
OBb:__Z18Transfer_BlittableI24GenerateTypeTreeTransferLb1EhEvRK29SerializationCommandArgumentsR31RuntimeSerializationCommandInfo
iqe:_TriggerEvent__ctor_m2273533042
l5e:_Enum_GetName_m1088408954
lAe:_GraphicRegistry_UnregisterGraphicForCanvas_m2304144337
ppc:__ZNK16TypeTreeIterator10ByteOffsetEv
xbk:dynCall_iiifii
oea:__ZnwjRKSt9nothrow_t
XG:__ZN8Animator11ClearObjectEv
$Sg:_DESTransform__cctor_m3835540087
NZa:__ZN14SafeBinaryRead19TransferSTLStyleMapINSt3__23mapI39DeprecatedFastPropertyNameSerializationN18UnityPropertySheet11UnityTexEnvENS1_4lessIS3_EENS1_9allocatorINS1_4pairIKS3_S5_EEEEEEEEvRT_17TransferMetaFlags
UVe:_Double_IsNaN_m518808120
m2e:_Decimal_System_IConvertible_ToUInt16_m3450892998_AdjustorThunk
Ale:_String_Split_m999573065
kpc:__Z35UnregisterSerializationCacheBuilderPFv17ScriptingClassPtrR23CachedSerializationDataRbE
HPa:__Z30GetBuiltinVectorParamArraySize24BuiltinShaderVectorParam
JKf:_MonoIO_RemapPath_m2050518895
c_e:_Convert_ToUInt32_m702367843
K3a:__ZN18StreamedBinaryReadILb0EE21TransferSTLStyleArrayI13dynamic_arrayI7Hash128Lj8EEEEvRT_17TransferMetaFlags
AYe:_Convert_ToInt16_m3377992841
GEj:_U3CDoKickU3Ec__Iterator0_Reset_m1407986032
z4a:__ZN21RendererUpdateManager11AddRendererER8Renderer
qcc:__Z13RegisterClassI15ResourceManagerEvv
neg:_ReadOnlyCollection_1_System_Collections_IList_get_Item_m2388169145_gshared
Gwb:__Z35Transfer_Blittable_FixedBufferFieldI14SafeBinaryReadsEvRK29SerializationCommandArgumentsR31RuntimeSerializationCommandInfo
V9a:__ZN14SafeBinaryRead21TransferSTLStyleArrayI13dynamic_arrayIfLj4EEEEvRT_17TransferMetaFlags
PHg:_Interpreter_Open_m3586135760
H0d:__ZN6il2cpp5utils11StringUtils11Utf16ToUtf8EPKDs
Ihb:__ZN18StreamedBinaryReadILb0EE21TransferSTLStyleArrayINSt3__26vectorIN15ResourceManager10DependencyE13stl_allocatorIS5_L18MemLabelIdentifier52ELi16EEEEEEvRT_17TransferMetaFlags
hmd:__ZN11UnityEngine15PlatformWrapper20IsRootedOrJailbrokenEv
ISb:__ZZ23InitPlayerLoopCallbacksvEN52PreLateUpdateScriptRunBehaviourLateUpdateRegistrator7ForwardEv
bBg:_IPAddress_Parse_m902325794
t1b:__Z33IntersectAABBPlaneBoundsOptimizedRK4AABBPKN4math7_float4Ei
pMg:_ObjRef__cctor_m3951126183
_ja:__ZN9GfxDevice19EndGeometryJobFrameEv
IBb:__ZN27Converter_SimpleNativeClassI17AnimationCurveTplIfEE17ScriptingToNativeER18ScriptingObjectPtrPS1_
epj:_Object_op_Implicit_m3047019162
z0g:_TypeLoadException__ctor_m3325514161
Z8d:__ZN6il2cpp8metadata24Il2CppGenericInstCompare7CompareERK10KeyWrapperIPK17Il2CppGenericInstES8_
iLj:_IndexedSet_1_Remove_m3381314825_gshared
Yvd:__ZNK15dense_hashtableINSt3__24pairIK10KeyWrapperIPK19Il2CppGenericMethodEPK26Il2CppGenericMethodIndicesEES6_N6il2cpp8metadata23Il2CppGenericMethodHashEN14dense_hash_mapIS6_SA_SE_NS6_14EqualsComparerINSD_26Il2CppGenericMethodCompareEEENS0_9allocatorISB_EEE9SelectKeyESI_SK_E5beginEv
Kkj:_GameObject_get_transform_m4236912547
Hre:_PointerEventData_set_worldPosition_m3831568919
rx:__ZN27AnimationLayerMixerPlayable21UpdateLayerParametersEv
g_g:_TimeSpan_get_TotalMilliseconds_m1154312766_AdjustorThunk
AOi:_Text_FontTextureChanged_m639689054
Qdc:__ZNK17AnimationCurveTplIfE8EvaluateEfPNS0_5CacheE
MRb:__Z31ManagerContextInitializeClassesv
L0c:_UNITY_FT_List_Finalize
fXb:__Z20LightAttenuateApproxRKfS0_
LEa:__ZN9Scripting30SetCachedPtrOnScriptingWrapperE18ScriptingObjectPtrP6Object
ajf:_Array_InternalArray__set_Item_TisUInt64_t182044293_m4225059638_gshared
eFb:__Z18Transfer_BlittableI19StreamedBinaryWriteILb0EELb0EdEvRK29SerializationCommandArgumentsR31RuntimeSerializationCommandInfo
kji:__Z144RuntimeInvoker_RuntimeObject_RuntimeObject_Int32_t497012075_Int32_t497012075_Int32_t497012075_Int32_t497012075_Int32_t497012075_Int32_t497012075PFvvEPK10MethodInfoPvPS4_
RNc:__ZN16b2PrismaticJoint4DumpEv
GFi:_EqualityComparer_1_System_Collections_IEqualityComparer_Equals_m3366105998_gshared
KK:__ZN7mecanim9animation21BlendTreeNodeConstant8TransferI19StreamedBinaryWriteILb0EEEEvRT_
FTa:__ZN18BlockRangeInternal16PopLastNodeIndexEP10BlockRangeji
p9a:__ZN4MeshD0Ev
y1h:__Z52RuntimeInvoker_Boolean_t1367519524_Single_t209704323PFvvEPK10MethodInfoPvPS4_
xrd:__ZL42RequestRecreateEyeTexturesBeforeNextUpdatev
Qna:__ZNK6Camera20IsCurrentlyRenderingEv
gz:__ZN21AnimationClipPlayable23ProcessRootMotionNoClipEPK35AnimationPlayableEvaluationConstantPK32AnimationPlayableEvaluationInputP33AnimationPlayableEvaluationOutput
lhd:__Z36CanvasRenderer_CUSTOM_SetPopMaterialP12Il2CppObjectS0_i
REc:__Z18Transfer_BlittableI9JSONWriteLb0EdEvRK29SerializationCommandArgumentsR31RuntimeSerializationCommandInfo
mNc:__ZNK11b2GearJoint16GetReactionForceEf
KJ:__ZN15SerializeTraitsI9OffsetPtrIN7mecanim9animation17BlendTreeConstantEEE8TransferI24GenerateTypeTreeTransferEEvRS4_RT_
tgi:__Z145RuntimeInvoker_Void_t3431959231_Vector2_t1132184324_Vector2_t1132184324_Single_t209704323_ContactFilter2D_t1726620777_RaycastHit2DU26_t1313493118PFvvEPK10MethodInfoPvPS4_
xqc:__Z27Camera_CUSTOM_GetAllCamerasP11Il2CppArray
Gyi:_Dictionary_2_System_Collections_IDictionary_Remove_m1502087684_gshared
fd:___cxa_rethrow
uGc:__Z18Transfer_BlittableI8JSONReadLb1EhEvRK29SerializationCommandArgumentsR31RuntimeSerializationCommandInfo
HUc:__ZN18Overlap2DQueryBase13ReportFixtureEP9b2Fixture
n4b:__ZN13MonoBehaviour8SetClassE17ScriptingClassPtr18ScriptingObjectPtr
Ttb:__ZN20LocalFileSystemPosix4ReadER13FileEntryDatayyPvPy
H_b:__ZNSt3__211__sift_downIRN23ForwardShaderRenderLoop18RenderObjectSorterILb0EEEP21ForwardRenderPassDataEEvT0_S7_T_NS_15iterator_traitsIS7_E15difference_typeES7_
ifj:_AnimationCurve_Finalize_m185981684
m8g:__ZL59SecurityAttribute_t509456042_CustomAttributesCacheGeneratorP21CustomAttributesCache
uGa:__ZNK12TLSAllocatorI14StackAllocatorE8ContainsEPKv
kfb:__ZN11TimeManager8TransferI18StreamedBinaryReadILb0EEEEvRT_
Frb:__ZN15SerializeTraitsINSt3__23mapI4PPtrI6ShaderEN4core12basic_stringIcNS5_20StringStorageDefaultIcEEEENS0_4lessIS4_EENS0_9allocatorINS0_4pairIKS4_S9_EEEEEEE8TransferI24GenerateTypeTreeTransferEEvRSH_RT_
C9a:__ZN14BlendShapeData8TransferI14SafeBinaryReadEEvRT_
ASh:_EnumBuilder_get_AssemblyQualifiedName_m1768647473
K0a:__ZN7Texture25ReloadFromStorageIfNeededEPvb
LIi:_VertexHelper_AddVert_m3384167653
xZe:_Convert_ToSingle_m2869935589
lAj:_DeriveBytes_DeriveIV_m3497963255
Zad:_Update_Max
xpf:_SimpleCollator_GetContraction_m3698580908
bZh:_MonoField_GetCustomAttributes_m2226964510
WZj:_TextGenerator_get_lineCount_m2951648878
jQd:__ZN6il2cpp6icalls8mscorlib6SystemL15ThrowNoWideningEv
Ydc:__ZNK23TransformChangeDispatch24GetChangeMaskForInterestENS_12InterestTypeE
Cxc:__Z45Transform_CUSTOM_INTERNAL_CALL_TransformPointP12Il2CppObjectRK8Vector3fRS1_
Ekj:_GameObject_Internal_CreateGameObject_m3801168428
l8b:__ZL10KeyHandleriPK23EmscriptenKeyboardEventPv
ORc:__ZN15dense_hashtableINSt3__24pairIKNS1_IPK10Collider2DS4_EE11Collision2DEES5_NS2_23ColliderPairHashFunctorEN14dense_hash_mapIS5_S7_S9_NS0_8equal_toIS5_EE13stl_allocatorIS8_L18MemLabelIdentifier67ELi16EEE9SelectKeyESC_SF_EC2ERKSI_j
_Qf:_Object_Equals_m3811657483
d_a:__ZNSt3__26__treeINS_12__value_typeI39DeprecatedFastPropertyNameSerializationfEENS_19__map_value_compareIS2_S3_NS_4lessIS2_EELb1EEENS_9allocatorIS3_EEE7destroyEPNS_11__tree_nodeIS3_PvEE
uUj:_AudioSource_set_volume_m843367872
I4c:_tt_cmap4_char_index
ntb:__ZNK12HandlerChain8IsHiddenERK13FileEntryData
YAb:__ZL26Transfer_SimpleNativeClassI17RemapPPtrTransfer10RectOffsetLb0EEvRK29SerializationCommandArgumentsR31RuntimeSerializationCommandInfo
m1c:__Z14ValidateFormatR13dynamic_arrayIN20TextRenderingPrivate16TextFormatChangeELj4EE
su:__ZNSt3__26vectorIN13AnimationClip15QuaternionCurveE13stl_allocatorIS2_L18MemLabelIdentifier26ELi16EEE6assignINS_11__wrap_iterIPS2_EEEENS_9enable_ifIXaasr21__is_forward_iteratorIT_EE5valuesr16is_constructibleIS2_NS_15iterator_traitsISC_E9referenceEEE5valueEvE4typeESC_SC_
QIe:_Array_CreateInstance_m2902478596
qOi:_SpriteState_Equals_m3155908411
bEg:_X509Certificate2_get_Thumbprint_m654635944
arf:_BigInteger_GetBytes_m2596747462
ZOc:__ZN10ClipperLib14PointInPolygonERKNS_8IntPointEPNS_5OutPtE
oog:_PKCS1__cctor_m3523112366
Cjc:__ZN17TransformInternal27UpdateDeepChildCountUpwardsER18TransformHierarchyii
DPa:__ZNK9ShaderLab20ShaderBlendStateDesc15ToGfxBlendStateEPK19ShaderPropertySheetS3_R13GfxBlendState
aLj:_UnityEvent_4_GetDelegate_m182730908_gshared
dD:__ZN11UnityEngine9AnimationL22GenericBindingCallbackEPvS1_i
Jad:_Compute_Point_Displacement
mrb:__ZN9ShaderLab9IntShaderC2Ev
BCd:__ZN6il2cpp6icalls8mscorlib6SystemL9IsPrivateEPK9EventInfo
Ttf:_KeyPairPersistence_get_UserPath_m3476303492
B7d:__ZN6il2cpp6icalls8mscorlib6System10Reflection4Emit11TypeBuilder20setup_internal_classEP27Il2CppReflectionTypeBuilderS7_
JZf:_List_1_System_Collections_IList_Remove_m281367298_gshared
Vxj:_Vector2_op_Equality_m3429338409
sZg:_Scheduler__cctor_m542748483
RZg:_TimeSpan__ctor_m337692434_AdjustorThunk
Amj:_Material_SetTextureOffsetImpl_m1130457653
nEd:_il2cpp_gc_disable
tLf:_StreamReader__ctor_m2588905330
VCc:__ZN5Unity9rapidjson6WriterI16TempBufferWriterNS0_4UTF8IcEES4_13JSONAllocatorE11WriteUint64Ey
b1f:_List_1_RemoveAll_m1301071188_gshared
nsd:__ZN13Il2CppHashMapIPK22Il2CppGenericParameterP11Il2CppClassN6il2cpp5utils11PointerHashIS1_EENSt3__28equal_toIS2_EENS9_9allocatorINS9_4pairIK10KeyWrapperIS2_ES4_EEEEEC2EjRKS8_RKSB_
MHc:__ZN8JSONRead21TransferSTLStyleArrayI31ArrayOfManagedObjectsTransfererEEvRT_17TransferMetaFlags
ELa:__Z15CreateDirectoryRKN4core12basic_stringIcNS_20StringStorageDefaultIcEEEE
X$e:_DateTime_CompareTo_m3451027466
iXa:__Z21CalculateGlobalMatrix23TransformAccessReadOnly
pfb:__ZNK13BuildSettings22GetTypeVirtualInternalEv
Zrc:__Z52Graphics_CUSTOM_Internal_GetMaxDrawMeshInstanceCountv
YPe:_FixedSizeArrayListWrapper_get_ErrorMessage_m3818651632
occ:__Z13RegisterClassI14RenderSettingsEvv
QGj:_SuperGameFeelEffectsExtentions_Stop_m3355285612
uDj:_direction_Start_m2739152420
vB:__ZN7mecanim12statemachine24CreateStateMachineOutputEPKNS0_20StateMachineConstantEjRNS_6memory9AllocatorE
zDd:_il2cpp_assembly_get_image
Egj:_Camera_get_orthographic_m2726899494
zka:__ZNK9GfxDevice27GetActiveRenderSurfaceWidthEv
M0j:_CanvasRenderer_set_hasPopInstruction_m3576083478
uEi:_EqualityComparer_1_System_Collections_IEqualityComparer_GetHashCode_m2326264555_gshared
Uld:__ZN11UnityEngine15PlatformWrapper28GetCleanGraphicsFixedVersionEv
rGd:__ZN6il2cpp2vm4Type7GetTypeEPK10Il2CppType
$Qc:__ZN17PhysicsMaterial2D23VirtualRedirectTransferER18StreamedBinaryReadILb0EE
_9b:__ZN16SpriteRenderData28PrepareRenderingDataIfNeededEv
idb:__ZN18ProceduralMaterial17MainThreadCleanupEv
qtg:_Context_DecodeProtocolCode_m2975432911
_jf:_Array_Resize_TisColor32_t1926316813_m3227484397_gshared
u0e:_DateTime_CheckStyle_m2676713968
wFf:_Int64_System_IConvertible_ToDouble_m2988234999
UV:__ZN11AudioModule16SetListenerPauseEb
EXe:_Double_ToString_m2376927304
jTb:__Z16FindCameraStacksRKNSt3__24listI4PPtrI6CameraENS_9allocatorIS3_EEEERNS_6vectorI11CameraStackNS4_ISA_EEEE
uAj:_X509Extension__ctor_m418633487
i3a:__ZN10GISettings8TransferI14SafeBinaryReadEEvRT_
On:FUNCTION_TABLE_vifff
psj:_RectOffset_t1843096389_marshal_pinvoke
kyg:_TlsCipherSuite_ComputeMasterSecret_m1153225656
f5b:__ZN19CustomRenderTexture12ClearGPUDataEv
cYa:__ZN13RenderTexture13ApplySettingsEv
ef:_JS_Sound_SetListenerPosition
Gn:FUNCTION_TABLE_fiffi
XRg:_SByte_ToString_m3351650653
bhd:__Z55Register_UnityEngine_CanvasGroup_get_ignoreParentGroupsv
TQg:_RuntimeMethodHandle__ctor_m4177636401
Kqe:_ExecuteEvents_get_dropHandler_m2030918683
lqh:__ZL49Camera_t1341405538_CustomAttributesCacheGeneratorP21CustomAttributesCache
sfa:__ZZN15DirectorManager15InitializeClassEvEN45FixedUpdateDirectorFixedSampleTimeRegistrator7ForwardEv
slb:__ZNK8Material16MarkDependenciesER27GarbageCollectorThreadState
T_e:_DateTime_System_IConvertible_ToChar_m2007155016
gnj:_Mathf_Clamp_m795751815
RRc:__ZN15dense_hashtableINSt3__24pairIKNS1_IPK10Collider2DS4_EE11Collision2DEES5_NS2_23ColliderPairHashFunctorEN14dense_hash_mapIS5_S7_S9_NS0_8equal_toIS5_EE13stl_allocatorIS8_L18MemLabelIdentifier67ELi16EEE9SelectKeyESC_SF_E5clearEv
UEc:__ZL17Transfer_GUIStyleI9JSONWriteLb0EEvRK29SerializationCommandArgumentsR31RuntimeSerializationCommandInfo
dZh:_MonoField_GetValueInternal_m3075837678
ZXb:__Z28GetHaloVertexPositionsStereoP8Vector3fRKS_S2_f
Yua:__ZN6prcoreL27StretchGenericFloatBilinearI15TexFormatRGHalfEEvPKNS_9InnerInfoE
X3:__GLOBAL__sub_I_runtime_misc_0_cpp
Msf:_ASN1Convert_FromOid_m1419860025
IXi:_InternalEnumerator_1_System_Collections_IEnumerator_get_Current_m3139514510_gshared
JPa:__ZNK9ShaderLab7Program21GetMatchingSubProgramEPK6ShaderPKNS_4PassERK16ShaderKeywordSetjPS7_R19ShaderSnippetResult
Wuc:__Z49Register_UnityEngine_Resources_GetBuiltinResourcev
U4c:_tt_cmap10_char_index
Ssd:__ZN15dense_hashtableINSt3__24pairIK10KeyWrapperIPK22Il2CppGenericParameterEP11Il2CppClassEES6_N6il2cpp5utils11PointerHashIS4_EEN14dense_hash_mapIS6_S9_SE_NS6_14EqualsComparerINS0_8equal_toIS5_EEEENS0_9allocatorISA_EEE9SelectKeyESJ_SL_E3endEv
PX:__ZN11AudioSource24ClearExtensionPropertiesE12PropertyName
Fpb:__ZN9ShaderLab22SerializedBindChannels8TransferI19StreamedBinaryWriteILb0EEEEvRT_
hzb:__ZN15SerializeTraitsI5RectTIiEE8TransferI14SafeBinaryReadEEvRS1_RT_
CAc:__ZN5IMGUI20MoveWindowFromLayoutER8GUIStateiRK5RectTIfE
R0c:_UNITY_FT_Stream_ReadUShort
Ogg:_ReadOnlyCollection_1_System_Collections_Generic_IListU3CTU3E_set_Item_m1818439583_gshared
f9i:_Regex_get_RightToLeft_m4240246886
Msc:__Z51Register_UnityEngine_GUILayer_INTERNAL_CALL_HitTestv
MZa:__ZNSt3__26__treeINS_12__value_typeIN4core12basic_stringIcNS2_20StringStorageDefaultIcEEEES6_EENS_19__map_value_compareIS6_S7_NS_4lessIS6_EELb1EEE13stl_allocatorIS7_L18MemLabelIdentifier1ELi16EEE7destroyEPNS_11__tree_nodeIS7_PvEE
N1d:__ZN6il2cpp2vm8Profiler7GCEventE13Il2CppGCEvent
iQd:__ZN6il2cpp6icalls8mscorlib6SystemL16ThrowInvalidCastEPK11Il2CppClassS5_
dqa:__Z13IsDepthFormat14GraphicsFormat
zgb:__ZN12AspectRatios8TransferI24GenerateTypeTreeTransferEEvRT_
R1f:_List_1_CheckMatch_m269067309_gshared
qvg:_RecordProtocol_SendRecord_m432256957
zZc:__Z12FormatBufferPciPKcz
Etf:_DSAManaged_Dispose_m2429375491
Zrg:_TlsStream_Write_m1465465870
jZf:_List_1_CheckIndex_m672174463_gshared
ctd:__ZN6il2cpp2vm5Class13GetArrayClassEP11Il2CppClassj
LPb:__ZN19RuntimeSceneManager18LoadSceneAsyncIntoER10UnitySceneRKN4core12basic_stringIcNS2_20StringStorageDefaultIcEEEENS_11LoadingModeEb
dNf:_UnexceptionalStreamReader_Peek_m443303478
CUb:__ZN15RenderNodeQueueC2E18MemLabelIdentifier
Xie:_StrongName_ToString_m3519129451
IIg:_Interval_get_IsEmpty_m3578141939
JAc:__ZN11IMGUIModule12AddGUIScriptER8ListNodeI13MonoBehaviourE
sb:invoke_difi
Ugk:_glDeleteSamplers__wrapper
Rda:__ZL50StaticRegisterSceneLoadedCallback_LightmapSettingsPv
cn:FUNCTION_TABLE_iiffi
wTi:_InternalEnumerator_1_System_Collections_IEnumerator_get_Current_m899877989_AdjustorThunk
Dpa:__ZN21GLESGpuProgramApplier11ApplyVectorERKN20GpuProgramParameters14ValueParameterEPK8Vector4ft
Ukd:__ZN22BaseUnityConnectClient17SaveSessionValuesEv
d7c:_cff_size_done
o1b:__ZN29ExtractProjectionPlanesHelperILb1EE5ApplyERK10Matrix4x4fP5Plane
Kri:__Z82RuntimeInvoker_RuntimeObject_RaycastResult_t3692659608_RuntimeObject_RuntimeObjectPFvvEPK10MethodInfoPvPS4_
RTb:__ZN22RenderingCommandBuffer13GetAndCheckRTE24BuiltinRenderTextureTypeRKN9ShaderLab16FastPropertyNameEPKcPP13RenderTexture
v5b:__ZN6Camera34UpdatePreviousViewProjectionMatrixEv
zqb:__ZL23AddGpuProgramParametersR20GpuProgramParametersRKNSt3__26vectorIN9ShaderLab20SerializedSubProgram15MatrixParameterENS1_9allocatorIS5_EEEERKNS2_INS4_15VectorParameterENS6_ISB_EEEEiP16PropertyNamesSet
xhj:_Color_Lerp_m215987766
lyc:__Z44Register_UnityEngine_Object_DestroyImmediatev
VUh:_MethodBuilder_get_MethodHandle_m3014975995
swf:_EncryptedData_get_EncryptedContent_m4251099585
Lmc:__Z26scripting_class_has_parent17ScriptingClassPtrS_
Uca:__ZN13RuntimeStaticI21AssetReferenceStorageLb0EE16StaticInitializeEPv
fSi:_InternalEnumerator_1_get_Current_m4168714648_gshared
xIf:_FileStream_GetSecureFileName_m1804109373
LY:__Z71Register_UnityEngine_AudioSource_INTERNAL_CALL_ClearExtensionPropertiesv
VRh:_DerivedType_GetField_m4208038965
Luf:_KeyPairPersistence__CanSecure_m1502995542
jae:__ZN6il2cpp8metadata25Il2CppGenericClassCompare7CompareEPK18Il2CppGenericClassS4_
HG:__ZNK8Animator20IsInMatchTargetStateEv
Jsi:_Enumerator_System_Collections_IEnumerator_Reset_m2643232260_AdjustorThunk
Tm:FUNCTION_TABLE_viiifiii
oBc:__Z36Register_UnityEngine_GUI_set_changedv
UHg:_IntStack_Push_m2812492814
Vkf:_Array_Sort_TisUIVertex_t651853193_TisUIVertex_t651853193_m1941502288_gshared
t2i:_ResolveEventArgs__ctor_m995867973
y5j:__GLOBAL__sub_I_Il2CppCodeRegistration_cpp
SA:__ZN27AnimationLayerMixerPlayable18SetInputConnectionEP8Playablei
BA:__ZN7mecanim28TransformValueArrayBlendNodeEiiiRKNS_10ValueArrayERKNS_14ValueArrayMaskERS0_RS3_RNS_16ValueArrayWeightEf
t0g:_Type_GetPseudoCustomAttributes_m3455513579
JRh:_ConstructorBuilder_ToString_m3117105855
Sbe:_HMAC_Dispose_m3559165843
ctj:_RectTransform_add_reapplyDrivenProperties_m4002769464
LZh:_MonoMethod_MakeGenericMethod_impl_m2657270305
Eud:__ZN6il2cpp2vm5Class40GetInterfaceInvokeDataFromVTableSlowPathEPK12Il2CppObjectPK11Il2CppClassj
YFf:_Int64_Parse_m3212018842
wUa:__ZN20TierGraphicsSettings8TransferI18StreamedBinaryReadILb0EEEEvRT_
rPd:__GLOBAL__sub_I_Thread_cpp
UZa:__ZN14SafeBinaryRead8TransferINSt3__24pairIN9ShaderLab16FastPropertyNameE10ColorRGBAfEEEEvRT_PKc17TransferMetaFlags
Rrd:__ZL9rshift128PyS_
n9b:__Z10pqHeapInitP13PriorityQHeap
EQi:_U3CGetEnumeratorU3Ec__Iterator0_Reset_m2202575219_gshared
$ce:_RC2_set_KeySize_m1407075375
fNd:__ZN14dense_hash_mapI10KeyWrapperINSt3__24pairIPK12PropertyInfoP11Il2CppClassEEEj17ReflectionMapHashIS8_ENS9_14EqualsComparerINS1_8equal_toIS8_EEEENS1_9allocatorINS2_IKS9_jEEEEE13set_empty_keyERSH_
sk:_glRenderbufferStorage
HUd:__ZNK15dense_hashtableINSt3__24pairIK10KeyWrapperINS1_IPKcS4_EEEiEES6_24NamespaceAndNamePairHashN14dense_hash_mapIS6_iS9_NS6_14EqualsComparerI26NamespaceAndNamePairEqualsEENS0_9allocatorIS8_EEE9SelectKeyESD_SF_E13find_positionERS7_
wtc:__Z45Register_UnityEngine_Input_get_touchSupportedv
Yld:__ZN11UnityEngine15PlatformWrapper28GetTextureFormatSupportFlagsEv
J2c:_UNITY_FT_Create_Class_pshinter_module_class
H7c:_cf2_setError
E9a:__ZN14SafeBinaryRead21TransferSTLStyleArrayI13dynamic_arrayI12BoneWeights4Lj16EEEEvRT_17TransferMetaFlags
$Sf:_Enumerator_VerifyState_m3051383508_gshared
bkb:__Z33InterpolateLightProbeCoefficientsRK17LightProbeContextRK29LightProbeSamplingCoordinatesR20SphericalHarmonicsL2
iSb:__ZZ23InitPlayerLoopCallbacksvEN35PreUpdateSendMouseEventsRegistrator7ForwardEv
r3i:_RuntimeResourceSet__ctor_m1240645646
Tna:__ZNK6Camera25GetNormalizedViewportRectEP13RenderTextureb
a8f:_Collection_1_IsValidItem_m1514774962_gshared
lh:_glDisable
Dak:_llvm_ctlz_i64
fbi:__Z87RuntimeInvoker_RuntimeObject_RuntimeObject_Int32_t497012075_RuntimeObject_RuntimeObjectPFvvEPK10MethodInfoPvPS4_
uee:_RSA_ZeroizePrivateKey_m3681188715
xYa:__ZN13RenderTexture8TransferI24GenerateTypeTreeTransferEEvRT_
jXg:_UTF8Encoding_InternalGetCharCount_m1395920631
Lu:__ZN7mecanim9animation9DenseClip8TransferI24GenerateTypeTreeTransferEEvRT_
a1d:__ZN6il2cpp5utils11StringUtils15StringDuplicateEPKDsj
zz:__ZN17AnimationPlayable17ProcessRootMotionEP35AnimationPlayableEvaluationConstantP32AnimationPlayableEvaluationInputP33AnimationPlayableEvaluationOutput
zyj:_Vector3_get_one_m4148881513
mbc:__Z21GenerateTilingAreaJobP22GenerateTilingAreaInfoj
Ida:__ZNSt3__26vectorINS_4pairIyP17VertexDeclarationEENS_9allocatorIS4_EEE6assignIPS4_EENS_9enable_ifIXaasr21__is_forward_iteratorIT_EE5valuesr16is_constructibleIS4_NS_15iterator_traitsISB_E9referenceEEE5valueEvE4typeESB_SB_
Clk:b118
Dlk:b119
$1g:_UInt32_System_IConvertible_ToUInt64_m4221982067_AdjustorThunk
fTb:__ZNK8Material12GetPassCountEv
tlk:b110
ulk:b111
vlk:b112
nak:_bitshift64Ashr
xlk:b114
ylk:b115
Alk:b116
Blk:b117
oWc:__ZN11Rigidbody2D23VirtualRedirectTransferER14SafeBinaryRead
MNh:__ZL57FilterBehavior_t2995464440_CustomAttributesCacheGeneratorP21CustomAttributesCache
vra:__ZN4crnd12crn_unpacker22decode_alpha_endpointsEv
_Ji:_Scrollbar_get_axis_m1681881727
iNi:_Shadow_set_effectColor_m1514111465
P3e:_StackTrace__ctor_m1315583160
U1b:__Z23CullDynamicObjectsUmbraPK4AABBPKN5Umbra15OcclusionBufferER9IndexList
pC:__ZThn148_NK26AnimatorControllerPlayable41GetStateMachineBehaviourVectorDescriptionEv
J4c:_tt_cmap4_char_next
Mtg:_TlsClientCertificate_FindParentCertificate_m204396571
zMi:_Selectable_get_colors_m287740616
Fwj:_Transform_INTERNAL_get_localPosition_m1216131240
tEe:_InputField_set_inputType_m357290888
u3:__GLOBAL__sub_I_runtime_assetbundles_1_cpp
E7i:_ContextAttribute_Equals_m1946287097
rQ:__ZN4FMOD7Channel11setPositionEjj
di:_glBindSampler
Krg:_TlsServerKeyExchange__ctor_m2095637123
R8h:__Z51RuntimeInvoker_Double_t2155864068_Int64_t2229785298PFvvEPK10MethodInfoPvPS4_
hi:_glGetVertexAttribiv
i3j:_Animator_ResetTrigger_m4134878761
Tdd:__ZN2UI11CanvasGroup23VirtualRedirectTransferER18StreamedBinaryReadILb0EE
Hve:_CanvasUpdateRegistry_TryRegisterCanvasElementForGraphicRebuild_m2046963534
gRe:_BitArray_CopyTo_m3763452263
ZHc:__ZN8JSONRead8TransferIbEEvRT_PKc17TransferMetaFlagsb
xqf:_Context_t2895725629_marshal_pinvoke_back
N2a:__ZN26CustomRenderTextureManager19PreAllocateMaterialEP19CustomRenderTexture
Z2d:_GC_promote_black_lists
NIc:__Z29Transfer_Blittable_ArrayFieldI8JSONRead8Vector4fEvRT_R9ArrayInfoRK23StaticTransferFieldInfo
r1g:_UInt16_ToString_m203572553
no:FUNCTION_TABLE_vf
Oo:FUNCTION_TABLE_vd
Qo:FUNCTION_TABLE_vi
b5:__ZN13RuntimeStaticI37UnityShaderCompilerExtPluginConfigureLb0EE16StaticInitializeEPv
eEg:_X509Certificate2_Find_m3925670677
s3j:_SkeletonBone_t1650130445_marshal_pinvoke_back
wnd:__ZN11UnityEngine7Connect17DeviceStatusEvent20SetDeviceAspectRatioEf
rxj:_DelegatePInvokeWrapper_RequestAtlasCallback_t3067736298
i$i:_InternalEnumerator_1_System_Collections_IEnumerator_get_Current_m3953098838_gshared
s5f:_Collection_1_System_Collections_IList_Contains_m2364658906_gshared
E$g:_Type_internal_from_handle_m71175992
AM:__ZNK8Animator17HasBoundPlayablesEv
$Wc:__ZN17Physics2DSettings8TransferI24GenerateTypeTreeTransferEEvRT_
mCc:__ZN5Unity9rapidjson13GenericReaderINS0_4UTF8IcEES3_13JSONAllocatorE10ParseFalseILj0ENS0_19GenericStringStreamIS3_EENS0_15GenericDocumentIS3_S4_S4_EEEEvRT0_RT1_
j9e:_Array_InternalArray__ICollection_Contains_TisUInt32_t3065744608_m3646340303_gshared
bOi:_Slider_FindSelectableOnRight_m334882585
azj:_Vector4_op_Implicit_m672311300
TCd:__ZN6il2cpp2vm7Runtime9SetConfigEPKc
RCc:__ZN5Unity9rapidjson12PrettyWriterI16TempBufferWriterNS0_4UTF8IcEES4_13JSONAllocatorE10StartArrayEv
ua:invoke_iiifiii
MRd:__ZN6il2cpp2vm9Exception11FromNameMsgEPK11Il2CppImagePKcS6_S6_
Zme:_String_memcpy1_m3472241786
wn:FUNCTION_TABLE_fiiifii
ebi:__Z99RuntimeInvoker_Void_t3431959231_Int32_t497012075_Int32_t497012075_Int32_t497012075_Int32_t497012075PFvvEPK10MethodInfoPvPS4_
QL:__ZN10HumanTrait15InitializeClassEv
Rfa:__Z14GetTimeManagerv
xbc:__ZneRK20SpriteTilingPropertyS1_
_3e:_Double_System_IConvertible_ToBoolean_m181786256
Oqd:__ZN19TransportJavaScript7CleanupEv
DLa:__Z12GUIDToStringRK9UnityGUIDPc
kXg:_UTF8Encoding_Fallback_m636643792
FT:__ZN11AudioSource22UnmuteActiveVideoSinksEv
Z0d:__ZN4utf88internal20is_overlong_sequenceIiEEbjT_
Cte:_TouchInputModule_FakeTouches_m1009318053
xd:_glReadBuffer
rNa:__Z9SetLocalR15TransformAccessRKN4math7_float4Ey
MZb:__Z30SetupBakedOcclusionForGeometrybRK26SharedLightmapSettingsDataRK15LightmapIndicesR17ShaderPassContext
t7i:_Context_DoCallBack_m13393964
Xwf:_PKCS12_GetExistingParameters_m2863547525
tOj:_GUILayoutUtility_get_spaceStyle_m4204691433
erc:__Z41Register_UnityEngine_Cursor_get_lockStatev
iZb:__Z14SetupLightmapsRK8Vector4fS1_R17ShaderPassContext
FLd:__ZN14dense_hash_mapI10KeyWrapperIPK14Il2CppAssemblyEPK22Il2CppMonoAssemblyNameN6il2cpp5utils11PointerHashIS2_EENS4_14EqualsComparerINSt3__28equal_toIS3_EEEENSD_9allocatorINSD_4pairIKS4_S7_EEEEE13set_empty_keyERSJ_
Wgj:_Camera_INTERNAL_CALL_ScreenPointToRay_m3542185151
tXa:__ZL20InitializeGUIShadersv
Rse:_StandaloneInputModule_set_inputActionsPerSecond_m3025016763
Pdc:__Z20DestroyObjectDelayedP6Objectf
Aof:_ExecuteEvents_ExecuteHierarchy_TisRuntimeObject_m3484999408_gshared
ovh:__ZL99SceneManager_t1731161087_CustomAttributesCacheGenerator_SceneManager_LoadScene_m1054877120____mode1P21CustomAttributesCache
GOc:__ZN10ClipperLib11ClipperBase5ResetEv
Ulf:_Dictionary_2_Do_CopyTo_TisKeyValuePair_2_t1903739822_TisRuntimeObject_m374674421_gshared
Rei:__Z68RuntimeInvoker_Color_t1961196145_Single_t209704323_Single_t209704323PFvvEPK10MethodInfoPvPS4_
KEi:_EqualityComparer_1_System_Collections_IEqualityComparer_Equals_m1397737890_gshared
Fxe:_DefaultControls_CreateText_m3911869860
P4e:_EntryPointNotFoundException__ctor_m2918509300
kP:__ZN11AudioFilter6GetDSPEv
qnf:_Array_InternalArray__get_Item_TisILTokenInfo_t1114482274_m1658755450_gshared
jMf:_StringReader_CheckObjectDisposedException_m2851018644
Xuf:_PKCS1_I2OSP_m1777886981
M7:__ZN19RuntimeSceneManager14CanUnloadSceneEP10UnityScene
HWb:__Z22ExtractRenderNodeQueueRK11CullResults15ExtractionFlagsR15RenderNodeQueue
NWh:_TypeBuilder_GetPropertyImpl_m1573241113
$xd:__ZN14dense_hash_mapI10KeyWrapperIN6il2cpp5utils13dynamic_arrayIPK10Il2CppTypeLj4EEEEPFvvENS1_8metadata19Il2CppSignatureHashENS8_14EqualsComparerINSB_22Il2CppSignatureCompareEEENSt3__29allocatorINSG_4pairIKS8_SA_EEEEEC2EjRKSC_RKSF_
gNj:_GUIStyle_SetDefaultFont_m370150560
rO:__ZN24AudioScriptBufferManagerC2Ev
VJc:__ZN11UnityEngine9Analytics18SceneLoadTimeEvent12ToJsonStringER9JSONWrite
AHi:_MaskableGraphic_OnEnable_m2366092453
L$c:__ZNSt3__26vectorIh13stl_allocatorIhL18MemLabelIdentifier1ELi16EEE8__appendEj
Otf:_KeyPairPersistence__cctor_m74931895
dCc:__ZN8JSONRead32GetValueForKeyWithNameConversionEPKN5Unity9rapidjson12GenericValueINS1_4UTF8IcEE13JSONAllocatorEEPKc
O$c:__ZN20TextRenderingPrivate8FontImpl16ResetPackingDataEv
gPh:_Assembly_GetType_m2780706971
d3f:_List_1_set_Capacity_m326205234_gshared
MDc:__Z18Transfer_BlittableI9JSONWriteLb0EfEvRK29SerializationCommandArgumentsR31RuntimeSerializationCommandInfo
Nqa:__Z21GetAsyncUploadManagerv
Vj:_emscripten_glDetachShader
VHf:_Path_SameRoot_m2144310570
aOg:_WellKnownClientTypeEntry__ctor_m3884307578
Bqa:__ZN17GenericDynamicVBO20ReleaseChunkInternalERK21DynamicVBOChunkHandlejj
rtg:_Context_ChangeProtocol_m1292727961
xcd:__ZL27CleanupModule_TextRenderingv
Ayf:_Activator_CheckAbstractType_m3395754223
N6j:_fmodl
SXe:_Convert_ToDecimal_m593936256
$6j:_fmodf
tGb:__Z18Transfer_BlittableI18StreamedBinaryReadILb1EELb1E4AABBEvRK29SerializationCommandArgumentsR31RuntimeSerializationCommandInfo
CEa:__ZN12CachedWriter11Align4WriteEv
LXb:__Z20DoDeferredRenderLoopR17RenderLoopContextR13dynamic_arrayI16RenderObjectDataLj4EES4_RK11CullResultsRP13RenderTextureSA_Pb
UJi:_Scrollbar_OnEnable_m2343723389
PPb:__ZN19RuntimeSceneManager11CreateSceneEv
V6c:_ps_get_standard_strings
LZb:__Z27SetupBakedOcclusionForLightbRK15SharedLightDataR17ShaderPassContext
y8d:__ZN6il2cpp2os5Mutex6UnlockEv
Tke:_Single_ToString_m913964194_AdjustorThunk
Kui:_ShimEnumerator_get_Entry_m154979411_gshared
hOf:_MissingMemberException_get_Message_m981048854
ZTi:_InternalEnumerator_1_get_Current_m994051599_gshared
Ngj:_Camera_INTERNAL_set_pixelRect_m2829116051
uxf:_PKCS12_RemoveCertificate_m1493113177
HTb:__Z18RenderImageFiltersR10RenderLoopb
$2:__Z19free_alloc_internalPv18MemLabelIdentifier
hhd:__Z43CanvasRenderer_Get_Custom_PropMaterialCountP12Il2CppObject
WZb:__ZNSt3__227__insertion_sort_incompleteIR23CompareReflectionProbesP31RuntimeReflectionProbeBlendInfoEEbT0_S5_T_
Dlc:__ZN14SpriteRenderer8SetFlipXEb
gJc:__ZN8JSONRead21TransferSTLStyleArrayI13dynamic_arrayI11QuaternionfLj4EEEEvRT_17TransferMetaFlags
Gt:__ZNSt3__26vectorIN13AnimationClip10FloatCurveE13stl_allocatorIS2_L18MemLabelIdentifier26ELi16EEE6assignINS_11__wrap_iterIPS2_EEEENS_9enable_ifIXaasr21__is_forward_iteratorIT_EE5valuesr16is_constructibleIS2_NS_15iterator_traitsISC_E9referenceEEE5valueEvE4typeESC_SC_
fVf:_List_1_System_Collections_IList_set_Item_m2720789755_gshared
dK:__ZN18StreamedBinaryReadILb0EE21TransferSTLStyleArrayI22OffsetPtrArrayTransferI9OffsetPtrIN7mecanim12statemachine18TransitionConstantEEEEEvRT_17TransferMetaFlags
Hwf:_PKCS12_GetSymmetricAlgorithm_m3737058931
$mc:__ZN19RuntimeSceneManager32LoadSceneAsyncByNameOrBuildIndexERKN4core12basic_stringIcNS0_20StringStorageDefaultIcEEEEiNS_11LoadingModeEb
ida:__ZN10InputEventD2Ev
qPf:_MonoType_GetEvent_m3680473092
$kc:__ZN24CompressedAnimationCurve18DecompressTimeKeysI11QuaternionfEEvR17AnimationCurveTplIT_E
zpa:__ZN15dense_hashtableINSt3__24pairIK9TextureIDiEES2_N12TextureIdMap20TextureIDHashFunctorEN14dense_hash_mapIS2_iS6_NS0_8equal_toIS2_EE13stl_allocatorIS4_L18MemLabelIdentifier67ELi16EEE9SelectKeyES9_SC_E12resize_deltaEjj
_qd:__ZN22UnityWebRequestManagerD2Ev
oke:_Single_System_IConvertible_ToInt64_m392413148_AdjustorThunk
x9j:__ZNK10__cxxabiv117__class_type_info16search_above_dstEPNS_19__dynamic_cast_infoEPKvS4_ib
Aei:__Z97RuntimeInvoker_Void_t3431959231_Int32_t497012075_RuntimeObject_Int32_t497012075_SByte_t1872536467PFvvEPK10MethodInfoPvPS4_
xhi:__Z64RuntimeInvoker_Ray_t1925111898_RuntimeObject_Vector2_t1132184324PFvvEPK10MethodInfoPvPS4_
jMc:__ZNK12b2MotorJoint17GetReactionTorqueEf
RRe:_CollectionBase_get_Count_m2964833359
qPc:__ZN10ClipperLib7Clipper18SwapPositionsInSELEPNS_5TEdgeES2_
PAd:__ZN6il2cpp2vmL17IsSocketAsyncCallEP14Il2CppDelegate
vYc:__Z13RegisterClassI11Rigidbody2DEvv
Cme:_String_ToLowerInvariant_m2361726994
x0d:__ZN6il2cpp2vm6String6NewLenEPKcj
QNb:__ZN17PersistentManager9AddStreamEv
uwf:_StrongName_get_PublicKey_m3243675382
ll:_time
Ezf:_GregorianCalendar_GetYear_m3712807088
eRi:_ArrayReadOnlyList_1_IndexOf_m1157693109_gshared
zNa:__ZN14BatchAllocator6CommitE18MemLabelIdentifier
n8c:_cf2_stack_free
ekf:_Array_Resize_TisUILineInfo_t233092741_m4197461192_gshared
dIc:__ZN8JSONRead21TransferSTLStyleArrayI13dynamic_arrayIyLj8EEEEvRT_17TransferMetaFlags
nz:__ZN7mecanim9animation19EvaluateFloatValuesEPKNS0_18ClipMuscleConstantEPKNS_18ValueArrayConstantEPKNS0_12ClipBindingsEPKNS0_10ClipOutputEPNS0_18AnimationNodeStateEfbb
mH:__ZN8Animator31ClearInternalControllerPlayableEv
Xze:_Graphic__ctor_m2461943527
vhj:_Color_op_Multiply_m633855509
mgi:__Z132RuntimeInvoker_RaycastHit2D_t2925993810_Vector2_t1132184324_Vector2_t1132184324_Single_t209704323_Int32_t497012075_Single_t209704323PFvvEPK10MethodInfoPvPS4_
xHd:__ZN15dense_hashtableINSt3__24pairIK10KeyWrapperINS1_IPK9FieldInfoP11Il2CppClassEEEjEES9_17ReflectionMapHashIS8_EN14dense_hash_mapIS9_jSD_NS9_14EqualsComparerINS0_8equal_toIS8_EEEENS0_9allocatorISB_EEE9SelectKeyESI_SK_E4findERSA_
skk:_glDeleteSync__wrapper
sYg:_SynchronizationLockException__ctor_m1140148505
Nec:__ZN13ProduceHelperI30RuntimeInitializeOnLoadManagerLb0EE7ProduceE18MemLabelIdentifier18ObjectCreationMode
Nce:_MD5CryptoServiceProvider_ProcessBlock_m1390020620
Vif:_Array_InternalArray__set_Item_TisSByte_t1872536467_m1744026009_gshared
w3b:__ZN13RenderTexture19SetAutoGenerateMipsEb
dsa:__Z20GetTextureFormatInfo13TextureFormat
aC:__ZN26AnimatorControllerPlayable8GetFloatEiRf
Rbh:__ZL79Assembly_t844432591_CustomAttributesCacheGenerator_Assembly_GetName_m3375527685P21CustomAttributesCache
vtd:__ZN6il2cpp2vm5Class4InitEP11Il2CppClass
U6d:__ZN6il2cpp5utils10MemoryPool6MallocEj
LN:__ZN11SoundHandle8InstanceD2Ev
nlg:_BigInteger__ctor_m653928500
rga:__ZN31CanvasBatchIntermediateRenderer13StaticDestroyEPv
p9:__ZNSt3__23mapIiP15MonoScriptCacheNS_4lessIiEE13stl_allocatorINS_4pairIKiS2_EEL18MemLabelIdentifier78ELi16EEEixERS7_
ivg:_HttpsClientStream_RaiseServerCertificateValidation_m3320856292
yYg:_Thread_CurrentThread_internal_m1679435411
eXe:_DateTime_IsLeapYear_m18150272
rhk:_emscripten_glBindProgramARB__wrapper
brc:__Z41Register_UnityEngine_CullingGroup_Disposev
U8i:_Mark_get_Index_m3133216701
KCj:_X509Store__ctor_m3512825261
y1a:__ZN7Cubemap23VirtualRedirectTransferER19StreamedBinaryWriteILb0EE
HWf:_List_1_set_Item_m31022629_gshared
ljk:_emscripten_glTexParameterfv__wrapper
cKa:__ZN25MultiBlocksMemoryFileData5WriteEyyPKv
vNc:__ZNK13b2PulleyJoint16GetReactionForceEf
IPj:_SymmetricTransform_CheckInput_m3051438133
rgg:_ReadOnlyCollection_1_System_Collections_IList_IndexOf_m1067579318_gshared
BMd:__ZN14dense_hash_mapI10KeyWrapperIPK10Il2CppTypeEjN6il2cpp8metadata14Il2CppTypeHashENS4_14EqualsComparerINS6_26Il2CppTypeEqualityComparerEEENSt3__29allocatorINSB_4pairIKS4_jEEEEE13set_empty_keyERSE_
Iaj:_Regex_GetGroupNamesArray_m1308804567
uJf:_FileStream_Write_m3414159356
Pva:__ZL17ProgramUniform2fvPK7ApiGLESjiihPKv
Whk:b83
G$c:__ZN20TextRenderingPrivate8FontImpl21HasCharacterInTextureEjijfPj
H9i:_PatternCompiler_EmitCharacter_m3026259789
dij:_Native_CSSNodeMeasureInvoke_m3140638052
P7j:_htonl
nna:__Z20GetBufferManagerGLESv
kKb:__ZN18StreamedBinaryReadILb0EE21TransferSTLStyleArrayI31ArrayOfManagedObjectsTransfererEEvRT_17TransferMetaFlags
XGc:__Z18Transfer_BlittableI8JSONReadLb0EtEvRK29SerializationCommandArgumentsR31RuntimeSerializationCommandInfo
Fee:_RSACryptoServiceProvider_get_PublicOnly_m375980834
ltf:_CryptoConvert_ToCapiPublicKeyBlob_m3779977780
D$e:_DateTime_get_Month_m3948020652_AdjustorThunk
JZe:_Convert_ToSingle_m1677330146
t9e:_Array_InternalArray__ICollection_Contains_TisHitInfo_t3933698571_m3454739053_gshared
LC:__ZN34AnimationStateMachineMixerPlayable13EndTransitionEv
S0d:__ZNSt3__212basic_stringIDsNS_11char_traitsIDsEENS_9allocatorIDsEEE9__grow_byEjjjjjj
ugf:_Array_InternalArray__ICollection_CopyTo_TisInt32_t497012075_m2629148489_gshared
$Tb:__ZNK19ShaderPropertySheet11HasPropertyERKN9ShaderLab16FastPropertyNameE
EWc:__ZN6b2Body9SetActiveEb
T7a:__ZN15dense_hashtableINSt3__24pairIKN4core12basic_stringIcNS2_20StringStorageDefaultIcEEEE13dynamic_arrayI4PPtrI6SpriteELj4EEEES6_20StringHash32FunctionIS6_EN14dense_hash_mapIS6_SC_SF_NS0_8equal_toIS6_EE13stl_allocatorISD_L18MemLabelIdentifier81ELi16EEE9SelectKeyESI_SL_E4findERS7_
Eb:invoke_didii
v4e:_Double_System_IConvertible_ToUInt16_m2612866230_AdjustorThunk
zjk:_emscripten_glUniform1fv__wrapper
ZSg:_DESCryptoServiceProvider_GenerateIV_m2236888409
GZd:__ZN6il2cpp2os10ThreadImpl33UnregisterCurrentThreadForCleanupEv
zRh:_ConstructorBuilder_get_Name_m2938672014
VLg:_SoapServices_GetXmlNamespaceForMethodCall_m391693544
VA:__ZN27AnimationLayerMixerPlayable22PrepareAnimationEventsEfR13dynamic_arrayI22AnimationClipEventInfoLj4EE
Bwb:__Z18Transfer_BlittableI14SafeBinaryReadLb1E4AABBEvRK29SerializationCommandArgumentsR31RuntimeSerializationCommandInfo
PYd:__ZN6il2cpp6icalls8mscorlib6System4Enum12get_hashcodeEP12Il2CppObject
TYd:__ZN6il2cpp6icalls8mscorlib6System9AppDomain12getCurDomainEv
Iea:__Z22CreateMutexLockedQueue18MemLabelIdentifier
Ggf:_Array_InternalArray__ICollection_CopyTo_TisResourceCacheItem_t3676136783_m3062107867_gshared
Zak:dynCall_viifiii
zO:__ZN9AudioClip7WWWOpenEPKciPjPPvS4_
swb:__Z18Transfer_BlittableI14SafeBinaryReadLb0E8Vector2fEvRK29SerializationCommandArgumentsR31RuntimeSerializationCommandInfo
MUd:__ZN15dense_hashtableINSt3__24pairIK10KeyWrapperINS1_IPKcS4_EEEiEES6_24NamespaceAndNamePairHashN14dense_hash_mapIS6_iS9_NS6_14EqualsComparerI26NamespaceAndNamePairEqualsEENS0_9allocatorIS8_EEE9SelectKeyESD_SF_E12resize_deltaEjj
xnb:__ZN15SerializeTraitsIN9ShaderLab20SerializedSubProgram16TextureParameterEE8TransferI14SafeBinaryReadEEvRS2_RT_
UZg:_TimeSpan__cctor_m435740061
qtc:__Z53Register_UnityEngine_Input_INTERNAL_get_mousePositionv
j5h:__Z33RuntimeInvoker_Double_t2155864068PFvvEPK10MethodInfoPvPS4_
$Oj:_GUIStyleState_Finalize_m3454435868
CMe:_Byte_System_IConvertible_ToSingle_m503899202
HWh:_TypeBuilder_GetConstructorImpl_m3163576867
zYg:_Thread_FreeLocalSlotValues_m3522412657
Iwi:_Enumerator_System_Collections_IEnumerator_Reset_m1178952110_gshared
ISg:_CspParameters__ctor_m661020930
qIf:_File_Delete_m1666393367
_Te:_SyncHashtable_Remove_m307186803
qd:_SDL_GetTicks
lqc:__Z31Camera_CUSTOM_INTERNAL_set_rectP12Il2CppObjectRK5RectTIfE
Evi:_Transform_1_Invoke_m2276296032_gshared
qJd:__ZN15dense_hashtableINSt3__24pairIK10KeyWrapperINS1_IPK11Il2CppImageP11Il2CppClassEEEjEES9_17ReflectionMapHashIS8_EN14dense_hash_mapIS9_jSD_NS9_14EqualsComparerINS0_8equal_toIS8_EEEENS0_9allocatorISB_EEE9SelectKeyESI_SK_E6insertERKSB_
wLf:_StreamReader__ctor_m3361371182
sTh:_TypeBuilder_InvokeMember_m73987407
z1b:__Z21CreateShadowCullerJobP30CreateUmbraShadowCullerJobData
Ahk:_emscripten_glDrawBuffers__wrapper
Hva:__ZL18ProgramUniform2uivPK7ApiGLESjiihPKv
s7f:_Collection_1_IsSynchronized_m3280496386_gshared
x_b:__Z33GenerateShadowCasterPartsSortDataRK16ShadowCasterDatajRK15RenderNodeQueueRKNSt3__26vectorI20ShadowCasterPartData13stl_allocatorIS7_L18MemLabelIdentifier2ELi16EEEERK10Matrix4x4fRjP20ShadowCasterSortData
iY:__Z36AudioSource_Get_Custom_PropIsPlayingP12Il2CppObject
wzb:__Z29Transfer_Blittable_ArrayFieldI14SafeBinaryRead9BoundsIntEvRT_R9ArrayInfoRK23StaticTransferFieldInfo
Zfe:_SHA512Managed_update_m3770702222
k2g:_UInt32_ToString_m990283147
C0e:_DateTime_ToUniversalTime_m3350818433_AdjustorThunk
B7c:_cf2_computeDarkening
sJh:__ZL66Navigation_t2003855052_CustomAttributesCacheGenerator_m_SelectOnUpP21CustomAttributesCache
snf:_Array_InternalArray__get_Item_TisRefEmitPermissionSet_t1830350410_m3097098798_gshared
t3d:_GC_expand_hp_inner
mWd:__ZNK15dense_hashtableI10KeyWrapperIP18Il2CppGenericClassES3_N6il2cpp8metadata22Il2CppGenericClassHashEN14dense_hash_setIS3_S6_NS3_14EqualsComparerINS5_25Il2CppGenericClassCompareEEENSt3__29allocatorIS3_EEE8IdentityESA_SD_E12test_deletedEj
csc:__Z25Screen_Get_Custom_PropDpiv
VIf:_FileStream_get_CanRead_m2673050058
irf:_BigInteger_ToString_m595610110
O0d:__ZN4utf812find_invalidIPKcEET_S3_S3_
ks:__ZNK13AnimationClip8IsLegacyEv
Khj:_Component_get_gameObject_m2099637138
gme:_String_IndexOf_m859301433
N2d:_GC_err_printf
W_i:_InternalEnumerator_1_get_Current_m3735310687_AdjustorThunk
J$:__ZN11UnityEngine15CloudWebService20WebRequestRestClient7PrepareEv
zee:_RSACryptoServiceProvider_get_KeySize_m3300409721
u$c:__ZN20TextRenderingPrivate19NativeTextGenerator23FixLineHorizontalOffsetEiii
rJ:__ZN15SerializeTraitsIN7mecanim6bitsetILj70EEEE8TransferI14SafeBinaryReadEEvRS2_RT_
lLf:_StreamAsyncResult_SetComplete_m577586933
q$g:_Type_get_IsExplicitLayout_m3795763488
VD:__ZN7mecanim9animation19DestroyAnimationSetEPNS0_12AnimationSetERNS_6memory9AllocatorE
Ide:_RijndaelTransform_Decrypt192_m3734467613
qaa:__ZN14SerializedFile7ReleaseEv
Hub:__ZN16MemoryFileSystem4OpenER13FileEntryData14FilePermission16FileAutoBehavior
oI:__ZNK18AnimatorController28HasMultiThreadedStateMachineEv
ega:__ZN13RuntimeStaticI13RendererSceneLb0EE13StaticDestroyEPv
WOi:_Text_get_lineSpacing_m1647761398
Ree:_RSAPKCS1SHA1SignatureDescription__ctor_m1796627801
FCb:__Z18Transfer_BlittableI24GenerateTypeTreeTransferLb1E12PropertyNameEvRK29SerializationCommandArgumentsR31RuntimeSerializationCommandInfo
SRi:_InternalEnumerator_1_get_Current_m3531351010_AdjustorThunk
xfb:__ZN14SafeBinaryRead21TransferSTLStyleArrayI10vector_mapIPKN5Unity4TypeE7Hash128NSt3__24lessIS5_EENS7_9allocatorINS7_4pairIS5_S6_EEEEEEEvRT_17TransferMetaFlags
yO:__ZN9AudioClip18GetQueuedAudioDataEPPvj
lcd:__ZN20TextRenderingPrivate21TextMeshGeneratorImpl14GarbageCollectEv
MYd:__ZN6il2cpp2os5posix15PosixWaitObject13InterruptWaitEv
qVc:__ZN15b2ContactSolver13StoreImpulsesEv
sEb:__Z18Transfer_BlittableI19StreamedBinaryWriteILb0EELb0E9BoundsIntEvRK29SerializationCommandArgumentsR31RuntimeSerializationCommandInfo
oWb:__Z18SetShadowsKeywordsR17ShaderPassContext9LightType10ShadowType16ShadowProjectionbb
eNd:__ZN14dense_hash_mapI10KeyWrapperINSt3__24pairIPK12PropertyInfoP11Il2CppClassEEEj17ReflectionMapHashIS8_ENS9_14EqualsComparerINS1_8equal_toIS8_EEEENS1_9allocatorINS2_IKS9_jEEEEEC2EjRKSB_RKSF_
Tgc:__ZN17CollisionMeshDataC2Ev
Qye:_Dropdown_Hide_m3720686529
$2a:__ZN16LightmapSettings23VirtualRedirectTransferER19StreamedBinaryWriteILb0EE
zSb:__ZZ23InitPlayerLoopCallbacksvEN47PostLateUpdateMemoryFrameMaintenanceRegistrator7ForwardEv
To:FUNCTION_TABLE_viiififii
WPa:__Z35UnityShaderExtPluginKeywordsEnabledRK16ShaderKeywordSet
okb:__ZN18IDCollectorFunctor18GenerateInstanceIDEi17TransferMetaFlags
tAg:_FileWebRequest__ctor_m2060711115
M9i:_PatternCompiler_EmitSet_m164288599
n7h:__Z60RuntimeInvoker_RuntimeObject_Int64_t2229785298_RuntimeObjectPFvvEPK10MethodInfoPvPS4_
wJf:_FileStream_WriteSegment_m2210279328
pVc:__ZN15b2ContactSolver9WarmStartEv
J5i:_CrossAppDomainChannel_get_ChannelData_m187435740
yUg:_Encoding_get_BigEndianUTF32_m3560286318
LH:__ZN8Animator8TransferI19StreamedBinaryWriteILb0EEEEvRT_
Oba:__ZNSt3__27__sort4IRNS_6__lessI14ObjectLoadDataS2_EEPS2_EEjT0_S6_S6_S6_T_
bng:_BitConverterLE_GetUIntBytes_m3220225372
tqe:_ExecuteEvents_Execute_m1964350921
_Yi:_InternalEnumerator_1_System_Collections_IEnumerator_get_Current_m2484957757_AdjustorThunk
Unc:__Z22PlayableValidityChecksRK9HPlayableb
Zgb:__ZN15ResourceManagerD2Ev
Sqc:__Z41Register_UnityEngine_Camera_GetAllCamerasv
GXc:__ZN14PhysicsQuery2D7RaycastERK8Vector2fS2_fRKN10Collider2D13ContactFilterEPKS3_bP12RaycastHit2Di
pra:__ZN4crnd12crn_unpacker10unpack_dxnEPPhjjjjjj
god:__ZN28PerformanceReportingSettings8TransferI14SafeBinaryReadEEvRT_
Klb:__ZN15CacheWriterBase18GetAddressOfMemoryEv
dHc:__Z18Transfer_BlittableI8JSONReadLb1E5RectTIiEEvRK29SerializationCommandArgumentsR31RuntimeSerializationCommandInfo
LQd:__ZN6il2cpp2vm22EmbeddedResourceRecordC2ERKS1_
WSj:_HashSet_1_Clear_m3291467404_gshared
TNi:_Slider_get_reverseValue_m198276747
jVh:_MethodBuilder_fixup_m4004752037
t1a:__ZN9Texture2D13AwakeFromLoadE17AwakeFromLoadMode
mMg:_ObjRef__ctor_m1479576626
hYd:__ZN6il2cpp2vm3RCW14QueryInterfaceILb0EEEP14Il2CppIUnknownP15Il2CppComObjectRK10Il2CppGuid
eUg:_Encoding_SetFallbackInternal_m378572783
ccb:__ZThn328_N14SpriteRendererD0Ev
GTf:_Enumerator_VerifyState_m1687466240_gshared
Lta:__ZN6prcoreL17RemapGenericFloatI15TexFormatRFloat18TexFormatARGBFloatEEvPKNS_9InnerInfoE
Gkf:_Array_Sort_TisCustomAttributeTypedArgument_t694350192_m1012427725_gshared
PTi:_InternalEnumerator_1_get_Current_m1862707041_gshared
iCe:_HorizontalOrVerticalLayoutGroup_get_childControlHeight_m2426859944
Cfg:_ReadOnlyCollection_1_System_Collections_Generic_ICollectionU3CTU3E_Add_m3088189379_gshared
ipd:__ZN11UnityEngine15PlatformWrapper20GetPlayerPrefsUInt64ERKN4core12basic_stringIcNS1_20StringStorageDefaultIcEEEEy
lXg:_UTF8Encoding_Fallback_m2526604673
ZZb:__ZN20ReflectionProbeCacheC2ER13BatchRendererR15RenderLoopStats
QQh:_CustomAttributeTypedArgument_Equals_m1166001830_AdjustorThunk
$Ni:_Slider_OnMove_m2216816064
Uga:__ZN18AssetBundleManagerC2Ev
Ftb:__ZNK12HandlerChain6ExistsERK13FileEntryData
qhj:_Color_GetHashCode_m2422225033
O_b:__Z30FindDirectAttenuationFromProbeP18ForwardLightsBlockbiRK10RenderNodeRK23FindForwardLightsParamsf
Ceb:__ZN12InputManager23VirtualRedirectTransferER24GenerateTypeTreeTransfer
Ksb:__ZN9Transform23VirtualRedirectTransferER24GenerateTypeTreeTransfer
IEe:_InputField_get_hasSelection_m1716817370
wzc:__ZN12GUIClipState10BeginOnGUIER10InputEvent
Pqb:__ZNSt3__26vectorIN9ShaderLab20SerializedSubProgram12UAVParameterENS_9allocatorIS3_EEE21__push_back_slow_pathIKS3_EEvRT_
MDf:_NumberFormatter_CountTrailingZeros_m4217865188
Fij:_Debug_LogException_m3772508735
o1i:_Comparer_1__cctor_m3395286486_gshared
cad:_UNITY_tt_size_ready_bytecode
g_c:__ZN13TextRendering4FontD2Ev
_0c:_UNITY_FT_Stream_Open
GLg:_RemotingServices_GetRealProxy_m2130462125
dke:_Single_System_IConvertible_ToDateTime_m2553978487
sph:__ZL61ExtensionAttribute_t1366063634_CustomAttributesCacheGeneratorP21CustomAttributesCache
HDb:__Z29Transfer_Blittable_ArrayFieldI24GenerateTypeTreeTransfer9BoundsIntEvRT_R9ArrayInfoRK23StaticTransferFieldInfo
HKa:__ZN10MemoryFile4ReadEyyPvPy
Irb:__ZN8keywords18KeywordSetToStringERK16ShaderKeywordSetRN4core12basic_stringIcNS3_20StringStorageDefaultIcEEEE
gja:__ZN13GfxDeviceGLES26UpdateViewProjectionMatrixEv
Ppe:_EventTrigger_get_triggers_m2523883469
KAj:_PKCS12_get_Keys_m1132035841
Yle:_String_CompareOrdinalCaseInsensitiveUnchecked_m2843323206
bKe:_AsyncCallback_Invoke_m2997460594
_M:__ZN4FMOD3DSP12setParameterEif
lOb:__ZN13MemoryManager16StaticInitializeEv
onf:_Array_InternalArray__get_Item_TisLabelData_t2733971455_m1745623115_gshared
a5h:__Z84RuntimeInvoker_Void_t3431959231_Int32_t497012075_SByte_t1872536467_SByte_t1872536467PFvvEPK10MethodInfoPvPS4_
yf:___cxa_free_exception
JMi:_Selectable_get_isPointerInside_m3181927183
$Q:__ZN4FMOD22FakeModChannelCallbackEPv
qpg:_EncryptedData__ctor_m2352412636
Ef:_emscripten_glValidateProgram
PUa:__ZN4Mesh10CreateMeshEv
enj:_Mathf_RoundToInt_m667305788
yKd:__ZN6il2cpp2gc19AppendOnlyGCHashMapINSt3__24pairIPK9EventInfoP11Il2CppClassEEP21Il2CppReflectionEvent17ReflectionMapHashIS9_ENS2_8equal_toIS9_EEE3AddERKS9_SB_
RN:__ZN4FMOD7SystemI11createSoundEPKcjP22FMOD_CREATESOUNDEXINFOPPNS_5SoundE
Y7c:_cf2_stack_clear
YNj:_GUILayoutEntry_get_margin_m1859267484
ABg:_IPv6Address_Parse_m1220752397
FOc:__ZN10ClipperLib11ClipperBase5ClearEv
x3b:__ZN7Texture13SetAnisoLevelEi
XZ:__ZNSt3__26__treeINS_12__value_typeIN4core12basic_stringIcNS2_20StringStorageDefaultIcEEEEjEENS_19__map_value_compareIS6_S7_NS_4lessIS6_EELb1EEE13stl_allocatorIS7_L18MemLabelIdentifier88ELi16EEE7destroyEPNS_11__tree_nodeIS7_PvEE
akg:_ReadOnlyCollection_1_System_Collections_Generic_IListU3CTU3E_Insert_m2353785625_gshared
Dne:_ASCIIEncoding_GetString_m3027399318
KJc:__ZN27PerformanceReportingManager23VirtualRedirectTransferER24GenerateTypeTreeTransfer
Obd:_raccess_guess_vfat
IVi:_InternalEnumerator_1_System_Collections_IEnumerator_get_Current_m2740113607_AdjustorThunk
oid:__Z44Canvas_CUSTOM_GetETC1SupportedCanvasMaterialv
QTa:__ZN11HaloManager10UpdateHaloEiR9Transform11ColorRGBA32fjP6Object
qpf:_SimpleCollator_SetCJKTable_m3376780878
B5:__ZN33InstancedMeshIntermediateRenderer13StaticDestroyEPv
XYh:_MonoField_GetParentType_m3785258021
pTd:__ZN14dense_hash_mapI10KeyWrapperIP14Il2CppIUnknownEjN6il2cpp5utils11PointerHashIS1_EENS3_14EqualsComparerINSt3__28equal_toIS2_EEEENS9_9allocatorINS9_4pairIKS3_jEEEEE13set_empty_keyERSF_
JSa:__Z21DestroyShadowMapCacheP14ShadowMapCache
uB:__ZN7mecanim9animation25CreateControllerWorkspaceEPKNS0_18ControllerConstantERNS_6memory9AllocatorE
Cpf:_SimpleCollator_GetExtenderType_m2243923554
v1j:_BoxCollider2D_get_size_m2730294714
EMd:__ZN15dense_hashtableINSt3__24pairIK10KeyWrapperIPK10Il2CppTypeEjEES6_N6il2cpp8metadata14Il2CppTypeHashEN14dense_hash_mapIS6_jSB_NS6_14EqualsComparerINSA_26Il2CppTypeEqualityComparerEEENS0_9allocatorIS8_EEE9SelectKeyESF_SH_E14squash_deletedEv
NSd:__ZN6il2cpp2vm13LivenessState5ResetEv
r9g:__ZL79Hashtable_t3967312552_CustomAttributesCacheGenerator_Hashtable__ctor_m293555212P21CustomAttributesCache
Q1j:_Physics2D_get_queriesHitTriggers_m2388990071
nDc:__ZN9JSONWrite8TransferI11KeyframeTplIfEEEvRT_PKc17TransferMetaFlags
d6i:_ConfigHandler_CheckPath_m2765382443
zof:_Array_ConvertAll_TisRuntimeObject_TisRuntimeObject_m3622711820_gshared
cRb:__ZN24BuiltinShaderParamValuesC2Ev
CDc:__ZL41CreateJSONTransferFunctionScriptingTraitsv
Xlb:__ZN6Shader23VirtualRedirectTransferER14SafeBinaryRead
xSe:_Hashtable_AdjustThreshold_m2459650196
g4i:_GCHandle_Alloc_m595081795
yij:_Debug_LogError_m1073649586
mMb:__Z23GetLateBehaviourManagerv
kaa:__ZN10MemoryPool10DeallocateEPv
Jzc:__ZN8GUIState8SetEventERK10InputEvent
hUb:__ZN22RenderingCommandBuffer21RetrieveRenderTextureER18RenderTextureParamPKc
Rwa:__ZN14GfxDeviceStats10ResetFrameEv
A2c:_cff_driver_class_pic_free
mng:_ARC4Managed_KeySetup_m589116563
Xbk:dynCall_vif
cEj:_gem_OnCollisionEnter2D_m2187272226
pIh:__ZL48Image_t1735058944_CustomAttributesCacheGeneratorP21CustomAttributesCache
yVg:_StringBuilder_ToString_m4020898029
bef:_Array_InternalArray__IndexOf_TisCustomAttributeTypedArgument_t694350192_m117389807_gshared
$Jb:__Z18Transfer_BlittableI18StreamedBinaryReadILb0EELb0EdEvRK29SerializationCommandArgumentsR31RuntimeSerializationCommandInfo
IBd:__ZN6il2cpp6icalls8mscorlib6System8MonoType18GetFields_internalEP20Il2CppReflectionTypeiS5_
ADa:__ZN5Unity9Component16CheckConsistencyEv
nof:_CustomAttributeData_UnboxValues_TisCustomAttributeTypedArgument_t694350192_m737147620_gshared
zwa:__ZN7ApiGLES11CheckShaderERjb
yQa:__ZN19ShaderPropertySheet37CreateTextureAuxPropertyUninitializedEN9ShaderLab16FastPropertyNameES1_PKc
WEb:__ZL26Transfer_SimpleNativeClassI19StreamedBinaryWriteILb0EE10RectOffsetLb1EEvRK29SerializationCommandArgumentsR31RuntimeSerializationCommandInfo
nnd:__ZN11UnityEngine7Connect17DeviceStatusEventD2Ev
thg:_ReadOnlyCollection_1_System_Collections_IEnumerable_GetEnumerator_m4063102498_gshared
Q_b:__Z28GetNonInterpolatedLightProbeRK17LightProbeContextjR20SphericalHarmonicsL2
Zla:__ZN13GfxDeviceGLES17SetGpuProgramNameEP10GpuProgramPKc
W$:__ZNK11UnityEngine15CloudWebService25WebRequestDownloadHandler11GetProgressEv
Snf:_Array_InternalArray__get_Item_TisWorkRequest_t3989231335_m2506428818_gshared
sff:_Array_InternalArray__ICollection_Add_TisCustomAttributeNamedArgument_t3990136598_m646834894_gshared
rXf:_List_1_CheckCollection_m997303872_gshared
Yzd:__ZN6il2cpp2vm13MetadataCache28GetMethodDefinitionFromIndexEi
W_d:__ZN6il2cpp2os20FileErrnoToErrorCodeEi
PZa:__ZN14SafeBinaryRead19TransferSTLStyleMapINSt3__23mapI39DeprecatedFastPropertyNameSerialization10ColorRGBAfNS1_4lessIS3_EENS1_9allocatorINS1_4pairIKS3_S4_EEEEEEEEvRT_17TransferMetaFlags
sfj:_UnityAction_Invoke_m1226729162
xyf:_Activator_CreateInstance_m2663345413
gTf:_Enumerator_MoveNext_m2683196216_AdjustorThunk
nh:_atexit
B5g:__ZL53Decimal_t407386666_CustomAttributesCacheGenerator_OneP21CustomAttributesCache
mFj:_OLDTVTube_remove_WantRepaint_m543334651
iUf:_Enumerator_get_Current_m799512635_AdjustorThunk
fLd:__ZN6il2cpp2vmL31GetObjectForMissingDefaultValueEj
$Ii:_GetRaycastNonAllocCallback_Invoke_m4242681994
U3e:_Environment_get_NewLine_m197291062
jld:__ZN11UnityEngine15PlatformWrapper30GetVRPlayAreaBoundaryDimensionEv
Dxd:__ZNK15dense_hashtableINSt3__24pairIK10KeyWrapperIN6il2cpp5utils13dynamic_arrayIPK10Il2CppTypeLj4EEEEPFvvEEESA_NS3_8metadata19Il2CppSignatureHashEN14dense_hash_mapISA_SD_SG_NSA_14EqualsComparerINSF_22Il2CppSignatureCompareEEENS0_9allocatorISE_EEE9SelectKeyESK_SM_E10test_emptyEj
gob:__ZN9ShaderLab14SerializedPassC2ERKS0_
$Ag:_IPAddress_HostToNetworkOrder_m3426278951
LDc:__Z35Transfer_Blittable_FixedBufferFieldI9JSONWritehEvRK29SerializationCommandArgumentsR31RuntimeSerializationCommandInfo
l:STACKTOP
C9c:_cff_get_name_index
q3a:__ZN21EnlightenSceneMapping16BuildRemapTablesEv
Rpe:_EventTrigger_Execute_m1555246377
Vej:_UriParser__cctor_m4059455366
eKi:_Scrollbar_OnPointerDown_m2762957325
A:tempBigIntD
W2b:__ZNK25CameraStackRenderingState25CalculateCameraTargetTypeEv
z:tempBigIntI
AJh:__ZL53RectMask2D_t1826192750_CustomAttributesCacheGeneratorP21CustomAttributesCache
y:tempBigIntR
x:tempBigIntS
w:tempBigIntP
Ln:FUNCTION_TABLE_viffi
x0c:_open_face_PS_from_sfnt_stream
Sba:__ZN6Object18RegisterInstanceIDEPS_
kCb:__Z18Transfer_BlittableI24GenerateTypeTreeTransferLb1EsEvRK29SerializationCommandArgumentsR31RuntimeSerializationCommandInfo
A9g:__ZL52HashValues_t421176734_CustomAttributesCacheGeneratorP21CustomAttributesCache
uXd:__ZN15dense_hashtableINSt3__24pairIK10KeyWrapperIP12Il2CppObjectEN6il2cpp2gc9CachedCCWEEES5_NS7_5utils11PointerHashIS3_EEN14dense_hash_mapIS5_S9_SD_NS5_14EqualsComparerINS0_8equal_toIS4_EEEENS0_9allocatorISA_EEE9SelectKeyESI_SK_E11set_deletedER30dense_hashtable_const_iteratorISA_S5_SD_SM_SI_SK_E
qja:__ZNK9GfxDevice18GetWorldViewMatrixEv
lkj:_UnityEventBase_PrepareInvoke_m2258343203
mhe:_X509Certificate_GetName_m3442499933
L1d:__ZN6il2cpp6icalls8mscorlib6System7Convert17Base64ToByteArrayEPDsib
Sdh:__ZL51_Assembly_t302645036_CustomAttributesCacheGeneratorP21CustomAttributesCache
cxc:__Z42Time_Get_Custom_PropFixedUnscaledDeltaTimev
pPg:_ObjectReader_RecordFixup_m1088638342
ixd:__ZNSt3__218__insertion_sort_3IRN6il2cpp5utils11collections13ArrayValueMapIPK10Il2CppType17Il2CppInteropData26InteropDataToTypeConverterNS1_8metadata14Il2CppTypeLessENSA_26Il2CppTypeEqualityComparerEE12SortComparerEPS8_EEvT0_SH_T_
I2h:__Z113RuntimeInvoker_Boolean_t1367519524_RuntimeObject_Int32_t497012075_RuntimeObject_Int32_t497012075_Int32_t497012075PFvvEPK10MethodInfoPvPS4_
zme:_String_Remove_m506740774
uja:__ZNK9GfxDevice25GetDeviceProjectionMatrixEv
na:invoke_iidiii
qCb:__Z18Transfer_BlittableI24GenerateTypeTreeTransferLb1EtEvRK29SerializationCommandArgumentsR31RuntimeSerializationCommandInfo
FX:__ZN12AudioManager33GetCurrentAmbisonicDefinitionNameE31UnityAudioEffectDefinitionFlags
Omc:__ZN10systeminfo24GetRuntimePlatformStringEv
aGc:__ZN9JSONWrite8TransferI13dynamic_arrayI4AABBLj4EEEEvRT_PKc17TransferMetaFlags
$Y:__ZN5physx14PxLightCpuTask15removeReferenceEv
vZf:_List_1_set_Capacity_m2156870646_gshared
VKi:_ScrollRect_set_elasticity_m2125128491
rhi:__Z82RuntimeInvoker_Vector2_t1132184324_Vector2_t1132184324_RuntimeObject_RuntimeObjectPFvvEPK10MethodInfoPvPS4_
BJj:_UnityAction_1_Invoke_m1173561951_gshared
AQa:__ZN9ShaderLab6TexEnvC2ERKNS_25SerializedTexturePropertyE
yFf:_Int64_System_IConvertible_ToInt16_m1235112952
tbc:__Z28IntersectLineSegmentWithLineRK8Vector2fS1_S1_S1_RS_
oNa:__ZN9Transform32SetLocalScaleWithoutNotificationERKN4math7_float3Ey
cZa:__ZN19ShaderPropertySheet38CopyTextureWithAuxiliaryPropertiesFromERKN9ShaderLab16FastPropertyNameERKS_
s$c:__ZN20TextRenderingPrivate19NativeTextGeneratorD2Ev
zAd:__ZN6il2cpp2vm19SocketPollingThread14DequeueRequestEv
M_d:__ZL10RevealLinkPv
NIe:_Array_CreateInstance_m3242392383
aOe:_Char_GetUnicodeCategory_m1885894502
tDf:_NumberFormatter_FormatHexadecimal_m3563212290
xbg:__ZN23InterfaceActionInvoker2Ii19UIVertex_t651853193E6InvokeEjP11Il2CppClassP12Il2CppObjectiS0_
Bof:_ExecuteEvents_GetEventHandler_TisRuntimeObject_m759172725_gshared
fck:dynCall_viffffii
Alj:_Input_GetTouch_m829653691
cgi:__Z93RuntimeInvoker_Void_t3431959231_RuntimeObject_PlayableGraph_t340388464_RuntimeObject_IntPtr_tPFvvEPK10MethodInfoPvPS4_
wid:__Z43Register_UnityEngine_Canvas_set_scaleFactorv
shj:_Color_GetHashCode_m2422225033_AdjustorThunk
Pbd:_raccess_guess_linux_cap
uqe:_ExecuteEvents_Execute_m1879871841
TIg:_Interval_Merge_m22351551
gMi:_ScrollRect_OnRectTransformDimensionsChange_m1745196554
lKb:__Z19TransferField_ArrayI18StreamedBinaryReadILb0EE27Converter_UnityEngineObjectEvRK23StaticTransferFieldInfoR31RuntimeSerializationCommandInfoRT0_
zHe:_LayoutRebuilder_StripDisabledBehavioursFromList_m61420223
awf:_SymmetricTransform_Random_m3746091369
OQg:_RuntimeFieldHandle_Equals_m211120092
u6:__Z33InitializeBuiltinShaderParamNamesv
$Da:__ZNK16TypeTreeIterator4TypeEv
bpj:_Object_ToString_m3558648500
yRb:__ZN10FileSystem25MountDataFolderFileSystemERKN4core12basic_stringIcNS0_20StringStorageDefaultIcEEEES6_
oL:__ZN6MotionC2E18MemLabelIdentifier18ObjectCreationMode
Lzg:_NameObjectCollectionBase_BaseGet_m3419289102
Bj:_glGetUniformLocation
Ika:__ZN13GfxDeviceGLES32CreateColorRenderSurfacePlatformEP17RenderSurfaceBase19RenderTextureFormat
fO:__ZN12AudioManager24CreateFMODSoundFromMovieEP9AudioClip
amj:_Logger_GetString_m3925088033
Tci:__Z90RuntimeInvoker_Void_t3431959231_RuntimeObject_Int32_t497012075_RuntimeObject_RuntimeObjectPFvvEPK10MethodInfoPvPS4_
Xyd:__ZN6il2cpp2vm13MetadataCache24GetGenericInstanceMethodEPK10MethodInfoPK20Il2CppGenericContext
vff:_Array_InternalArray__ICollection_Add_TisLabelFixup_t1745572545_m37887113_gshared
Ake:_Single_System_IConvertible_ToUInt64_m1137697803_AdjustorThunk
D3d:_GC_hblk_fl_from_blocks
nQf:_NotImplementedException__ctor_m4002519374
gba:__Z24ConvertSeparatorsToUnityPc
Qeb:__ZNSt3__213__vector_baseI9InputAxisNS_9allocatorIS1_EEED2Ev
xPd:__ZN6il2cpp2vm6Thread20FreeThreadStaticDataEP12Il2CppThread
v$g:_Type_get_IsSerializable_m586538541
l$h:__Z28RuntimeInvoker_RuntimeObjectPFvvEPK10MethodInfoPvPS4_
GRh:_ILGenerator__ctor_m4057356817
Ydh:__ZL54_EnumBuilder_t771846120_CustomAttributesCacheGeneratorP21CustomAttributesCache
eNg:_RemotingConfiguration_LoadDefaultDelayedChannels_m3266235842
l8c:_cf2_glyphpath_finalize
lVb:__Z20LookRotationToMatrixRK8Vector3fS1_P10Matrix3x3f
xoe:_BaseInput_GetMouseButtonDown_m2322977445
PFg:_X509ChainPolicy__ctor_m766856827
xck:dynCall_viififi
jpg:_ContentInfo_get_ASN1_m2584097250
fNf:_UnexceptionalStreamReader_Read_m2019927908
qQg:_SerializationException__ctor_m412045887
Sdf:_Array_InternalArray__IndexOf_TisSlot_t238450354_m3468823076_gshared
t4c:_UNITY_FT_Stream_Free
o0i:_InternalEnumerator_1_System_Collections_IEnumerator_get_Current_m3174355231_gshared
vXg:_UTF8Encoding_Equals_m1460178807
kPd:__ZN15dense_hashtableINSt3__24pairIK10KeyWrapperINS1_IP11Il2CppClassjEEES4_EES6_N6il2cpp8metadata14ArrayClassHashEN14dense_hash_mapIS6_S4_SB_NS6_14EqualsComparerINSA_17ArrayClassCompareEEENS0_9allocatorIS8_EEE9SelectKeyESF_SH_E12maybe_shrinkEv
KCc:__ZNK5Unity9rapidjson12GenericValueINS0_4UTF8IcEE13JSONAllocatorE6AcceptINS0_12PrettyWriterI16TempBufferWriterS3_S3_S4_EEEEbRT_
e0j:_Canvas_get_pixelPerfect_m2002735576
d_:__ZN11UnityEngine15CloudWebService14DataDispatcher25OnDataBlockConsumedStaticEPv
jpf:_MSCompatUnicodeTable_IsHiragana_m3921291176
LDj:_GameControl__ctor_m3854601558
h9f:_Collection_1_Add_m2122969669_gshared
zIb:__Z29Transfer_Blittable_ArrayFieldI18StreamedBinaryReadILb1EE11QuaternionfEvRT_R9ArrayInfoRK23StaticTransferFieldInfo
r2e:_Decimal_GetBits_m1239860087
Kve:_CanvasUpdateRegistry_InternalUnRegisterCanvasElementForGraphicRebuild_m1435645378
_5h:__Z104RuntimeInvoker_RuntimeObject_Int32_t497012075_Int32_t497012075_RuntimeObject_RuntimeObject_RuntimeObjectPFvvEPK10MethodInfoPvPS4_
qZg:_Scheduler__ctor_m3932356210
H:Math_pow
Ymb:__Z14resize_trimmedINSt3__26vectorIN9ShaderLab20SerializedSubProgram16SamplerParameterENS0_9allocatorIS4_EEEEEvRT_j
g9j:__ZNSt3__212basic_stringIcNS_11char_traitsIcEENS_9allocatorIcEEE6insertEjPKcj
EDc:__Z44InitializeTransferFunctionScriptingTraitsForI8JSONReadEvR31TransferFunctionScriptingTraits
Tvc:__Z35SpriteRenderer_Set_Custom_PropFlipXP12Il2CppObjecth
uQb:__ZNSt3__27__sort4IRNS_4lessIN22BuiltinResourceManager8ResourceEEEPS3_EEjT0_S7_S7_S7_T_
nQj:_AesManaged_CreateEncryptor_m483837611
lYc:__ZN15dense_hashtableINSt3__24pairIKiiEEi21InstanceIDHashFunctorN14dense_hash_mapIiiS4_NS0_8equal_toIiEE13stl_allocatorIS3_L18MemLabelIdentifier37ELi16EEE9SelectKeyES7_SA_E14squash_deletedEv
ooe:_ExecuteEvents_get_selectHandler_m1569357398
jzf:_ArgumentException_get_Message_m424918433
nra:__ZN4crnd12crn_unpacker11unpack_dxt5EPPhjjjjjj
kRe:_BitArrayEnumerator_get_Current_m2126023975
Vad:_UNITY_tt_face_get_location
eXg:_UTF8Encoding_InternalGetBytes_m3832872682
l4b:__ZN10GameObject34AddFirstTransformComponentInternalEP9Transform
drc:__Z31Cursor_Get_Custom_PropLockStatev
J4:__ZNSt3__26__treeINS_12__value_typeINS_4pairIPcS3_EENS_3setIS3_15compare_tstringIPKcENS_9allocatorIS3_EEEEEENS_19__map_value_compareIS4_SD_20smaller_tstring_pairIS8_ELb1EEENSA_ISD_EEE7destroyEPNS_11__tree_nodeISD_PvEE
rU:__ZN12AudioManager29GetCurrentAmbisonicDefinitionE31UnityAudioEffectDefinitionFlags
Frc:__Z52Register_UnityEngine_GameObject_GetComponentInParentv
Ifb:__ZN15SerializeTraitsINSt3__24pairIPKN5Unity4TypeE7Hash128EEE8TransferI14SafeBinaryReadEEvRS7_RT_
_2d:_GC_number_stack_black_listed
y1b:__Z37GenerateCombinedDynamicVisibleListJobP11CullResults
APc:__ZN10ClipperLib7Clipper11BuildResultERNSt3__26vectorINS2_INS_8IntPointENS1_9allocatorIS3_EEEENS4_IS6_EEEE
u6a:__ZNK13ScreenManager21GetCursorInsideWindowEv
XI:__ZN14SafeBinaryRead21TransferSTLStyleArrayI22OffsetPtrArrayTransferI9OffsetPtrIN7mecanim12statemachine26SelectorTransitionConstantEEEEEvRT_17TransferMetaFlags
h_d:__ZN6il2cpp2vmL22RaiseOverflowExceptionEv
BFj:_playerController_FixedUpdate_m1808652464
w_b:__Z20IntersectAABBFrustumRK4AABBPK5Planej
goj:_Mesh_SetColors_m316433996
zhc:__ZN13RenderManager15InitializeClassEv
_yb:__ZN15SerializeTraitsI12PropertyNameE8TransferI14SafeBinaryReadEEvRS0_RT_
YOi:_Text_get_fontStyle_m3388482548
xRe:_CaseInsensitiveHashCodeProvider__cctor_m4289999567
w3:__GLOBAL__sub_I_runtime_baseclasses_2_cpp
LFc:__ZN9JSONWrite8TransferI11ColorRGBA32EEvRT_PKc17TransferMetaFlags
rIc:__Z22TransferField_NonArrayI8JSONRead27Converter_SimpleNativeClassI8GradientEEvRK23StaticTransferFieldInfoR31RuntimeSerializationCommandInfoRT0_
fwa:__ZNSt3__26vectorI15ComputeShaderCBNS_9allocatorIS1_EEE21__push_back_slow_pathIKS1_EEvRT_
Pej:_UriScheme_t3118839229_marshal_pinvoke_back
A9i:_PatternCompiler_GetMachineFactory_m3143759765
pNb:__ZN10MonoScript13AwakeFromLoadE17AwakeFromLoadMode
r8i:_AsyncResult_get_IsCompleted_m959949281
_cc:__ZN13ProduceHelperI11MonoManagerLb0EE7ProduceE18MemLabelIdentifier18ObjectCreationMode
_ya:__ZNK18GfxFramebufferGLES15DiscardContentsER12ObjectHandleI17RenderSurface_TagP17RenderSurfaceBaseE
Ffj:_AssetBundleRequest_t3818868630_marshal_pinvoke_back
Szd:__ZN6il2cpp2vm13MetadataCache27GetEventDefinitionFromIndexEi
wZe:_Convert_ToSByte_m2859842367
SEc:__Z18Transfer_BlittableI9JSONWriteLb1EdEvRK29SerializationCommandArgumentsR31RuntimeSerializationCommandInfo
Hgk:_glGetIntegerv__wrapper
AUg:_Encoding_get_BigEndianUnicode_m3115137176
oah:__ZL111RegionInfo_t2912387173_CustomAttributesCacheGenerator_RegionInfo_t2912387173____CurrencyNativeName_PropertyInfoP21CustomAttributesCache
NEa:__ZN10GameObject28FinalizeAddComponentInternalEPN5Unity9ComponentE
u2a:__ZN9Texture2DD2Ev
kwe:_ColorBlock_Equals_m110996502_AdjustorThunk
DUf:_Enumerator_MoveNext_m918558061_AdjustorThunk
ZUa:__ZNK17InstancedPropInfo15RenderInstancesERK15RenderNodeQueuePK17BatchInstanceDataj17ShaderChannelMaskPFbPvS6_iR11MeshBuffersR16DrawBuffersRangeRiSC_E
vne:_ASCIIEncoding_GetBytes_m283580869
LWc:__ZN16PhysicsManager2D43RegisterTransformChangeInterestForRigidbodyEP11Rigidbody2D
rJi:_Raycast3DCallback_EndInvoke_m1277555260
EDf:_NumberFormatter_IsZeroOnly_m223691611
kr:__ZN13dynamic_arrayIhLj1EE18resize_initializedEjRKh12ResizePolicy
e_e:_Convert_ToUInt32_m1549044108
tea:__ZN27IntermediateRendererManagerD2Ev
xkb:__ZN17PersistentManager27GetLoadErrorMessageFromPathERKN4core12basic_stringIcNS0_20StringStorageDefaultIcEEEE
qm:_glGenRenderbuffers
hFi:_EqualityComparer_1_System_Collections_IEqualityComparer_Equals_m3765303494_gshared
Xdh:__ZL64_CustomAttributeBuilder_t68870991_CustomAttributesCacheGeneratorP21CustomAttributesCache
k$b:__Z21IntersectSegmentPlaneRK8Vector3fS1_RK5PlanePS_
hgb:__ZN14PlayerSettings23VirtualRedirectTransferER17RemapPPtrTransfer
Xgk:_emscripten_glGetIntegerv__wrapper
hU:__ZN12AudioManager31GetCurrentSpatializerDefinitionEv
XRi:_InternalEnumerator_1_get_Current_m4019891324_gshared
cqf:_SimpleCollator_IsPrefix_m3457803474
dbb:__ZN12MeshRenderer16UpdateCachedMeshEv
Gyb:__Z19TransferField_ArrayI14SafeBinaryRead27Converter_SimpleNativeClassI8GradientEEvRK23StaticTransferFieldInfoR31RuntimeSerializationCommandInfoRT0_
hbc:__ZN15dense_hashtableINSt3__24pairIKN4core12basic_stringIcNS2_20StringStorageDefaultIcEEEE10vector_setI4PPtrI11SpriteAtlasENS0_4lessISB_EE13stl_allocatorISB_L18MemLabelIdentifier81ELi16EEEEES6_20StringHash32FunctionIS6_EN14dense_hash_mapIS6_SH_SK_NS0_8equal_toIS6_EESE_ISI_LSF_81ELi16EEE9SelectKeyESN_SO_E15insert_noresizeERKSI_
SC:__ZNK27StateMachineBehaviourPlayer25FireStateMachineBehaviourEiiN7mecanim12statemachine19StateMachineMessageE
FZg:_WaitHandle_get_Handle_m2939142369
Wgg:_ReadOnlyCollection_1_System_Collections_IList_Insert_m262429326_gshared
S3b:__ZN6Camera15SetOrthographicEb
W3c:_UNITY_FT_Stream_GetUShort
Bja:__ZN13GfxDeviceGLES14DisableScissorEv
saj:_QuickSearch_SetupShiftTable_m3471022063
jy:__ZN7mecanim9animation17ClearMotionOutputEPNS0_18AnimationNodeStateE
Mc:_glVertexAttrib4f
RUe:_Stack__ctor_m691518076
wVc:__ZN12b2BroadPhase13QueryCallbackEi
K4f:_Queue_1__ctor_m734175239_gshared
TTj:_AudioListener_ReadExtensionPropertyName_m1861931338
jTg:_DecoderReplacementFallback__ctor_m2771287919
i1g:_UInt16_CompareTo_m155410168_AdjustorThunk
mjd:__ZN21UnityAnalyticsManagerD0Ev
DQh:_CustomAttributeData_GetHashCode_m2963093502
Kpf:_SimpleCollator_GetSortKey_m2049125597
C4d:_GC_set_hdr_marks
dVa:__Z17SetupObjectMatrixRK10Matrix4x4fi
MTg:_EncoderFallbackException__ctor_m3091572446
CFj:_playerController_OnCollisionExit2D_m673334013
Vhd:__Z84Register_UnityEngine_RectTransformUtility_INTERNAL_CALL_RectangleContainsScreenPointv
M4:__ZN13RuntimeStaticINSt3__23mapINS0_4pairIPcS3_EEPFbPvR14SafeBinaryReadE20smaller_tstring_pairIPKcENS0_9allocatorINS2_IKS4_S9_EEEEEELb0EE13StaticDestroyES5_
gX:__ZN11AudioSource15InitializeClassEv
U9h:__Z118RuntimeInvoker_Boolean_t1367519524_RuntimeObject_Int32_t497012075_RuntimeObject_SByte_t1872536467_Int32U26_t2768257997PFvvEPK10MethodInfoPvPS4_
dy:__ZN7mecanim9animation16CreateClipMemoryEPKNS0_4ClipEiRNS_6memory9AllocatorE
u0c:_open_face
fgc:__ZZL31RegisterOtherRendererPropertiesR22GenericPropertyBindingEN30Wrapper_RendererReceiveShadows13SetFloatValueEPvf
Qgd:__Z17RegisterModule_UIv
EE:__ZN8Animator24SortJobsBasedOnHierarchyERK13dynamic_arrayINS_11AnimatorJobELj8EERS0_IS2_Lj4EE
UPb:__ZL11LoadManagerRKN4core12basic_stringIcNS_20StringStorageDefaultIcEEEEi
lRi:_ArrayReadOnlyList_1_get_Item_m1526840878_gshared
hfe:_SHA1Internal_ProcessBlock_m3516077234
WWe:_DateTime_ToLocalTime_m2890390257
oka:__ZN9GfxDevice24CreateRenderDepthSurfaceE9TextureIDiiii16TextureDimension17DepthBufferFormat18SurfaceCreateFlags
Dfe:_SHA256Managed_Initialize_m2069833250
Hie:_SecurityElement_ToXml_m14377264
rlg:_BigInteger_get_Rng_m885096266
ZN:__ZN4FMOD5Sound11setUserDataEPv
pv:__ZN7mecanim9animation9DenseClip8TransferI18StreamedBinaryReadILb0EEEEvRT_
Trj:_Rect_set_xMin_m152815386_AdjustorThunk
fmb:__ZN14SafeBinaryRead21TransferSTLStyleArrayINSt3__26vectorIN9ShaderLab19SerializedSubShaderENS1_9allocatorIS4_EEEEEEvRT_17TransferMetaFlags
H0j:_CanvasRenderer_GetColor_m4131380735
Fhd:__Z56Register_UnityEngine_CanvasRenderer_set_popMaterialCountv
NA:__ZN27AnimationLayerMixerPlayable13SetInputCountEi
YKa:__ZNK25SingleBlockMemoryFileData4SizeEv
Ioe:_BaseInputModule_get_input_m3016119893
Ldf:_Array_InternalArray__IndexOf_TisLink_t321403524_m4117258700_gshared
pF:__ZN9BlobWrite8TransferIN7mecanim12statemachine18StateMachineMemoryEEEvRT_PKc17TransferMetaFlags
UR:__ZL50UnityAudioEffect_InternalSetFloatParameterCallbackP14FMOD_DSP_STATEif
TWd:__ZNK15dense_hashtableINSt3__24pairIK10KeyWrapperIP12Il2CppObjectEN6il2cpp2gc9CachedCCWEEES5_NS7_5utils11PointerHashIS3_EEN14dense_hash_mapIS5_S9_SD_NS5_14EqualsComparerINS0_8equal_toIS4_EEEENS0_9allocatorISA_EEE9SelectKeyESI_SK_E3endEv
r2:__ZN17LowLevelAllocator4FreeEPvj
Efe:_SHA384__ctor_m2422807049
i_f:_List_1_CheckCollection_m209639730_gshared
vzj:_TypeInferenceRuleAttribute__ctor_m149726589
Sxf:_X509CertificateEnumerator_System_Collections_IEnumerator_MoveNext_m1844076416
ysd:__ZN15dense_hashtableINSt3__24pairIK10KeyWrapperIPK22Il2CppGenericParameterEP11Il2CppClassEES6_N6il2cpp5utils11PointerHashIS4_EEN14dense_hash_mapIS6_S9_SE_NS6_14EqualsComparerINS0_8equal_toIS5_EEEENS0_9allocatorISA_EEE9SelectKeyESJ_SL_E9copy_fromERKSO_j
t0b:__ZN14qsort_internal5QSortIP16RenderObjectDatai25RenderPrePassObjectSorterEEvT_S4_T0_T1_
Kca:__ZL19StaticCleanupPlayerPv
Oic:__ZN13PlayableGraph4StopEv
Sga:__ZN15dense_hashtableINSt3__24pairIKN4core12basic_stringIcNS2_20StringStorageDefaultIcEEEEP11AssetBundleEES6_20StringHash32FunctionIS6_EN14dense_hash_mapIS6_S9_SC_NS0_8equal_toIS6_EENS0_9allocatorISA_EEE9SelectKeyESF_SH_ED2Ev
eTb:__Z24HandleRoundedCornerPropsP19ShaderPropertySheetRK5RectTIfERK8Vector4ff
H6f:_Collection_1_IsSynchronized_m2283243491_gshared
JYh:_MonoEvent_get_ReflectedType_m1817662843
KS:__ZN12AudioManager37RebindAudioSourcesAndSubMixersToMixerEP10AudioMixer
oKf:_MemoryStream_Dispose_m2067960700
U0a:__ZN13StreamingInfo8TransferI14SafeBinaryReadEEvRT_
z9g:__ZL51HashKeys_t3932749996_CustomAttributesCacheGeneratorP21CustomAttributesCache
QEj:_OLDTVFilter3__ctor_m730378280
Emb:__ZN15dense_hashtableINSt3__24pairIKiN4core17string_with_labelILi1EEEEEi18SInt32HashFunctionN14dense_hash_mapIiS5_S7_NS0_8equal_toIiEE13stl_allocatorIS6_L18MemLabelIdentifier1ELi16EEE9SelectKeyESA_SD_E15insert_noresizeERKS6_
Bzj:_ExtendedKeyUsageExtension_Decode_m2881107497
nq:__Z23CalculateGlobalRotation23TransformAccessReadOnly
qZa:__ZNK9ShaderLab7Program11IsSupportedEPK6Shader
CAg:_GlobalProxySelection_get_Select_m1251669715
m0f:_List_1_set_Capacity_m1378144484_gshared
fLi:_ScrollRect_set_horizontalScrollbar_m785750666
Que:_U3COnFinishSubmitU3Ec__Iterator0_Reset_m639843939
uOj:_GUIStyle_set_stretchWidth_m375761458
Ceg:_ReadOnlyCollection_1_System_Collections_Generic_IListU3CTU3E_set_Item_m2956796477_gshared
cgc:__Z43InitializeRendererAnimationBindingInterfacev
PEj:_ObjectPool__ctor_m3082646578
EEe:_InputField_ClampPos_m2378203045
DJi:_Scrollbar_get_value_m757695226
T4d:_GC_allochblk_nth
Qrg:_RecordProtocol_EndSendRecord_m3033619288
Ofd:__ZZN2UI6Canvas15InitializeClassEvEN33FunctorImpl_1523kTransformChanged4CallEPviR11MessageData
qfc:__Z7HaloTexP9Texture2DPhiiii
kdk:dynCall_i
wui:_ShimEnumerator_get_Entry_m3680981686_gshared
IPh:_AssemblyName_ToString_m2696476096
ozb:__ZN14SafeBinaryRead21TransferSTLStyleArrayI13dynamic_arrayIxLj8EEEEvRT_17TransferMetaFlags
uck:dynCall_f
asf:_BigInteger_op_LeftShift_m1060210705
RCb:__Z35Transfer_Blittable_FixedBufferFieldI24GenerateTypeTreeTransferjEvRK29SerializationCommandArgumentsR31RuntimeSerializationCommandInfo
z$a:__ZN8Playable13SetInputCountEi
Lbk:dynCall_v
f3j:_Animator_SetBoolString_m1085463985
$9h:__Z73RuntimeInvoker_Void_t3431959231_DateTime_t2928128394_TimeSpan_t1710996894PFvvEPK10MethodInfoPvPS4_
Hxa:__ZN7ApiGLES14TextureSamplerEjjRK24GfxTextureSamplingParams17TextureColorSpace
PPd:__ZN6il2cpp2vm6Thread8SetStateEP12Il2CppThreadNS0_11ThreadStateE
eRa:__ZN6Camera23VirtualRedirectTransferER14SafeBinaryRead
jGe:_U3CCaretBlinkU3Ec__Iterator0_MoveNext_m4244751588
f9d:__ZNSt3__26vectorINS_12basic_stringIDsNS_11char_traitsIDsEENS_9allocatorIDsEEEENS4_IS6_EEE8__appendEj
scj:_BalancingGroup_Compile_m69677980
Kmd:__ZN11UnityEngine7Connect13ConnectConfig11ConfigValueD2Ev
$na:__ZNSt3__26__treeINS_12__value_typeIjP14DataBufferGLESEENS_19__map_value_compareIjS4_NS_4lessIjEELb1EEENS_9allocatorIS4_EEE7destroyEPNS_11__tree_nodeIS4_PvEE
Zja:__ZN9GfxDevice19PutGeometryJobFenceE13UniqueSmallID
i2g:_UInt32_Parse_m3679240779
Tic:__ZN13PlayableGraph15SetPrepareStageE13DirectorStage
Cb:invoke_viiiiiiii
yff:_Array_InternalArray__ICollection_Add_TisRefEmitPermissionSet_t1830350410_m871482283_gshared
fXi:_InternalEnumerator_1_get_Current_m2543999869_gshared
uAg:_WebRequest__ctor_m2881506151
hya:__ZN18GfxFramebufferGLES24UpdateDefaultFramebufferEP17RenderSurfaceBaseS1_N2gl6HandleILNS2_10ObjectTypeE9EEE
R5j:___shgetc
Vuf:_PKCS1__cctor_m3648195458
kI:__ZNK18AnimatorController17GetAnimationClipsEv
lPh:_Assembly_UnprotectedGetName_m1074437135
Asg:_ClientSessionCache_SetContextFromCache_m644021303
Dvg:_TlsStream_get_EOF_m2058148220
lIa:__ZN12FileAccessor4ReadEyPvPy
y0g:_TypeInitializationException__ctor_m1286100418
iBc:__Z42Register_UnityEngine_Event_get_commandNamev
eNj:_GUIUtility_GetDefaultSkin_m2055833882
LCc:__ZN5Unity9rapidjson12PrettyWriterI16TempBufferWriterNS0_4UTF8IcEES4_13JSONAllocatorE12PrettyPrefixENS0_4TypeE
Nba:__ZNK15FileSystemEntry6ExistsEv
o$e:_DateTimeFormatInfo_GetAbbreviatedDayName_m325654436
Ebb:__ZNK9Transform21GetLocalToWorldMatrixER10Matrix4x4f
CIf:_StreamReader__ctor_m233927979
aJe:_Array_ClearInternal_m1149389441
cPh:_Assembly_GetTypes_m357911123
rck:dynCall_iii
hUg:_Encoding_GetByteCount_m3308744317
_O:__ZN13AudioListener23VirtualRedirectTransferER19StreamedBinaryWriteILb0EE
dla:__ZN13GfxDeviceGLES11CopyTextureE9TextureIDS0_
Rfk:_emscripten_glViewport__wrapper
gw:__ZN6Motion17MainThreadCleanupEv
zrj:_Rect_get_center_m2577135503_AdjustorThunk
sOf:_Object_GetType_m4045261019
q_h:_MonoProperty_ToString_m1245928499
UZi:_InternalEnumerator_1_System_Collections_IEnumerator_get_Current_m402610626_gshared
Y9c:_tt_size_select
Lt:__ZNSt3__214__split_bufferIN13AnimationClip10FloatCurveER13stl_allocatorIS2_L18MemLabelIdentifier26ELi16EEED2Ev
v_:__ZN11UnityEngine15CloudWebService17SessionEventQueue15RestoreFromFileER12FileAccessorPvy
FRd:__ZN6il2cpp2vm9Exception25RaiseOutOfMemoryExceptionEv
_fb:__ZN14PlayerSettingsD2Ev
Ewf:_PKCS12_ReadSafeBag_m3176097139
J4h:__Z63RuntimeInvoker_Single_t209704323_RuntimeObject_Int32_t497012075PFvvEPK10MethodInfoPvPS4_
H3d:_GC_reclaim_all
bPc:__ZN10ClipperLib15FirstIsBottomPtEPKNS_5OutPtES2_
Wea:__ZN13PlayableGraph14DestroyOutputsEv
dAe:_Graphic_SetAllDirty_m1050622690
wf:___syscall122
tTg:_EncoderExceptionFallback__ctor_m1497341458
Bzg:_NameObjectCollectionBase_System_Collections_ICollection_CopyTo_m1413938307
Uof:_MSCompatUnicodeTable_GetResource_m3879436141
eQf:_MulticastDelegate_GetInvocationList_m3814655060
RRh:_DerivedType_create_unmanaged_type_m2715557587
fBd:__ZN6il2cpp2vm10ThreadPool5QueueEP14Il2CppDelegatePPvS3_P12Il2CppObject
KLc:__ZN19CompositeCollider2D22AddColliderToCompositeEP10Collider2DRK13dynamic_arrayIP7b2ShapeLj4EE
G_g:_TimeSpan_Subtract_m3717373317
zW:__ZN9AudioClip16EnableLegacyModeEv
awe:_ColorBlock_get_disabledColor_m4267289504_AdjustorThunk
Tqc:__Z52Register_UnityEngine_Camera_INTERNAL_CALL_RaycastTryv
QLf:_StreamWriter__ctor_m3640089131
X7j:_mkdir
noe:_ExecuteEvents_get_deselectHandler_m3167905883
W7d:__GLOBAL__sub_I_MemoryMappedFile_cpp
Kgi:__Z83RuntimeInvoker_Boolean_t1367519524_RuntimeObject_TextGenerationSettings_t3463204300PFvvEPK10MethodInfoPvPS4_
Ock:dynCall_iifi
Toc:__ZN18ScriptingArguments13CopyFromOtherERKS_
Nof:_ContractionComparer__cctor_m364072309
Nhc:__Z16CreateRenderLoopR6Camera
qhg:_ReadOnlyCollection_1_System_Collections_Generic_IListU3CTU3E_set_Item_m3719548809_gshared
b3:_tlsf_create
SGg:_Capture__ctor_m1521419847
ihb:__ZN14SafeBinaryRead21TransferSTLStyleArrayINSt3__26vectorIN15ResourceManager10DependencyE13stl_allocatorIS4_L18MemLabelIdentifier52ELi16EEEEEEvRT_17TransferMetaFlags
uOc:__ZN10ClipperLib7ClipperC1Ei
RLb:__ZN13MonoBehaviour23VirtualRedirectTransferER18StreamedBinaryReadILb0EE
Pnb:__ZN9ShaderLab20SerializedSubProgramC2ERKS0_
b9a:__ZN9Texture3D17UploadToGfxDeviceEv
_9j:__ZNK10__cxxabiv121__vmi_class_type_info27has_unambiguous_public_baseEPNS_19__dynamic_cast_infoEPvi
Xue:_CanvasScaler_set_scaleFactor_m3894524657
v5a:__ZN15QualitySettings23VirtualRedirectTransferER19StreamedBinaryWriteILb0EE
vYb:__Z20RenderFullScreenQuadR9GfxDeviceRK6Camera17ShaderChannelMaskRK5RectTIfEf21MonoOrStereoscopicEye
c$e:_DateTime_System_IConvertible_ToInt64_m3619073940
EJg:_Header__ctor_m782646412
Sai:__Z116RuntimeInvoker_Void_t3431959231_Int32_t497012075_Int32_t497012075_Int32_t497012075_Int32_t497012075_Int32_t497012075PFvvEPK10MethodInfoPvPS4_
w3e:_DebuggerDisplayAttribute__ctor_m2735517734
Wgc:__ZN8Material12CleanupClassEv
pgc:__ZN8Material8GetFloatEN9ShaderLab16FastPropertyNameE
ZMf:_TextWriter_WriteLine_m3590770110
y2c:_psnames_module_class_pic_free
szc:__Z11GetGUIStatev
xg:_pthread_key_create
EWg:_UTF32Decoder_GetChars_m3483446268
Fg:_emscripten_glGetObjectParameterivARB
qRa:__ZN15SerializeTraitsI10ColorRGBAfE8TransferI14SafeBinaryReadEEvRS0_RT_
uWe:_DateTimeFormatInfo_GetInstance_m19336768
Qca:__ZN22BuiltinResourceManager13StaticDestroyEPv
yLc:__ZNK14b2CapsuleShape11ComputeMassEP10b2MassDataf
Wba:__ZN10GameObject17GetComponentIndexEPN5Unity9ComponentE
Zik:_glUniform3uiv__wrapper
Z6a:__ZN14SafeBinaryRead21TransferSTLStyleArrayI13dynamic_arrayI7SubMeshLj4EEEEvRT_17TransferMetaFlags
Mue:_ColorBlock_get_fadeDuration_m3820566661
y1c:__ZNK13TextRendering4Font11GetMaterialEv
GR:__ZN29AudioEffectInternalDefinition9CreateDSPEPN4FMOD6SystemEPvPfP23UnityAudioAmbisonicDataPP25UnityAudioSpatializerData
gkg:_ReadOnlyCollection_1_System_Collections_ICollection_CopyTo_m697107246_gshared
wbd:_UNITY_tt_face_vary_cvt
Jyc:__GLOBAL__sub_I_Grid_cpp
FBd:__ZNK6il2cpp5utils10functional6FilterINSt3__212basic_stringIcNS3_11char_traitsIcEENS3_9allocatorIcEEEENS0_13VmStringUtils21CaseSensitiveComparerEEclIPKcEEbRKT_
bzh:__ZL95Physics2D_t1611131942_CustomAttributesCacheGenerator_Physics2D_Raycast_m1692500109____minDepth4P21CustomAttributesCache
X3h:__Z168RuntimeInvoker_Int32_t497012075_RuntimeObject_Int32_t497012075_Int32_t497012075_Int32_t497012075_RuntimeObject_Int32_t497012075_SByte_t1872536467_ContextU26_t1058351307PFvvEPK10MethodInfoPvPS4_
RLe:_CultureInfo_get_InvariantCulture_m3457969599
Ezc:__Z28DidLoadAllAssembliesCallbackv
N5b:__ZN35RegisterRuntimeInitializeAndCleanup22ExecuteInitializationsEv
ySc:__Z14b2TimeOfImpactP11b2TOIOutputPK10b2TOIInput
W9i:_PatternCompiler_EmitIfDefined_m2857958431
Sgg:_ReadOnlyCollection_1_System_Collections_IList_Add_m3789406410_gshared
XGa:__ZN23PreloadManagerOperation14SetFinalTimingEffff
i:DYNAMICTOP_PTR
eFf:_Int32_ToString_m3077962028_AdjustorThunk
G6i:_ConfigHandler_OnEndParsing_m1421390266
ZTb:__Z11CopyTextureP7TextureiiS0_ii
Kfb:__ZN13BuildSettings8TransferI18StreamedBinaryReadILb0EEEEvRT_
eNf:_UnexceptionalStreamReader_Read_m1558730787
apj:_Object_set_name_m2173414529
Ehc:__ZN10GameObject15InitializeClassEv
Xrc:__Z38Renderer_Get_Custom_PropSortingLayerIDP12Il2CppObject
HYe:_Convert_ToInt16_m2008039812
jUe:_Enumerator_Reset_m4251270570
Nhf:_Array_InternalArray__Insert_TisResourceInfo_t875479330_m2387133859_gshared
GDj:_fallingObject_Update_m1071072926
Jt:__ZN13AnimationClip10FloatCurveC2ERKS0_
B4e:_Double_CompareTo_m3094636750_AdjustorThunk
AAe:_Graphic_OnDisable_m1401864970
JOe:_ArrayList__cctor_m4285596296
doc:__Z25scripting_raise_exception21ScriptingExceptionPtr
Zrd:__ZL11decimalLog2P19il2cpp_decimal_repr
rhb:__ZN15ResourceManager10Dependency8TransferI14SafeBinaryReadEEvRT_
j3d:_GC_extend_size_map
s4e:_Double_System_IConvertible_ToSingle_m3105940189
iS:__ZN4FMOD6System9setDriverEi
l9b:__Z24tessMeshMergeConvexFacesP8TESSmeshi
qWd:__ZN6il2cpp8metadataL24RecursiveGenericDepthForEPK17Il2CppGenericInst
UOa:__ZNK9Transform11GetRotationEv
rvj:_StackTraceUtility_SetProjectFolder_m928927960
BLj:_U3CStartU3Ec__Iterator0_Dispose_m1485512308_gshared
tX:__ZN12AudioManager15DidReloadDomainEv
J6c:_pshinter_get_globals_funcs
SCb:__Z18Transfer_BlittableI24GenerateTypeTreeTransferLb0EyEvRK29SerializationCommandArgumentsR31RuntimeSerializationCommandInfo
tZa:__ZN8Material14CreateMaterialER6ShaderN6Object9HideFlagsEb
P8f:_Collection_1_CheckWritable_m1483784008_gshared
y5c:_tt_cmap12_char_map_binary
eTh:_EnumBuilder_GetField_m3636309032
cza:__Z25GetBuiltinResourceManagerv
D9h:__Z150RuntimeInvoker_Void_t3431959231_Int32_t497012075_Int32_t497012075_Int32_t497012075_Int32_t497012075_Int32_t497012075_Int32_t497012075_Int32_t497012075PFvvEPK10MethodInfoPvPS4_
Wsj:_RectTransform_get_sizeDelta_m575111929
ls:__ZN6Motion21AddSelfToDependenciesER8UserList
BWd:__ZN6il2cpp2gc8GCHandle15GetTargetHandleEP12Il2CppObjectii
Wh:_llvm_trap
u5e:_Enum_ToObject_m1413469119
z6:__ZNSt3__27__sort5IRNS_6__lessIN12_GLOBAL__N_114ParamNameIndexES3_EEPS3_EEjT0_S7_S7_S7_S7_T_
Sje:_SecurityFrame_GetStack_m1638944088
usf:_ASN1__ctor_m49325446
Ms:__ZN11UnityEngine9Animation14GenericBinding8TransferI14SafeBinaryReadEEvRT_
$Gf:_BinaryReader_Dispose_m2189666110
XRa:__Z26scripting_method_get_class18ScriptingMethodPtr
cHd:__ZN15dense_hashtableINSt3__24pairIK10KeyWrapperINS1_IPK14Il2CppAssemblyP11Il2CppClassEEEjEES9_17ReflectionMapHashIS8_EN14dense_hash_mapIS9_jSD_NS9_14EqualsComparerINS0_8equal_toIS8_EEEENS0_9allocatorISB_EEE9SelectKeyESI_SK_EC2ERKSN_j
mLd:__ZN6il2cpp2vm10Reflection7IsFieldEP12Il2CppObject
osi:_Enumerator_System_Collections_IDictionaryEnumerator_get_Value_m2837565828_gshared
etj:_RectTransform_SendReapplyDrivenProperties_m2573893056
IVa:__ZN17CollisionMeshData20VertexDataHasChangedEv
LAd:__ZN6il2cpp2vm21ThreadPoolCompartment12DetachThreadEP12Il2CppThread
XNf:_Math_Sqrt_m3936473900
Eka:__ZN13GfxDeviceGLES30SetBackBufferColorDepthSurfaceEP17RenderSurfaceBaseS1_
Tdh:__ZL59_AssemblyBuilder_t2327028344_CustomAttributesCacheGeneratorP21CustomAttributesCache
YBc:__Z52Register_UnityEngine_GUIUtility_get_systemCopyBufferv
ijc:__ZN16StreamedResource8TransferI18StreamedBinaryReadILb0EEEEvRT_
xtc:__Z49Register_UnityEngine_Input_get_imeCompositionModev
h9i:_MatchCollection__ctor_m1132117931
Dmb:__ZN15dense_hashtableINSt3__24pairIKiN4core17string_with_labelILi1EEEEEi18SInt32HashFunctionN14dense_hash_mapIiS5_S7_NS0_8equal_toIiEE13stl_allocatorIS6_L18MemLabelIdentifier1ELi16EEE9SelectKeyESA_SD_E12resize_deltaEjj
zei:__Z113RuntimeInvoker_Void_t3431959231_Int32_t497012075_Int32_t497012075_Int32_t497012075_RuntimeObject_Int32_t497012075PFvvEPK10MethodInfoPvPS4_
N2b:__ZNK20OcclusionCullingData22GetStaticRendererCountEv
J3c:_UNITY_tt_face_free_ps_names
CJc:__GLOBAL__sub_I_runtime_particlesystem_modules_5_cpp
dui:_Enumerator_System_Collections_IDictionaryEnumerator_get_Entry_m3576676814_gshared
yYb:__ZNK6Camera17GetSkyboxMaterialEv
Gkk:_emscripten_glDisableVertexAttribArray__wrapper
bnf:_Array_InternalArray__get_Item_TisLink_t2268165308_m3476189005_gshared
d7i:_Context_get_HasExitSinks_m491835320
M_e:_DateTime__ctor_m2511487087_AdjustorThunk
yUf:_Enumerator_System_Collections_IEnumerator_get_Current_m2866179871_gshared
Alg:_BigInteger_GetBytes_m3446674517
fbb:__ZN12MeshRenderer18CalculateLocalAABBER4AABBRKS_RK4Mesh
sui:_Enumerator_VerifyCurrent_m1342635116_AdjustorThunk
W1:__ZN21UnityDefaultAllocatorI17LowLevelAllocatorE8AllocateEji
pmj:_Material_GetTexture_m2621092031
Eed:__ZL28InitializeUIScriptingClassesv
Kfg:_ReadOnlyCollection_1_System_Collections_ICollection_CopyTo_m55736028_gshared
GBf:_Guid_Equals_m2275348463_AdjustorThunk
GPb:__ZN10UnityScene10ClearRootsEv
wVh:_MethodToken_Equals_m855933222_AdjustorThunk
Atb:__ZN12HandlerChain10AtomicMoveER13FileEntryDataS1_
wfa:__ZZN15DirectorManager15InitializeClassEvEN48PreLateUpdateDirectorDeferredEvaluateRegistrator7ForwardEv
c_c:__ZN20SpeedTreeWindManager6UpdateEf
mUi:_InternalEnumerator_1_get_Current_m1712539058_AdjustorThunk
mpe:_RaycasterManager_RemoveRaycasters_m3913989816
Hoj:_Object_set_hideFlags_m3157328940
$G:__ZN7mecanim9animation20CreateAvatarConstantEPNS_8skeleton8SkeletonEPNS1_13SkeletonPoseTIN4math4trsXEEES8_PNS_5human5HumanES3_iRKS6_RNS_6memory9AllocatorE
egf:_Array_InternalArray__ICollection_CopyTo_TisByte_t2301911024_m1808376404_gshared
omj:_Material_get_mainTexture_m1405002156
Cab:__ZN14CompressedMesh8TransferI19StreamedBinaryWriteILb0EEEEvRT_
CSh:_EnumBuilder_get_BaseType_m1870781594
mBi:_Dictionary_2_set_Item_m3899981377_gshared
Uyg:_HybridDictionary_Switch_m3043531182
hlg:_Comparison_1_BeginInvoke_m2482972579_gshared
W4i:_ActivationServices_get_ConstructionActivator_m419518703
Jgf:_Array_InternalArray__ICollection_CopyTo_TisSByte_t1872536467_m4077081901_gshared
oUa:__ZN24GenerateTypeTreeTransfer8TransferI21PlatformShaderDefinesEEvRT_PKc17TransferMetaFlags
$gb:__ZNK15ResourceManager22GetTypeVirtualInternalEv
qmg:_BigInteger_op_Inequality_m2026390928
t$i:_InternalEnumerator_1_get_Current_m1092290405_gshared
o_c:__ZN13TextRendering4Font23VirtualRedirectTransferER24GenerateTypeTreeTransfer
uSh:_DerivedType_get_UnderlyingSystemType_m137342335
M2i:_ResourceReader_ReadValueVer1_m4245614527
x3h:__Z82RuntimeInvoker_Void_t3431959231_Int32_t497012075_Int32_t497012075_Int32_t497012075PFvvEPK10MethodInfoPvPS4_
d_i:_InternalEnumerator_1_get_Current_m1296302811_gshared
XXb:__ZN11HaloManager17RenderGeometryJobEP25DynamicVBOGeometryJobDataj
dQj:_AesTransform__ctor_m3195455374
hM:__ZNSt3__227__insertion_sort_incompleteIRPFbN7mecanim9animation13MuscleIndexIdES3_EPS3_EEbT0_S8_T_
Skk:_emscripten_glBlendEquation__wrapper
FOd:__ZN15dense_hashtableINSt3__24pairIK10KeyWrapperIP11Il2CppClassES4_EES5_N6il2cpp8metadata16SZArrayClassHashEN14dense_hash_mapIS5_S4_SA_NS5_14EqualsComparerINS9_19SZArrayClassCompareEEENS0_9allocatorIS7_EEE9SelectKeyESE_SG_E13set_empty_keyERKS7_
T8j:__ZNSt3__212basic_stringIcNS_11char_traitsIcEENS_9allocatorIcEEE6__initEPKcj
ak:_emscripten_set_fullscreenchange_callback
ABi:_Dictionary_2_TryGetValue_m1135817285_gshared
V1g:_UInt32_System_IConvertible_ToType_m2284280783
Q6h:__Z105RuntimeInvoker_RuntimeObject_RuntimeObject_StreamingContext_t1941487469_ISurrogateSelectorU26_t3444158400PFvvEPK10MethodInfoPvPS4_
g1:__ZN11UnityEngine15CloudWebService14DataDispatcher22ResetNetworkRetryIndexEv
fk:_emscripten_glDrawArrays
K0g:_UInt16_System_IConvertible_ToDecimal_m901060768
XRb:__ZZ23InitPlayerLoopCallbacksvEN43EarlyUpdateExecuteMainThreadJobsRegistrator7ForwardEv
J0:__ZN11UnityEngine15CloudWebService19SessionEventManagerC2Ev
nRd:__ZN6il2cpp6icalls8mscorlib6System2IO6MonoIO19GetCurrentDirectoryEPi
d1j:_CanvasRenderer_get_absoluteDepth_m2922114130
a9e:_Array_InternalArray__ICollection_Contains_TisResourceCacheItem_t3676136783_m2765360029_gshared
h_g:_TimeSpan_get_TotalMinutes_m3141381221_AdjustorThunk
Grd:__ZN13RuntimeStaticI14dynamic_bitsetLb0EE16StaticInitializeEPv
EFe:_InputField_MoveDown_m3015985993
zt:__ZN13AnimationClip10FloatCurve8TransferI14SafeBinaryReadEEvRT_
Lha:__ZNSt3__222__merge_move_constructIRNS_4lessIN4core12basic_stringIcNS2_20StringStorageDefaultIcEEEEEENS_11__wrap_iterIPS6_EESB_EEvT0_SC_T1_SD_PNS_15iterator_traitsISC_E10value_typeET_
Gqc:__Z41Register_UnityEngine_Camera_get_eventMaskv
yng:_CryptoConvert_ToHex_m3337736400
yX:__ZL19CleanupModule_Audiov
tPg:_ObjectReader_GetDeserializationType_m1409934877
iFd:__ZN6il2cpp2os4File10DeleteFileERKNSt3__212basic_stringIcNS2_11char_traitsIcEENS2_9allocatorIcEEEEPi
w1j:_BoxCollider2D_INTERNAL_get_size_m2966239962
Wzb:__Z29Transfer_Blittable_ArrayFieldI14SafeBinaryReadiEvRT_R9ArrayInfoRK23StaticTransferFieldInfo
BBd:__ZN6il2cpp6icalls8mscorlib6System8MonoType8GetFieldEP20Il2CppReflectionTypeP12Il2CppStringi
Mxd:__ZN15dense_hashtableINSt3__24pairIK10KeyWrapperIN6il2cpp5utils13dynamic_arrayIPK10Il2CppTypeLj4EEEEPFvvEEESA_NS3_8metadata19Il2CppSignatureHashEN14dense_hash_mapISA_SD_SG_NSA_14EqualsComparerINSF_22Il2CppSignatureCompareEEENS0_9allocatorISE_EEE9SelectKeyESK_SM_E5clearEv
CEj:_U3CDoKickU3Ec__Iterator0_MoveNext_m526028801
HRg:_SByte_System_IConvertible_ToUInt64_m4284811492_AdjustorThunk
khk:_emscripten_glVertexAttrib3fv__wrapper
enc:__ZN8Material10GetTextureEN9ShaderLab16FastPropertyNameE
pab:__ZN18StreamedBinaryReadILb0EE21TransferSTLStyleArrayI13dynamic_arrayI10Matrix4x4fLj16EEEEvRT_17TransferMetaFlags
idc:__ZNK28MonoBehaviourPropertyBinding13GetFloatValueERKN11UnityEngine9Animation10BoundCurveE
FCe:_Image_get_eventAlphaThreshold_m564762907
iEi:_DefaultComparer_Equals_m102624028_gshared
w5d:_GC_generic_malloc
tHi:_MaskableGraphic_get_maskable_m3807642405
Jka:__ZN13GfxDeviceGLES32CreateDepthRenderSurfacePlatformEP17RenderSurfaceBase17DepthBufferFormat
lwc:__Z33Texture_Set_Custom_PropAnisoLevelP12Il2CppObjecti
Vp:__ZN14SafeBinaryRead21TransferSTLStyleArrayI13dynamic_arrayIiLj4EEEEvRT_17TransferMetaFlags
Hs:__ZNSt3__26vectorI14AnimationEvent13stl_allocatorIS1_L18MemLabelIdentifier26ELi16EEE18__construct_at_endINS_11__wrap_iterIPS1_EEEENS_9enable_ifIXsr21__is_forward_iteratorIT_EE5valueEvE4typeESB_SB_j
Ugf:_Array_InternalArray__ICollection_CopyTo_TisRaycastResult_t3692659608_m3715984642_gshared
O8i:_ConstructionCall_get_Properties_m1691288468
pbh:__ZL54ILGenerator_t3151057762_CustomAttributesCacheGeneratorP21CustomAttributesCache
gka:__ZN9GfxDevice25ReleaseAsyncCommandHeaderEPN21GfxDeviceAsyncCommand3ArgE
mTi:_InternalEnumerator_1_System_Collections_IEnumerator_get_Current_m3746987261_AdjustorThunk
FYc:__ZN17Physics2DSettings15InitializeClassEv
Rza:__ZN21UniformBufferTFMethod20IsBoneCountSupportedEi
ahe:_X509Certificate__ctor_m1192523986
oPh:_Assembly_Load_m38031685
UIi:_RectMask2D_PerformClipping_m2636026194
Ksf:_BitConverterLE_GetBytes_m922624115
eie:_StrongNamePublicKeyBlob_Equals_m3633331927
VDj:_ObjectPool_NextObject_m3606731540
lZa:__ZN6Shader27MarkShaderStateNotSupportedEPKS_
ADf:_NumberFormatter_AppendNonNegativeNumber_m4194237480
h2g:_UInt32_Parse_m1593324466
P4h:__Z91RuntimeInvoker_Void_t3431959231_RuntimeObject_Single_t209704323_RuntimeObject_RuntimeObjectPFvvEPK10MethodInfoPvPS4_
lxi:_ValueCollection_System_Collections_Generic_ICollectionU3CTValueU3E_Clear_m1447498693_gshared
bMf:_StreamWriter_Write_m303339299
w8i:_AsyncResult_AsyncProcessMessage_m1253461061
qza:__ZN25TransformFeedbackSkinning8SkinMeshERK18VertexStreamSourceP9GfxBufferP17GPUSkinPoseBufferS4_ii17ShaderChannelMaskb
I2j:_AnimationLayerMixerPlayable__ctor_m4079511096_AdjustorThunk
NTd:__ZN15dense_hashtableINSt3__24pairIK10KeyWrapperIP14Il2CppIUnknownEjEES5_N6il2cpp5utils11PointerHashIS3_EEN14dense_hash_mapIS5_jSB_NS5_14EqualsComparerINS0_8equal_toIS4_EEEENS0_9allocatorIS7_EEE9SelectKeyESG_SI_E12resize_deltaEjj
mIf:_DirectoryNotFoundException__ctor_m2658293509
CEe:_InputField_set_asteriskChar_m359737254
DBj:_X509CertificateCollection__ctor_m1864522317
m9b:__Z18tessMeshDeleteMeshP9TESSallocP8TESSmesh
gMd:__ZN15dense_hashtableINSt3__24pairIK10KeyWrapperIPK22Il2CppGenericParameterEPK24MonoGenericParameterInfoEES6_N6il2cpp5utils11PointerHashIS4_EEN14dense_hash_mapIS6_SA_SF_NS6_14EqualsComparerINS0_8equal_toIS5_EEEENS0_9allocatorISB_EEE9SelectKeyESK_SM_E14squash_deletedEv
x2c:_pshinter_module_class_pic_free
ZIc:__ZN8JSONRead8TransferIN4math12int3_storageEEEvRT_PKc17TransferMetaFlagsb
SSb:__ZN27IntermediateRendererManager29ClearAllIntermediateRenderersEv
oq:__Z17CalculateGlobalSM23TransformAccessReadOnlyRKN4math7_float4E
y9:__Z27scripting_class_get_methods17ScriptingClassPtrRNSt3__26vectorI18ScriptingMethodPtr13stl_allocatorIS2_L18MemLabelIdentifier1ELi16EEEE
BQd:__ZNSt3__214__split_bufferIN6il2cpp2vm22EmbeddedResourceRecordERNS_9allocatorIS3_EEEC2EjjS6_
ive:_CanvasScaler_get_dynamicPixelsPerUnit_m4275089893
hm:_emscripten_glLoadIdentity
$5b:__ZNSt3__26vectorINS_4pairIN4core12basic_stringIcNS2_20StringStorageDefaultIcEEEEPK17MessageIdentifierEENS_9allocatorISA_EEE26__swap_out_circular_bufferERNS_14__split_bufferISA_RSC_EEPSA_
i1b:__Z29CullShadowCastersWithoutUmbraR9IndexListRK17CullingParametersPK4AABBjj
CXb:__ZN6Camera28DefaultPerformRenderFunctionclEPS_13RenderingPathP11CullResults
ife:_SHA1Internal_InitialiseBuff_m3280271817
prb:__ZN6Shader16GetDefaultOrNullEv
WCd:__ZN6il2cpp5utils9PathUtils7CombineIcEENSt3__212basic_stringIT_NS3_11char_traitsIS5_EENS3_9allocatorIS5_EEEERKSA_RKNS0_10StringViewIS5_EE
wPg:_FormatterServices_GetUninitializedObject_m2850189182
dei:__Z51RuntimeInvoker_Single_t209704323_Vector3_t831627742PFvvEPK10MethodInfoPvPS4_
kRc:__ZN16PhysicsManager2D26GetGameObjectForRaycastHitERK12RaycastHit2D
obb:__ZN12MeshRenderer23VirtualRedirectTransferER19StreamedBinaryWriteILb0EE
G3a:__ZN18StreamedBinaryReadILb0EE21TransferSTLStyleArrayI13dynamic_arrayI12LightmapDataLj4EEEEvRT_17TransferMetaFlags
M4e:_Double_ToString_m2376927304_AdjustorThunk
R7b:__Z11MD5ToStringPh
C6i:_LeaseManager_SetPollTime_m213730330
Vac:__ZN6Sprite28PrepareRenderingDataIfNeededEb
Hzj:_X501_AppendEntry_m1895462480
_Sf:_Enumerator_System_Collections_IEnumerator_Reset_m1907901615_gshared
r$e:_DateTimeFormatInfo_GetMonthName_m2080969842
FK:__ZN7mecanim12statemachine18TransitionConstant8TransferI19StreamedBinaryWriteILb0EEEEvRT_
oud:__ZN6il2cpp2vm5Class19GetArrayElementSizeEPK11Il2CppClass
u7c:_cf2_builder_moveTo
R_:__ZN9JSONWrite8TransferIN4core12basic_stringIcNS1_20StringStorageDefaultIcEEEEEEvRT_PKc17TransferMetaFlags
EVg:_StringBuilder_Append_m762335139
NSc:__ZN24b2ChainAndPolygonContact6CreateEP9b2FixtureiS1_iP16b2BlockAllocator
a9j:__ZNSt3__212basic_stringIcNS_11char_traitsIcEENS_9allocatorIcEEE6resizeEjc
q0j:_Canvas_add_willRenderCanvases_m1268462252
bgb:__ZN14PlayerSettings16CheckConsistencyEv
gW:__ZN11AudioModule30GetOrCreateDSPFromCustomFilterEP17AudioCustomFilter
ASa:__ZN19AtomicPageAllocatorD2Ev
Rn:FUNCTION_TABLE_viiiiiiiiiiiiii
nUd:__ZN6il2cpp6icalls8mscorlib6System13GlobalizationL20culture_lcid_locatorEPKvS5_
Qlf:_Dictionary_2_Do_CopyTo_TisBoolean_t1367519524_TisBoolean_t1367519524_m128149455_gshared
fch:__ZL90Default_t531348841_CustomAttributesCacheGenerator_Default_ReorderArgumentArray_m3203644896P21CustomAttributesCache
lhf:_Array_InternalArray__Insert_TisChar_t2406049076_m549106492_gshared
LYg:_Thread_SetState_m946953001
$ff:_Array_InternalArray__ICollection_Add_TisVector4_t3374053054_m3912363977_gshared
UVh:_OpCode_GetHashCode_m398722635_AdjustorThunk
I0a:__ZNK12CubemapArray16ExtractImageImplEP14ImageReferenceNS0_8BlitModeEbi
muc:__Z63Register_UnityEngine_MonoBehaviour_StartCoroutine_Auto_Internalv
Wt:__ZNSt3__26vectorIN13AnimationClip12Vector3CurveE13stl_allocatorIS2_L18MemLabelIdentifier26ELi16EEEC2INS_11__wrap_iterIPS2_EEEET_SB_RKS5_PNS_9enable_ifIXaasr21__is_forward_iteratorISB_EE5valuesr16is_constructibleIS2_NS_15iterator_traitsISB_E9referenceEEE5valueEvE4typeE
Umc:__ZN10systeminfo24GetSystemLanguageCultureEi
LJi:_Scrollbar_set_size_m2301211131
ngb:__ZN10VRSettings8TransferI14SafeBinaryReadEEvRT_
EOi:_Text_get_supportRichText_m3023425662
f2c:_UNITY_FT_Outline_Get_CBox
nPh:_Assembly_ToString_m1475981710
f4:__GLOBAL__sub_I_runtime_gfxdevice_0_cpp
t2g:_UInt64_System_IConvertible_ToBoolean_m2264017118_AdjustorThunk
NIj:_InvokableCall_1_Invoke_m1887951755_gshared
dqd:__ZN20UnityWebRequestProtoI24UnityWebRequestTransport16AtomicRefCounter14RedirectHelper14ResponseHelper15DownloadHandler13UploadHandler12HeaderHelper14AsyncOperationE8FinalizeEv
TIh:__ZL66InputField_t1180063600_CustomAttributesCacheGenerator_m_CaretWidthP21CustomAttributesCache
tPa:__ZN22PerThreadPageAllocator14AcquireNewPageEj
uX:__ZN24AudioScriptBufferManager15DidReloadDomainEv
Paf:_PlayableHandle_IsPlayableOfType_TisRuntimeObject_m1201803862_AdjustorThunk
bCe:_HorizontalOrVerticalLayoutGroup_set_spacing_m1268235242
iCb:__Z18Transfer_BlittableI24GenerateTypeTreeTransferLb1E9BoundsIntEvRK29SerializationCommandArgumentsR31RuntimeSerializationCommandInfo
jZb:__ZN6Camera13ClearNoSkyboxEb
gpg:_ContentInfo__ctor_m3401659152
bxd:__ZNK15dense_hashtableI10KeyWrapperIPK17Il2CppGenericInstES4_N6il2cpp8metadata21Il2CppGenericInstHashEN14dense_hash_setIS4_S7_NS4_14EqualsComparerINS6_24Il2CppGenericInstCompareEEENSt3__29allocatorIS4_EEE8IdentityESB_SE_E12test_deletedEj
fNj:_GUISkin_MakeCurrent_m2906178613
XPc:__ZN10Collider2D8TransferI14SafeBinaryReadEEvRT_
BJi:_Scrollbar_UpdateCachedReferences_m2974932193
RVi:_InternalEnumerator_1_get_Current_m777708084_gshared
p$f:_List_1_set_Capacity_m251782854_gshared
jea:__ZNSt3__27__sort5IR17CompareInstanceIDPP6ObjectEEjT0_S6_S6_S6_S6_T_
U5b:__ZN13sorted_vectorINSt3__24pairIN4core12basic_stringIcNS2_20StringStorageDefaultIcEEEEPK17MessageIdentifierEEN10vector_mapIS6_S9_NS0_4lessIS6_EENS0_9allocatorISA_EEE13value_compareESF_E4findIS6_EENS0_11__wrap_iterIPSA_EERKT_
iQj:_AesManaged_get_Key_m2415839187
una:__ZN18GfxFramebufferGLES10InvalidateEv
beh:__ZL55_ILGenerator_t3313142151_CustomAttributesCacheGeneratorP21CustomAttributesCache
kra:__ZN4crnd11crnd_deleteINS_13prefix_coding14decoder_tablesEEEvPT_
E5:__ZN10MemoryPoolD2Ev
ou:__ZN17AnimationCurveTplI11QuaternionfE8TransferI14SafeBinaryReadEEvRT_
qAc:__ZNSt3__26__treeINS_12__value_typeIN4core12basic_stringIcNS2_20StringStorageDefaultIcEEEEN5IMGUI12NamedControlEEENS_19__map_value_compareIS6_S9_NS_4lessIS6_EELb1EEENS_9allocatorIS9_EEE7destroyEPNS_11__tree_nodeIS9_PvEE
ywj:_TrackedReference_GetHashCode_m3467416815
Owa:__ZN14GfxDeviceStats19EndClientFrameStatsEv
AKe:_BitConverter_GetBytes_m1470873334
tMj:_ObjectPool_1__ctor_m2274039344_gshared
J7j:___mmap
Vnc:__ZN9Scripting26RaiseArgumentNullExceptionEPKc
o3:__ZL18InternalLogConsolePKcz
FLf:_StreamReader_Read_m964484459
D6j:_lseek
nih:__ZL81SuppressUnmanagedCodeSecurityAttribute_t3499933894_CustomAttributesCacheGeneratorP21CustomAttributesCache
Gcf:_Array_compare_TisInt32_t497012075_m1744813643_gshared
n4j:_UnityAnalyticsHandler_InternalDestroy_m2443396066
J9:__Z37scripting_method_get_nth_argumenttype18ScriptingMethodPtri
kU:__ZN11AudioSource16UpdatePauseStateEv
Sda:__ZL52StaticUnregisterSceneLoadedCallback_LightmapSettingsPv
hB:__ZN7mecanim5human25HumanPoseAddAdditiveLayerERNS0_9HumanPoseERKS1_fRKNS_6bitsetILj70EEE
Boe:_BaseInput_get_mouseScrollDelta_m2505768269
lha:__ZN13RuntimeStaticI18SpriteAtlasManagerLb0EE16StaticInitializeEPv
r9d:__ZN6il2cpp5utils25NativeDelegateMethodCache17AddNativeDelegateEPFvvEPK10MethodInfo
Qgg:_ReadOnlyCollection_1_System_Collections_ICollection_CopyTo_m2803328153_gshared
uYb:__ZN27DeviceViewProjMatricesStateD2Ev
LFe:_InputField_ForceLabelUpdate_m3668149785
Dai:__Z66RuntimeInvoker_Void_t3431959231_Int32_t497012075_Int64_t2229785298PFvvEPK10MethodInfoPvPS4_
VBb:__Z18Transfer_BlittableI24GenerateTypeTreeTransferLb0E8Vector3fEvRK29SerializationCommandArgumentsR31RuntimeSerializationCommandInfo
sgh:__ZL94X509Certificate_t2838256043_CustomAttributesCacheGenerator_X509Certificate_GetName_m3442499933P21CustomAttributesCache
Lti:_Enumerator_System_Collections_IDictionaryEnumerator_get_Value_m1243689286_gshared
nlf:_Array_swap_TisColor32_t1926316813_TisColor32_t1926316813_m3850036595_gshared
k_c:__ZNK13TextRendering4Font22GetTypeVirtualInternalEv
FPd:__ZN6il2cpp2vm6Thread16RequestInterruptEP12Il2CppThread
Khb:__ZN19StreamedBinaryWriteILb0EE21TransferSTLStyleArrayINSt3__26vectorIN15ResourceManager10DependencyE13stl_allocatorIS5_L18MemLabelIdentifier52ELi16EEEEEEvRT_17TransferMetaFlags
jof:_Dropdown_GetOrAddComponent_TisRuntimeObject_m2884795935_gshared
Zkj:_Graphics_Internal_GetMaxDrawMeshInstanceCount_m3876768827
G_c:__ZNSt3__26vectorINS_4pairINS1_IttEEfEENS_9allocatorIS3_EEE8__appendEj
iof:_ScriptableObject_CreateInstance_TisRuntimeObject_m780866697_gshared
esa:__ZN6prcoreL10inner_flipILj2EEEvPhS1_j
GWg:_UTF7Encoding_GetHashCode_m1776476501
C8a:__ZNK14Texture2DArray16ExtractImageImplEP14ImageReferenceNS0_8BlitModeEbi
zie:_EvidenceEnumerator_get_Current_m2833553291
NPe:_ArrayListWrapper_CopyTo_m438756412
mFc:__ZN9JSONWrite8TransferIbEEvRT_PKc17TransferMetaFlags
sGa:__ZN12TLSAllocatorI14StackAllocatorED0Ev
lEi:_DefaultComparer_Equals_m250371619_gshared
afb:__ZN11TimeManager16CheckConsistencyEv
PVb:__ZN21GfxDeviceAsyncCommand10ArgScratch15ThreadedCleanupEv
uPc:__ZN10ClipperLib14IntersectPointERNS_5TEdgeES1_RNS_8IntPointE
r8g:__ZL69CompilerGeneratedAttribute_t2627327799_CustomAttributesCacheGeneratorP21CustomAttributesCache
Cic:__Z14DoubleToStringd
uBb:__ZN12NativeBufferI27Converter_UnityEngineObjectE15SetupForWritingER9ArrayInfo
D9b:__ZL19CheckForRightSpliceP14TESStesselatorP12ActiveRegion
n5f:_Collection_1__ctor_m2727926059_gshared
ze:_glTexImage3D
vX:__Z20RegisterModule_Audiov
Vof:_MSCompatUnicodeTable_UInt32FromBytePtr_m2510595262
KZa:__ZNSt3__26vectorINS_4pairI11ShaderTagIDS2_EENS_9allocatorIS3_EEE6insertENS_11__wrap_iterIPKS3_EERS8_
v3h:__Z76RuntimeInvoker_Void_t3431959231_RuntimeObject_RuntimeFieldHandle_t1895510046PFvvEPK10MethodInfoPvPS4_
Rxj:_Vector2_get_sqrMagnitude_m1103006161
Ke:_JS_SystemInfo_GetCurrentCanvasWidth
eEf:_NumberFormatter_ParsePrecision_m1540465261
USe:_HashKeys__ctor_m3033639092
xoc:__ZL34GetComponentsImplementationRecurseILb1ELi0ELi1EEbR10GameObjectbRK17CompareParametersRK39GetComponentsImplementation_ReturnValue
vVh:_MethodToken_Equals_m855933222
qSd:__ZN6il2cpp2vm14PlatformInvoke30MarshalCSharpStringToCppStringEP12Il2CppString
J9e:_Array_InternalArray__ICollection_Remove_TisLink_t321403524_m3167470130_gshared
AEi:_EqualityComparer_1_System_Collections_IEqualityComparer_Equals_m820984791_gshared
Jgb:__ZN10VRSettings8TransferI18StreamedBinaryReadILb0EEEEvRT_
kA:__ZN22AnimationMixerPlayable12MixerProcessEP35AnimationPlayableEvaluationConstantP32AnimationPlayableEvaluationInputP33AnimationPlayableEvaluationOutputM17AnimationPlayableFvS1_S3_S5_EPFvS1_S3_S5_ESA_PFvS5_S1_S3_S5_PN7mecanim16ValueArrayWeightEfEPFvS1_S3_S5_SD_fE
dXg:_UTF8Encoding_InternalGetBytes_m3760941911
Ktb:__ZN22LocalFileSystemHandler4NameEv
BFb:__Z19TransferField_ArrayI19StreamedBinaryWriteILb0EE27Converter_SimpleNativeClassI8GradientEEvRK23StaticTransferFieldInfoR31RuntimeSerializationCommandInfoRT0_
dNc:__ZNK12b2WheelJoint16GetReactionForceEf
pti:_Enumerator_MoveNext_m3773791621_gshared
qCg:_WebProxy_CheckBypassList_m2644340080
KYe:_Convert_ToInt32_m498508280
O6e:_CCGregorianCalendar_GetYear_m2071671510
z7a:__ZN7SubMesh8TransferI18StreamedBinaryReadILb0EEEEvRT_
bYg:_Monitor_Monitor_test_synchronised_m3716493334
Myc:__ZNK19RectangleCellLayout9CellRoundERKN4Grid9GridStateERKN4math7_float3E
pf:_emscripten_glIsEnabled
DHb:__ZN18StreamedBinaryReadILb1EE21TransferSTLStyleArrayI13dynamic_arrayIdLj8EEEEvRT_17TransferMetaFlags
Hrc:__Z45Register_UnityEngine_GameObject_get_transformv
Q8:__Z29scripting_class_instance_size17ScriptingClassPtr
HIc:__Z29Transfer_Blittable_ArrayFieldI8JSONRead5RectTIiEEvRT_R9ArrayInfoRK23StaticTransferFieldInfo
XIf:_FileStream_get_CanSeek_m2028066509
_Lc:__ZN7b2World12DestroyJointEP7b2Joint
Vxh:__ZL64UnmarshalledAttribute_t1196600265_CustomAttributesCacheGeneratorP21CustomAttributesCache
Ec:invoke_iiiiiiiii
RTf:_Enumerator_VerifyState_m101132418_gshared
j1:__ZN11UnityEngine15CloudWebService19SessionEventManager26ProcessEventQueueJobStaticEPv
Gcb:__ZL19SpriteMeshExtractorPv17ShaderChannelMaskiR11MeshBuffersR16DrawBuffersRangeRiS5_
zUj:_AudioSource_PlayOneShot_m3297294861
Ogf:_Array_InternalArray__ICollection_CopyTo_TisUInt16_t2648343906_m1339156305_gshared
D1:__ZN11UnityEngine15CloudWebService19SessionEventManager37OnTimerExpiredPerformArchiveJobStaticEPv
eEc:__Z18Transfer_BlittableI9JSONWriteLb1E9BoundsIntEvRK29SerializationCommandArgumentsR31RuntimeSerializationCommandInfo
ozg:_ListDictionary_Add_m958380409
QFf:_Int64_CompareTo_m3437268345
Uuj:_Shader_Find_m1763014924
VSg:_DESTransform__ctor_m316754357
XWa:__ZN10builtintex15GetWhiteTextureEv
w1e:_DBNull_System_IConvertible_ToInt32_m990829394
Spe:_EventTrigger_OnPointerEnter_m799879918
tae:__ZN6il2cpp6icalls8mscorlib6System10Reflection4Emit11DerivedType21create_unmanaged_typeEP20Il2CppReflectionType
ijf:_Array_InternalArray__set_Item_TisRaycastHit2D_t2925993810_m2852897814_gshared
d6j:_printf_core
oYe:_FormatException__ctor_m1994194166
gga:__Z29GetOcclusionPortalManagerListv
_vc:__Z39Register_UnityEngine_Sprite_get_texturev
Odc:__ZN9Transform12CleanupClassEv
O$j:_Predicate_1_BeginInvoke_m3718043045_gshared
Ord:__ZL10rescale128PyS_Piiiii
CO:__ZN9AudioClip7WWWSeekEPvjS0_
TCg:_X509SubjectKeyIdentifierExtension_ToString_m1781460874
W4:__ZL32StaticInitializeIUnityInterfacesPv
sVb:__Z13CameraProjectRK8Vector3fRK10Matrix4x4fS4_RK5RectTIiERS_b
Dib:__ZN30RuntimeInitializeOnLoadManager15ClassMethodInfo8TransferI19StreamedBinaryWriteILb0EEEEvRT_
cda:__Z22CreateMutexLockedStackv
vQb:__ZNSt3__27__sort5IRNS_4lessIN22BuiltinResourceManager8ResourceEEEPS3_EEjT0_S7_S7_S7_S7_T_
c8e:_CultureInfo_insert_into_shared_tables_m3699592823
bYe:_Decimal_op_Implicit_m3090868895
jqb:__ZN9ShaderLab11ShaderStateD2Ev
Pdf:_Array_InternalArray__IndexOf_TisKeyValuePair_2_t1033232373_m1418325842_gshared
vcj:_CapturingGroup_get_IsNamed_m2908360592
Kad:_Ins_DELTAP
Bnf:_Array_InternalArray__get_Item_TisTimeSpan_t1710996894_m307651934_gshared
Yge:_TripleDESTransform__ctor_m3727996338
URh:_DerivedType_GetEvent_m88852836
Uaf:_PlayableHandle_IsPlayableOfType_TisAnimatorControllerPlayable_t369990607_m1773458007_gshared
Z3e:_Double_System_IConvertible_ToType_m1519847156_AdjustorThunk
DJ:__ZN7mecanim10ValueArray8TransferI24GenerateTypeTreeTransferEEvRT_
hFb:__ZL17Transfer_GUIStyleI19StreamedBinaryWriteILb0EELb0EEvRK29SerializationCommandArgumentsR31RuntimeSerializationCommandInfo
w7e:_CultureInfo__ctor_m2079979925
MVi:_InternalEnumerator_1_get_Current_m2460104099_AdjustorThunk
Gre:_PointerEventData_get_worldPosition_m3778622447
n3c:_UNITY_FT_Init_Class_tt_service_get_cmap_info
Gra:__Z19ScheduleJobInternalR8JobFencePFvPvES1_11JobPriority
QLc:__ZN16b2BlockAllocator4FreeEPvi
t1h:__Z90RuntimeInvoker_RuntimeObject_RuntimeObject_Int32_t497012075_Int32_t497012075_RuntimeObjectPFvvEPK10MethodInfoPvPS4_
YFi:_EqualityComparer_1__cctor_m1219557744_gshared
vQi:_U3CGetEnumeratorU3Ec__Iterator0_System_Collections_IEnumerator_get_Current_m66834169_gshared
phj:_Color_ToString_m2429744137_AdjustorThunk
jAd:__ZNSt3__211__tree_nextIPNS_16__tree_node_baseIPvEEEET_S5_
G1d:__ZNK6il2cpp5utils13VmStringUtils23CaseInsensitiveComparerclERKNSt3__212basic_stringIcNS3_11char_traitsIcEENS3_9allocatorIcEEEEPKc
Fua:__ZN6prcoreL17RemapGenericFloatI17TexFormatRGBAHalf17TexFormatRGBFloatEEvPKNS_9InnerInfoE
Y2j:_AnimatorControllerPlayable__ctor_m3092049146_AdjustorThunk
dJe:_Array_Copy_m623843319
Nvc:__Z35Sprite_Get_Custom_PropPixelsPerUnitP12Il2CppObject
fxg:_SslStreamBase_AsyncHandshakeCallback_m2435445947
dxd:__ZNSt3__26__sortIRN6il2cpp5utils11collections13ArrayValueMapIPK10Il2CppType17Il2CppInteropData26InteropDataToTypeConverterNS1_8metadata14Il2CppTypeLessENSA_26Il2CppTypeEqualityComparerEE12SortComparerEPS8_EEvT0_SH_T_
Gkb:__ZN11PreloadDataD2Ev
Yqd:__ZN15DownloadHandler14ProcessHeadersERK9HeaderMap
B_c:__ZNSt3__26vectorINS_4pairIifEE13stl_allocatorIS2_L18MemLabelIdentifier35ELi16EEE6assignINS_11__wrap_iterIPS2_EEEENS_9enable_ifIXaasr21__is_forward_iteratorIT_EE5valuesr16is_constructibleIS2_NS_15iterator_traitsISC_E9referenceEEE5valueEvE4typeESC_SC_
ec:invoke_iifi
PAe:_Graphic_GetPixelAdjustedRect_m2199115402
EMg:_RemotingServices_GetProxyForRemoteObject_m163889535
PNc:__ZNK16b2PrismaticJoint16GetReactionForceEf
lBj:_X509Certificate_get_RSA_m3299324228
WUf:_List_1_System_Collections_IList_Add_m1692101163_gshared
xxg:_SslStreamBase_get_CheckCertRevocationStatus_m3204603668
zTa:__ZN15SharedLightData15UpdateTransformERK9Transform
P6c:_UNITY_FT_Init_Class_pscmaps_interface
cRf:_Object_ToString_m807206954
nEg:_X509Chain_Build_m1535322508
Lsc:__Z44Register_UnityEngine_RectOffset_get_verticalv
D2g:_UInt64_System_IConvertible_ToDouble_m382102877_AdjustorThunk
W8d:__ZN6il2cpp2vm9LastError31InitializeLastErrorThreadStaticEv
Sec:__ZN13ProduceHelperI13RenderTextureLb0EE7ProduceE18MemLabelIdentifier18ObjectCreationMode
IQg:_StreamingContext_Equals_m2387639141_AdjustorThunk
ODa:__ZN5Unity9Component8TransferI14SafeBinaryReadEEvRT_
Cuf:_SmallXmlParser_ReadReference_m62984401
MKh:__ZL48Toggle_t730662001_CustomAttributesCacheGeneratorP21CustomAttributesCache
MYh:_MonoEvent_IsDefined_m716800763
ibj:_ExpressionCollection_get_Item_m1926438532
FIa:__ZN15dense_hashtableINSt3__24pairIKN4core12basic_stringIcNS2_20StringStorageDefaultIcEEEEP20ArchiveStorageReaderEES6_20StringHash32FunctionIS6_EN14dense_hash_mapIS6_S9_SC_NS0_8equal_toIS6_EE13stl_allocatorISA_L18MemLabelIdentifier55ELi16EEE9SelectKeyESF_SI_E12expand_arrayEjN21dense_hash_map_traits17integral_constantIbLb0EEE
Hjg:_ReadOnlyCollection_1_System_Collections_IList_Clear_m668463890_gshared
sh:_JS_SystemInfo_GetCurrentCanvasHeight
B1h:__Z53RuntimeInvoker_Boolean_t1367519524_Double_t2155864068PFvvEPK10MethodInfoPvPS4_
AZa:__ZNK8Material22GetTypeVirtualInternalEv
zBc:__Z34GUIStyle_Get_Custom_PropFixedWidthP12Il2CppObject
ELj:_U3CStartU3Ec__Iterator0_MoveNext_m3366292286_gshared
WPf:_MonoType_get_DeclaringType_m3834753937
L_d:__ZN6il2cpp2gc16GarbageCollector11GetWeakLinkEPPv
r2f:_List_1_System_Collections_IList_Contains_m735787087_gshared
y9c:_cff_get_cid_from_glyph_index
hZd:__GLOBAL__sub_I_Console_cpp
vua:__ZN6prcoreL17RemapGenericFloatI14TexFormatRHalf17TexFormatRGBAHalfEEvPKNS_9InnerInfoE
dDd:__ZN6il2cpp2vm7Runtime11InvokeArrayEPK10MethodInfoPvP11Il2CppArrayPP15Il2CppException
HUj:_WebCamDevice_t2290386459_marshal_pinvoke_back
Ttd:__ZN6il2cpp2vm5Class16SetupNestedTypesEP11Il2CppClass
Oad:_Dual_Project
Yvj:_Time_get_realtimeSinceStartup_m60407310
yN:__ZN9AudioClip23VirtualRedirectTransferER14SafeBinaryRead
ZHe:_Array_SetValueImpl_m2425503556
o8e:_Array_get_swapper_TisColor32_t1926316813_m1381664971_gshared
Dxa:__ZN4gles20EnsureTextureCreatedEP7ApiGLESP17RenderSurfaceGLES
dWb:__ZN15ReplacementPass13PrepareSubsetEjRK10RenderNodeifRK17ShaderReplaceData
UPc:__ZN15dense_hashtableINSt3__24pairIKiiEEi21InstanceIDHashFunctorN14dense_hash_mapIiiS4_NS0_8equal_toIiEE13stl_allocatorIS3_L18MemLabelIdentifier37ELi16EEE9SelectKeyES7_SA_E9copy_fromERKSD_j
zlj:_Input_get_anyKey_m2073128119
TS:__Z32AudioMeasurement_GetTimeConstantff
A$d:__ZN6il2cpp8metadata11FieldLayout12LayoutFieldsEjjjRKNSt3__26vectorIPK10Il2CppTypeNS2_9allocatorIS6_EEEERNS1_15FieldLayoutDataE
hZe:_Convert_ToInt64_m2604779633
q6i:_ConfigHandler_ReadServiceWellKnown_m1871665083
OIg:_Interval_Contains_m1322008981
M1b:__ZL27PrepareSceneNodesJobCombineP25ScheduleSceneNodesJobData
XKe:_Boolean_System_IConvertible_ToByte_m3070249099
qcg:_Collection_1_IsValidItem_m2344613789_gshared
lyb:__Z22TransferField_NonArrayI14SafeBinaryRead27Converter_SimpleNativeClassI8GUIStyleEEvRK23StaticTransferFieldInfoR31RuntimeSerializationCommandInfoRT0_
AMd:__ZN14dense_hash_mapI10KeyWrapperIPK10Il2CppTypeEjN6il2cpp8metadata14Il2CppTypeHashENS4_14EqualsComparerINS6_26Il2CppTypeEqualityComparerEEENSt3__29allocatorINSB_4pairIKS4_jEEEEEC2EjRKS7_RKSA_
Cia:__ZN13GfxDeviceGLESD2Ev
Cea:__ZN18AsyncUploadManager13StaticDestroyEPv
Dlj:_Input_get_touchSupported_m1422248754
Slb:__ZN6Shader7SetNameEPKc
M8b:__ZN13WebCamTexture4StopEv
h5b:__ZN19CustomRenderTexture22HandleBoundaryWrappingERKNS_14UpdateZoneInfoEj
PDi:_DefaultComparer_Equals_m1456910961_gshared
XOc:__ZN10ClipperLib7Clipper16DoSimplePolygonsEv
fAd:__ZN6il2cpp2vm13MetadataCache32GenerateCustomAttributeTypeCacheEi
Bqf:_Escape_t4177099005_marshal_pinvoke_back
thj:_Color_Equals_m409267803
kmf:_Component_GetComponentsInChildren_TisRuntimeObject_m3342035710_gshared
oyf:_AttrListImpl_get_Names_m2658536265
z9f:_Collection_1_ConvertItem_m527460661_gshared
UUh:_MethodBuilder_get_ContainsGenericParameters_m3946845177
osj:_Rect_ToString_m1759462849_AdjustorThunk
gnf:_Array_InternalArray__get_Item_TisDouble_t2155864068_m1378395026_gshared
ZD:__ZNK11UnityEngine9Animation30GenericBindingValueArrayUniqueclERKNS0_14GenericBindingES4_
U0f:_List_1_CheckMatch_m2060172241_gshared
tFa:__ZNK15dense_hashtableINSt3__24pairIKNS1_I9UnityGUIDxEE15SpriteAtlasDataEES3_23SpriteRenderDataKeyHashN14dense_hash_mapIS3_S5_S7_NS0_8equal_toIS3_EE13stl_allocatorIS6_L18MemLabelIdentifier81ELi16EEE9SelectKeyESA_SD_E23find_position_with_hashERS4_j
_Dj:_GameObjectUtil__cctor_m1573376243
FMj:_Event__ctor_m1462135587
Yif:_Array_InternalArray__set_Item_TisMark_t193251893_m370220963_gshared
Rad:_Direct_Move_X
Pi:_glClearDepthf
Gec:__ZN19SkinnedMeshRenderer7GetMeshEv
Csb:__ZN19RuntimeSceneManager14GetActiveSceneEv
cK:__ZN18StreamedBinaryReadILb0EE21TransferSTLStyleArrayI22OffsetPtrArrayTransferI9OffsetPtrIN7mecanim12statemachine13StateConstantEEEEEvRT_17TransferMetaFlags
AEf:_Int32_System_IConvertible_ToInt16_m3378902905_AdjustorThunk
CCd:__ZN6il2cpp6icalls8mscorlib6SystemL8IsStaticEPK9EventInfo
u3j:_Analytics_GetUnityAnalyticsHandler_m2649445138
usc:__Z29RectOffset_Set_Custom_PropTopP12Il2CppObjecti
Kxc:__Z57Register_UnityEngine_Transform_INTERNAL_get_localPositionv
oFj:_RepaintAction_Invoke_m2321459776
$$b:__ZNSt3__27__sort4IR15ReflProbeSorterPP15ReflectionProbeEEjT0_S6_S6_S6_T_
GTe:_HashValues_GetEnumerator_m4155938276
qkd:__Z55Register_UnityEngine_Analytics_CustomEventData_AddInt16v
sqg:_CipherSuite_PRF_m2265300089
xaj:_QuickSearch_GetShiftDistance_m2635027830
QLe:_Boolean_Parse_m1017262990
T$g:_Type_GetMethod_m1229376952
m0g:_Type_MakeGenericType_m2607948561
iWa:__ZN20SphericalHarmonicsL28TransferI19StreamedBinaryWriteILb0EEEEvRT_
SOi:_Text_get_horizontalOverflow_m960871797
uWc:__ZN16PhysicsManager2D45UnregisterTransformChangeInterestForRigidbodyEP11Rigidbody2D
nHf:_BinaryReader_ReadChar_m78894327
Oab:__ZN4Mesh14UploadMeshDataEb
xne:_ASCIIEncoding_GetBytes_m3275510632
Wec:__ZN14RenderSettings12CleanupClassEv
Wvc:__Z43DataUtility_CUSTOM_INTERNAL_CALL_GetPaddingP12Il2CppObjectR8Vector4f
QV:__ZN21AudioScriptingClasses26InvokeOnAudioManagerUpdateEP21ScriptingExceptionPtr
Ira:__ZN18AsyncUploadManager15DoDeCruncherJobEP26FileAssetUploadInstruction
Ala:__ZN9GfxDevice15ImmediateNormalEfff
LOh:_PlatformNotSupportedException__ctor_m1365345087
zse:_MouseState_AnyReleasesThisFrame_m1346409823
kDb:__ZN13GUIStyleState8TransferI24GenerateTypeTreeTransferEEvRT_
Saa:__ZN20dynamic_block_vectorI14FileIdentifierE22push_back_no_constructEv
cik:_emscripten_glGetActiveAttrib__wrapper
U8a:__ZN9Texture3D23VirtualRedirectTransferER14SafeBinaryRead
Jje:_SecurityManager_Decode_m625232467
Anb:__ZNSt3__26vectorIN9ShaderLab20SerializedSubProgram16TextureParameterENS_9allocatorIS3_EEE8__appendEj
F2a:__ZN9Texture2D13UploadTextureEi
ofg:_ReadOnlyCollection_1_System_Collections_IList_RemoveAt_m3983741743_gshared
Fwa:__ZN7ApiGLES9MapBufferEjN2gl12BufferTargetEllj
cS:__ZN4FMOD6System19setSoftwareChannelsEi
iDa:__ZN9GfxDevice19SetSinglePassStereoE16SinglePassStereo
sPb:__ZN24MaterialDisplayListCache16CachedShaderPass9FindEntryERK16ShaderKeywordSet
sii:__Z145RuntimeInvoker_Void_t3431959231_RuntimeObject_Vector2_t1132184324_Vector2_t1132184324_Color32_t1926316813_Vector2_t1132184324_Vector2_t1132184324PFvvEPK10MethodInfoPvPS4_
bJe:_Array_Clone_m755489889
_eg:_ReadOnlyCollection_1_System_Collections_Generic_ICollectionU3CTU3E_Add_m1917813859_gshared
Q3f:_List_1_CheckIndex_m4087363443_gshared
oak:_bitshift64Lshr
O9d:__ZN6il2cpp8metadata19Il2CppSignatureHash4HashERKNS_5utils13dynamic_arrayIPK10Il2CppTypeLj4EEE
R3j:_CustomEventData_InternalCreate_m1591593416
nwc:__Z31Texture_Set_Custom_PropWrapModeP12Il2CppObject15TextureWrapMode
UTd:__ZN6il2cpp2vm17ReboxKeyValuePairEP14Il2CppIUnknownP11Il2CppClass
G5e:_Enum_ToObject_m3465385313
Btc:__Z60Register_UnityEngine_Input_INTERNAL_set_compositionCursorPosv
ypg:_Alert_get_IsWarning_m502887178
Vbk:dynCall_viiiii
FDa:__ZN9Behaviour10DeactivateE19DeactivateOperation
$bk:dynCall_viiiif
myj:_Vector3_Scale_m3029138403
nRc:__ZN16PhysicsManager2D19ApplyParticleForcesER13dynamic_arrayI21BatchedColliderResultLj4EE
iOf:_MissingMemberException__ctor_m3795794071
_5c:_Cubic_To
EGj:_Spawner_Update_m23396726
uDf:_NumberFormatter_FormatCustom_m1452682884
Bqc:__Z44Register_UnityEngine_Camera_get_farClipPlanev
gr:__Z25InverseTransformDirection23TransformAccessReadOnlyRKN4math7_float3Eb
LW:__ZNK12AudioManager15GetDSPBlockSizeEv
Zfb:__ZNK17IAnimationBinding30CurveAttributeToSerializedPathERKN11UnityEngine9Animation10BoundCurveE
DTf:_Enumerator_get_Current_m4129346086_AdjustorThunk
j0j:_Canvas_set_sortingOrder_m114734608
mXd:__ZN6il2cpp2gc16GarbageCollector14GetOrCreateCCWEP12Il2CppObjectRK10Il2CppGuid
qVd:__ZN6il2cpp2vm5Image21FromTypeNameParseInfoEPK11Il2CppImageRKNS0_17TypeNameParseInfoEb
g7h:__Z132RuntimeInvoker_Void_t3431959231_RuntimeObject_RuntimeObject_Int64_t2229785298_ObjectU26_t2663569625_SerializationInfoU26_t3323168888PFvvEPK10MethodInfoPvPS4_
p_j:_Comparison_1_BeginInvoke_m1119275820_gshared
f0f:_List_1_RemoveAt_m1752116521_gshared
kpa:__ZN17BufferManagerGLES13AcquireBufferEjN14DataBufferGLES11BufferUsageEb
Tce:_RandomNumberGenerator_Create_m726414797
hKb:__Z26Transfer_UnityEngineObjectI18StreamedBinaryReadILb0EELb1EEvRK29SerializationCommandArgumentsR31RuntimeSerializationCommandInfo
DZe:_Convert_ToSingle_m843326248
Dod:__ZN16UnityAdsSettingsD0Ev
f6e:_Exception__ctor_m2027786267
oqa:__ZNK7ApiGLES10DebugLabelEN2gl10ObjectTypeEjPKc
ZLf:_StreamWriter_FlushBytes_m2076113200
uPf:_MonoType_GetInterfaces_m3755357689
Uvi:_Transform_1_Invoke_m3034770877_gshared
Fpa:__ZN19ConstantBuffersGLES13SetCBConstantEiiPKvi
Xvc:__Z38DataUtility_CUSTOM_Internal_GetMinSizeP12Il2CppObjectP13Vector2fIcall
Jic:__ZN8PlayableC2E17ScriptingClassPtr18DirectorPlayerType
CYh:_MonoCMethod_GetCustomAttributes_m1581863728
XOe:_ArrayList_Contains_m685263457
hff:_Array_InternalArray__ICollection_Add_TisLink_t2268165308_m596065169_gshared
l9:__Z27FindOrCreateMonoScriptCache17ScriptingClassPtr22InitScriptingCacheTypeP6Objecti
u1f:_List_1_System_Collections_IList_Contains_m2010482417_gshared
ms:__ZNK13AnimationClip17GetAnimationClipsEv
fMi:_ScrollRect_SetNormalizedPosition_m3219336727
bYc:__Z23CleanupPhysicsManager2Dv
aJb:__Z18Transfer_BlittableI18StreamedBinaryReadILb0EELb1E8Vector3fEvRK29SerializationCommandArgumentsR31RuntimeSerializationCommandInfo
j8f:_Collection_1_System_Collections_IList_Add_m401154177_gshared
cEe:_InputField_get_selectionColor_m145771084
Jfd:__ZN2UI14CanvasRenderer13SyncVertexPtrER8JobFenceNS0_8SyncFlagE
n7:__Z12OptionalTypePKcS0_S0_
D9:__Z35scripting_method_get_argument_count18ScriptingMethodPtr
pHa:__ZN18AssetBundleManager18SortPreloadObjectsER13dynamic_arrayIiLj4EEb
lte:_StandaloneInputModule_ProcessMouseEvent_m2830569589
iXg:_UTF8Encoding_InternalGetCharCount_m1021799337
Rrc:__Z20Gradient_CUSTOM_InitP12Il2CppObject
$Bc:__Z48Register_UnityEngine_GUIUtility_Internal_ExitGUIv
Q1b:__ZL21CullDynamicObjectsJobP14CullingJobDataj
Ptj:_RenderTexture_set_width_m3528859313
FSe:_Hashtable__ctor_m293555212
PZg:_TimeSpan__ctor_m337692434
_ug:_HandshakeMessage_EncodeMessage_m2057288046
S5b:__ZN14ManagerContext17InitializeClassesEv
SGa:__ZN19StreamedBinaryWriteILb0EE21TransferSTLStyleArrayINSt3__26vectorI14ConstantStringNS2_9allocatorIS4_EEEEEEvRT_17TransferMetaFlags
yy:__ZN7mecanim5human20MaskHasRightFootGoalERKNS_6bitsetILj70EEE
rHb:__ZN18StreamedBinaryReadILb1EE21TransferSTLStyleArrayI31ArrayOfManagedObjectsTransfererEEvRT_17TransferMetaFlags
a2g:_UInt32_CompareTo_m4150784972
zKe:_BitConverter_PutBytes_m1805244714
Gfg:_ReadOnlyCollection_1_System_Collections_Generic_IListU3CTU3E_RemoveAt_m1704082053_gshared
Ygi:__Z74RuntimeInvoker_Void_t3431959231_PropertyName_t3982265539_Single_t209704323PFvvEPK10MethodInfoPvPS4_
B6c:_t1_hints_open
qld:__ZN11UnityEngine15PlatformWrapper24GetVRTrackedAreaGeometryER13dynamic_arrayI8Vector3fLj4EE
$6h:__Z119RuntimeInvoker_RuntimeObject_Byte_t2301911024_RuntimeObject_SByte_t1872536467_RuntimeObject_RuntimeObject_RuntimeObjectPFvvEPK10MethodInfoPvPS4_
ZXe:_Decimal_op_Implicit_m742462374
wlc:__Z18TransformPoints3x4RK10Matrix4x4fPK8Vector3fjPS2_ji
lrd:__ZN22UnityWebRequestManager21CreateUnityWebRequestEv
YQ:__ZN4FMOD7Channel11getUserDataEPPv
E3c:_UNITY_tt_face_load_gasp
a1c:_ft_ansi_stream_close
vm:_JS_Sound_SetPitch
LEd:_il2cpp_runtime_invoke_convert_args
mIc:__Z19TransferField_ArrayI8JSONRead27Converter_SimpleNativeClassI10RectOffsetEEvRK23StaticTransferFieldInfoR31RuntimeSerializationCommandInfoRT0_
AYh:_MonoCMethod_IsDefined_m898304144
pRd:__ZN6il2cpp6icalls8mscorlib6System2IO6MonoIO11GetFileStatEP12Il2CppStringPNS3_8FileStatEPi
dca:__ZL26DestroyGameObjectRecursiveR10GameObjectR11BatchDelete
jma:__ZN9GfxDevice33InsertCustomMarkerCallbackAndDataEPFviPvEiS0_j
gpd:__ZN11UnityEngine15PlatformWrapper16GenerateRandomIdEv
fWb:__ZNK9ShaderLab9IntShader6GetTagE11ShaderTagIDb
l$b:__Z25CalculateShadowCasterCullbPK5PlaneRK10Matrix4x4fRK8Vector3fff9LightTypeS7_R16ShadowCasterCullPKb
mXc:__Z13RegisterClassI13BoxCollider2DEvv
eOj:_GUILayoutEntry_ApplyStyleSettings_m382438822
M9e:_Array_InternalArray__ICollection_Remove_TisKeyValuePair_2_t1903739822_m2445196350_gshared
p3e:_Delegate_GetInvocationList_m3115858236
zgd:__ZN2UI14CanvasRenderer11SetMaterialEP8Materiali
x3d:_GC_freehblk
pwg:_SslCipherSuite_ComputeKeys_m3797824632
Foc:__ZN9Scripting35DestroyObjectFromScriptingImmediateEP6Objectb
Edj:_RegularExpression_Compile_m1035007315
F2b:__ZNK6Camera48AreVRStereoViewMatricesWithinSingleCullToleranceEv
nMe:_Byte_System_IConvertible_ToDouble_m825485089
dPh:_Assembly_GetTypes_m1465552441
Jik:_glGetRenderbufferParameteriv__wrapper
wnf:_Array_InternalArray__get_Item_TisTypeTag_t3180578874_m192720093_gshared
Ac:invoke_iiiiiiiiiiiiiii
y$d:__ZN6il2cpp2os6Thread33UnregisterCurrentThreadForCleanupEv
klk:_emscripten_glIsRenderbuffer__wrapper
Egd:__ZN2UI14CanvasRenderer11GetHasMovedEv
aed:__ZN2UI11CanvasGroup8TransferI19StreamedBinaryWriteILb0EEEEvRT_
cIb:__Z29Transfer_Blittable_ArrayFieldI18StreamedBinaryReadILb1EE5RectTIiEEvRT_R9ArrayInfoRK23StaticTransferFieldInfo
JUa:__ZNK20IntermediateRenderer8GetLayerEv
Y1d:__ZN6il2cpp2os8TimeZone15GetTimeZoneDataEiPxPNSt3__212basic_stringIcNS3_11char_traitsIcEENS3_9allocatorIcEEEE
Pud:__ZN14dense_hash_mapI10KeyWrapperIPK11Il2CppClassEPKcN6il2cpp5utils11PointerHashIS1_EENS4_14EqualsComparerINSt3__28equal_toIS3_EEEENSC_9allocatorINSC_4pairIKS4_S6_EEEEE13set_empty_keyERSI_
rSh:_DerivedType_get_Module_m669571434
cUf:_Enumerator_System_Collections_IEnumerator_get_Current_m1019216302_gshared
dMf:_StreamWriter_Write_m2272702422
s1h:__Z66RuntimeInvoker_Void_t3431959231_Int32_t497012075_Int16_t1836794551PFvvEPK10MethodInfoPvPS4_
BVd:__ZNSt3__26vectorIN6il2cpp2vm5Image20EmbeddedResourceDataENS_9allocatorIS4_EEE21__push_back_slow_pathIS4_EEvOT_
c4:__GLOBAL__sub_I_runtime_utilities_0_cpp
qck:dynCall_viiiiiif
Zzi:_Dictionary_2_ToTKey_m3928684896_gshared
ZZg:_TimeSpan_get_Milliseconds_m3418490995_AdjustorThunk
w8:__ZN14SerializedFile10ReadObjectEx18ObjectCreationModebPPK8TypeTreePbR6Object
TGi:_LayoutUtility_U3CGetFlexibleWidthU3Em__3_m3839786403
tlc:__ZN4Mesh12SetIndexDataEiiPKv16GfxPrimitiveTypei
zQb:__ZN14dynamic_bitset6resizeEjb
n$:__ZN11UnityEngine15CloudWebService10RestClientINS0_23WebRequestRestHeaderMapEE7SetDataEPKhj
zF:__ZN7mecanim8skeleton16SkeletonPoseCopyIN4math4trsXES3_EEvPKNS0_13SkeletonPoseTIT_EEPNS4_IT0_EE
Qud:__ZN14dense_hash_mapI10KeyWrapperIPK11Il2CppClassEPKcN6il2cpp5utils11PointerHashIS1_EENS4_14EqualsComparerINSt3__28equal_toIS3_EEEENSC_9allocatorINSC_4pairIKS4_S6_EEEEE15set_deleted_keyERSI_
Xia:__ZN9GfxDevice34SetStencilRefWhenStencilWasSkippedEi
zmd:__ZN11UnityEngine7Connect13ConnectConfig20RestoreTimeoutConfigERK13dynamic_arrayIiLj4EEjRS3_
zc:invoke_fi
xWe:_DateTimeFormatInfo_GetAllDateTimePatternsInternal_m1082712316
z7d:__ZN6il2cpp6icalls8mscorlib6System10Reflection4Emit11TypeBuilder20create_runtime_classEP27Il2CppReflectionTypeBuilderS7_
sje:_SecurityException__ctor_m1202687584
n3:__ZL21InternalAssertConsolePKcz
Hea:__ZN18AsyncUploadManagerC2E18MemLabelIdentifier
xc:invoke_ff
ofj:_Application_get_platform_m3397471636
Xog:_RSAManaged_DecryptValue_m2608655384
Jd:_emscripten_glVertexAttrib3f
JJd:__ZN30dense_hashtable_const_iteratorINSt3__24pairIK10KeyWrapperINS1_IPK11Il2CppImageP11Il2CppClassEEEjEES9_17ReflectionMapHashIS8_EN14dense_hash_mapIS9_jSD_NS9_14EqualsComparerINS0_8equal_toIS8_EEEENS0_9allocatorISB_EEE9SelectKeyESI_SK_EppEv
pBj:_X509Certificate_get_Signature_m187805681
oTh:_EnumBuilder_GetPropertyImpl_m3831334665
yhc:__ZNSt3__26__treeINS_12__value_typeIiP9ProjectorEENS_19__map_value_compareIiS4_NS_4lessIiEELb1EEENS_9allocatorIS4_EEE7destroyEPNS_11__tree_nodeIS4_PvEE
j$c:__ZN20TextRenderingPrivate8TextMesh11ApplyToMeshEv
jvf:_EncryptedPrivateKeyInfo_get_EncryptedData_m3386193896
zek:_emscripten_glDrawRangeElements__wrapper
Kjj:_InvokableCallList_AddListener_m1487947048
uOe:_Char_ToString_m2278025418_AdjustorThunk
Ivh:__ZL96Transform_t1883967668_CustomAttributesCacheGenerator_Transform_Rotate_m1907473247____relativeTo1P21CustomAttributesCache
bVe:_Stack_Peek_m2410696105
h8b:__ZNSt3__25dequeI10InputEventNS_9allocatorIS1_EEE19__add_back_capacityEv
nVe:_Console_Open_m488715259
jTj:_AudioClip_InvokePCMSetPositionCallback_Internal_m87115294
eza:__ZN13ComputeShader13SetValueParamERKN9ShaderLab16FastPropertyNameEiPKv
Tab:__ZN14BlendShapeDataD2Ev
Iva:__ZL18ProgramUniform3uivPK7ApiGLESjiihPKv
sgi:__Z131RuntimeInvoker_Int32_t497012075_Vector2_t1132184324_Vector2_t1132184324_ContactFilter2D_t1726620777_RuntimeObject_Single_t209704323PFvvEPK10MethodInfoPvPS4_
ghd:__Z47CanvasRenderer_Set_Custom_PropHasPopInstructionP12Il2CppObjecth
JIg:_Interval_get_IsEmpty_m3578141939_AdjustorThunk
gif:_Array_InternalArray__Insert_TisUILineInfo_t233092741_m437725506_gshared
qva:__ZN5Image8SetImageEii13TextureFormatb
V9:__ZN17MessageIdentifier21GetRegisteredMessagesEv
C4j:_AnalyticsTracker_Start_m3559964874
f_d:__ZN6il2cpp2vm5Array3NewEP11Il2CppClassj
sUd:__GLOBAL__sub_I_Image_cpp
AGd:__ZN6il2cpp2vm4Type27GetGenericArgumentsInternalEP20Il2CppReflectionTypeb
Z_a:__ZNSt3__27__sort5IRPFbRKNS_4pairIN9ShaderLab16FastPropertyNameEfEES6_EPS4_EEjT0_SB_SB_SB_SB_T_
hqf:_SimpleCollator_LastIndexOfOrdinal_m2610824245
_Kh:__ZL80CanvasScaler_t3617245861_CustomAttributesCacheGenerator_m_ReferencePixelsPerUnitP21CustomAttributesCache
K$d:__ZN14dense_hash_mapI10KeyWrapperIPK19Il2CppGenericMethodEP10MethodInfoN6il2cpp8metadata23Il2CppGenericMethodHashENS4_14EqualsComparerINS8_26Il2CppGenericMethodCompareEEENSt3__29allocatorINSD_4pairIKS4_S6_EEEEE15set_deleted_keyERSG_
Azb:__Z29Transfer_Blittable_ArrayFieldI14SafeBinaryRead4AABBEvRT_R9ArrayInfoRK23StaticTransferFieldInfo
n_i:_InternalEnumerator_1_get_Current_m870727886_gshared
HEh:__ZL56g_UnityEngine_UI_Assembly_CustomAttributesCacheGeneratorP21CustomAttributesCache
Ksc:__Z46Register_UnityEngine_RectOffset_get_horizontalv
k0a:__ZN18DelayedCallManager8ClearAllEv
l6b:__ZN17PersistentManagerC2E18MemLabelIdentifierii
NXf:_List_1_System_Collections_IList_IndexOf_m1114175329_gshared
Wra:__ZL13BlitImageImplR14ImageReferenceiiRKS_NS_10ColorSpaceENS_8BlitModeEb
F0b:__ZNK25RenderPrePassObjectSorterclERK16RenderObjectDataS2_
CHb:__Z22TransferField_NonArrayI18StreamedBinaryReadILb1EE27Converter_SimpleNativeClassI8GUIStyleEEvRK23StaticTransferFieldInfoR31RuntimeSerializationCommandInfoRT0_
$uj:_Sprite_INTERNAL_get_rect_m1482265755
we:_Mix_LoadWAV_RW
Enj:_Mesh_GetAllocArrayFromChannelImpl_m1678590368
Wdj:_Uri_ParseNoExceptions_m1821710453
uz:__ZN7mecanim6memory16MecanimAllocator8AllocateEjj
Pxa:__Z13IsFloatFormat14GraphicsFormat
Jr:__ZNSt3__27__sort4IRNS_6__lessIN11UnityEngine9Animation13CachedBindingES4_EEPS4_EEjT0_S8_S8_S8_T_
c0f:_List_1_CheckCollection_m2303697427_gshared
wWd:__ZN6il2cpp2gcL12alloc_handleEPNS0_10HandleDataEP12Il2CppObjectb
vik:_emscripten_glGetAttribLocation__wrapper
U0b:__Z13InitIndexListR9IndexListj
Vaa:__ZL16ReadTypeTreeImplILb1EEbR8TypeTreeRK16TypeTreeIteratorRPKhS6_i
Jvi:_Transform_1_BeginInvoke_m3822289551_gshared
dHj:_NoiseProfile_OnFixedUpdate_m160564432
$dj:_Uri_get_IsUnc_m3032610906
Fm:_emscripten_glDeleteVertexArrays
Dma:__ZN13GfxDeviceGLES17SetComputeUniformE12ObjectHandleI18ComputeProgram_TagPvER18ComputeShaderParamjPKv
Fik:b95
dv:__ZN13AnimationClip10FloatCurve8TransferI18StreamedBinaryReadILb0EEEEvRT_
ykk:_emscripten_glValidateProgram__wrapper
Clc:__ZN13MeshScripting27PrintErrorCantAccessChannelEPK4Mesh30InternalScriptingShaderChannel
Xe:_emscripten_glUniform3fv
d9e:_Array_InternalArray__ICollection_Contains_TisSByte_t1872536467_m1378856836_gshared
pZa:__ZN9ShaderLab7Program14RemoveVariantsERK13dynamic_arrayI16ShaderKeywordSetLj4EE
NZj:_TextGenerator_Populate_Internal_m177610978
YRd:__ZN6il2cpp2vm9Exception20GetArgumentExceptionEPKcS3_
WAe:_Graphic_CrossFadeColor_m2716175208
LVg:_StringBuilder_AppendLine_m193116654
Iik:_glDrawArrays__wrapper
wW:__ZN9AudioClip27IsFormatSupportedByPlatformERKN4core12basic_stringIcNS0_20StringStorageDefaultIcEEEE
_0a:__ZN29SerializeTraitsForStringTypesIN4core12basic_stringIcNS0_20StringStorageDefaultIcEEEEE8TransferI24GenerateTypeTreeTransferEEvRS4_RT_
Taf:_PlayableHandle_IsPlayableOfType_TisAnimationOffsetPlayable_t2763692946_m71175041_AdjustorThunk
Ibg:_Collection_1_IsSynchronized_m3203493786_gshared
Q0j:_CanvasRenderer_SetMaterial_m3757449562
Y3c:_UNITY_FT_Match_Size
sUj:_AudioConfigurationChangeHandler_BeginInvoke_m1408438787
Sz:__ZN7mecanim20CreateValueArrayMaskEPKNS_18ValueArrayConstantERNS_6memory9AllocatorE
Rzf:_NumberFormatInfo_get_InvariantInfo_m3295993303
Cbh:__ZL58PropertyBuilder_t2911030352_CustomAttributesCacheGeneratorP21CustomAttributesCache
rld:__ZN11UnityEngine7Connect14AppUpdateEventC2Ev
HRa:__ZN12ImageFilters17RemoveImageFilterERK11ImageFilter
BFg:_X509CertificateCollection_AddRange_m3104492288
kma:__ZN9GfxDevice31InsertCustomBlitCallbackAndDataEPFviPvER33UnityRenderingExtCustomBlitParams
wRb:__Z32AddPathRemapsForBuiltinResourcesRKN4core12basic_stringIcNS_20StringStorageDefaultIcEEEE
Q$e:_DateTime_Add_m4215478219
FWa:__ZN14RenderSettings23VirtualRedirectTransferER24GenerateTypeTreeTransfer
oxg:_InternalAsyncResult_SetComplete_m1401673743
nYe:_Double_Parse_m1240137035
UAb:__ZL26Transfer_SimpleNativeClassI17RemapPPtrTransfer17AnimationCurveTplIfELb0EEvRK29SerializationCommandArgumentsR31RuntimeSerializationCommandInfo
GFd:__ZN6il2cpp2vm14TypeNameParser25ConsumePropertyIdentifierEv
Im:_glDeleteTransformFeedbacks
Df:_JS_WebRequest_Send
D2d:__ZN6il2cpp2os4Time31GetTicks100NanosecondsMonotonicEv
Wva:__ZL23ProgramUniformMatrix3fvPK7ApiGLESjiihPKv
knd:__ZN18UnityConnectClient32OnVrControllerStateChangedStaticEPS_13dynamic_arrayIN4core12basic_stringIcNS2_20StringStorageDefaultIcEEEELj4EE
A9j:__ZNK10__cxxabiv117__class_type_info24process_found_base_classEPNS_19__dynamic_cast_infoEPvi
hAd:__ZN6il2cpp2vm13MetadataCache21GetFieldInfoFromIndexEj
t8h:__Z78RuntimeInvoker_Boolean_t1367519524_IntPtr_t_Int32_t497012075_SByte_t1872536467PFvvEPK10MethodInfoPvPS4_
peb:__ZNSt3__26__treeINS_12__value_typeIjbEENS_19__map_value_compareIjS2_NS_4lessIjEELb1EEE13stl_allocatorIS2_L18MemLabelIdentifier79ELi16EEE7destroyEPNS_11__tree_nodeIS2_PvEE
YY:__ZN5physx14PxLightCpuTaskD2Ev
V8e:_Array_InternalArray__ICollection_Contains_TisCustomAttributeTypedArgument_t694350192_m2502577787_gshared
Nq:__ZNSt3__26vectorIN4core12basic_stringIcNS1_20StringStorageDefaultIcEEEENS_9allocatorIS5_EEE6assignINS_11__wrap_iterIPS5_EEEENS_9enable_ifIXaasr21__is_forward_iteratorIT_EE5valuesr16is_constructibleIS5_NS_15iterator_traitsISE_E9referenceEEE5valueEvE4typeESE_SE_
mDd:_il2cpp_init
qdd:__ZNSt3__26__treeIPN2UI14CanvasRendererENS_4lessIS3_EENS_9allocatorIS3_EEE7destroyEPNS_11__tree_nodeIS3_PvEE
TJe:_DelegatePInvokeWrapper_Swapper_t3614709921
Yka:__ZN13GfxDeviceGLES22UploadTextureSubData2DE9TextureIDPKhiiiiii14GraphicsFormat
XVc:__ZN10ClipperLib13CleanPolygonsERNSt3__26vectorINS1_INS_8IntPointENS0_9allocatorIS2_EEEENS3_IS5_EEEEd
msc:__Z35Register_UnityEngine_Screen_get_dpiv
RHc:__ZN8JSONRead8TransferIxEEvRT_PKc17TransferMetaFlagsb
e_c:__ZN13SpeedTreeWind7AdvanceEbd
WOg:_ObjectReader_ReadNextObject_m2448284257
Nxd:__ZN15dense_hashtableINSt3__24pairIK10KeyWrapperIN6il2cpp5utils13dynamic_arrayIPK10Il2CppTypeLj4EEEEPFvvEEESA_NS3_8metadata19Il2CppSignatureHashEN14dense_hash_mapISA_SD_SG_NSA_14EqualsComparerINSF_22Il2CppSignatureCompareEEENS0_9allocatorISE_EEE9SelectKeyESK_SM_E12expand_arrayEjN21dense_hash_map_traits17integral_constantIbLb0EEE
Z2a:__ZN16LightmapSettings5ResetEv
pnc:__ZN9Transform16SetLocalPositionERK8Vector3f
E8b:__ZN10BootConfig4Data12InitFromFileEPPKcjS2_
fre:_PhysicsRaycaster_U3CRaycastU3Em__0_m4187581624
KR:__ZN12SoundManagerC2Ev
C3c:_UNITY_tt_face_free_name
zVg:_StringBuilder_ToString_m3269676838
yjc:__ZN17TransformInternal24AddTransformSubhierarchyER18TransformHierarchyjS1_RjS2_yb
p4e:_Double_System_IConvertible_ToInt64_m2012480639_AdjustorThunk
pig:_ReadOnlyCollection_1__ctor_m645868540_gshared
ktc:__Z43Register_UnityEngine_Input_GetKeyDownStringv
Cwa:__ZN14DataBufferGLES3MapEjjj
VEg:_X509Store_get_Factory_m570245204
bp:FUNCTION_TABLE_fidi
Pbb:__ZN14SpriteRenderer23VirtualRedirectTransferER19StreamedBinaryWriteILb0EE
Djk:_emscripten_glGetShaderiv__wrapper
Dcc:__Z13RegisterClassI9TransformEvv
B3e:_StackFrame__ctor_m220423986
Gjd:__ZN14UnityAnalytics22HandleCustomEventCountEj
zHf:_Directory_CreateDirectory_m1936409565
L_a:__ZN18UnityPropertySheet11UnityTexEnv8TransferI19StreamedBinaryWriteILb0EEEEvRT_
WOa:__ZNK6Camera33CalculateFarPlaneWorldSpaceLengthEv
LUh:_ILGenerator_add_token_fixup_m2250022301
Q5d:_GC_make_descriptor
HJd:__ZNK15dense_hashtableINSt3__24pairIK10KeyWrapperINS1_IPK11Il2CppImageP11Il2CppClassEEEjEES9_17ReflectionMapHashIS8_EN14dense_hash_mapIS9_jSD_NS9_14EqualsComparerINS0_8equal_toIS8_EEEENS0_9allocatorISB_EEE9SelectKeyESI_SK_E5beginEv
x$e:_DateTime_System_IConvertible_ToUInt16_m3982830265_AdjustorThunk
PSe:_Enumerator_FailFast_m974091509
$P:__ZN4FMOD3DSP8getInputEiPPS0_PPNS_13DSPConnectionE
VO:__ZN13AudioListenerD2Ev
Ubd:_UNITY_FT_Done_Library
yVe:_Decimal_op_Inequality_m2366317993
gvi:_Transform_1_Invoke_m795634120_gshared
Zfd:__ZN2UI13CanvasManager17EmitDataForCameraEP6Camera
xcf:_Array_AsReadOnly_TisCustomAttributeNamedArgument_t3990136598_m3792830116_gshared
Jai:__Z74RuntimeInvoker_RuntimeObject_RuntimeObject_Int64_t2229785298_RuntimeObjectPFvvEPK10MethodInfoPvPS4_
JTc:__Z16b2CollideCirclesP10b2ManifoldPK13b2CircleShapeRK11b2TransformS3_S6_
STf:_Enumerator_System_Collections_IEnumerator_Reset_m2807955284_AdjustorThunk
rej:_Uri_Merge_m1116279393
Qve:_Clipping_FindCullAndClipWorldRect_m2117530214
Avc:__Z44Register_UnityEngine_Material_GetTextureImplv
yOb:__ZL8MainLoopv
IJ:__ZN15SerializeTraitsI9OffsetPtrIN7mecanim12statemachine26SelectorTransitionConstantEEE8TransferI24GenerateTypeTreeTransferEEvRS4_RT_
Tfi:__Z72RuntimeInvoker_Vector2_t1132184324_Vector2_t1132184324_Single_t209704323PFvvEPK10MethodInfoPvPS4_
nHg:_Key_Equals_m4004052761
Ehd:__Z47Register_UnityEngine_CanvasRenderer_SetMaterialv
mlk:_emscripten_glIsShader__wrapper
eKc:__ZN11UnityEngine9Analytics16StartupTimeEvent23SetAssembliesTimingInfoEyy
MIe:_Array_SetValue_m988738659
HPe:_ArrayListWrapper_IndexOf_m2073314879
qya:__ZN15dense_hashtableINSt3__24pairIKPK17RenderSurfaceBaseP13RenderTextureEES4_19PointerHashFunctionIS4_EN14dense_hash_mapIS4_S7_SA_NS0_8equal_toIS4_EE13stl_allocatorIS8_L18MemLabelIdentifier67ELi16EEE9SelectKeyESD_SG_E12resize_deltaEjj
JLc:__ZN19CompositeCollider2D22QueryCompositeColliderEPK10Collider2DPK11Rigidbody2D
e_i:_InternalEnumerator_1_System_Collections_IEnumerator_get_Current_m4034421378_AdjustorThunk
Ajd:__ZN11UnityEngine9Analytics23CustomLimitReachedEvent12ToJsonStringER9JSONWrite
swh:__ZL63NativeClassAttribute_t1001644511_CustomAttributesCacheGeneratorP21CustomAttributesCache
bP:__ZN13AudioListener23VirtualRedirectTransferER24GenerateTypeTreeTransfer
wbb:__ZThn32_N12MeshRendererD1Ev
ZXa:__ZN13RenderTexture23VirtualRedirectTransferER19StreamedBinaryWriteILb0EE
Fsf:_ASN1_GetBytes_m1158916576
TPe:_ArrayListWrapper_Sort_m1451861451
Wwf:_X501_AppendEntry_m1550076387
n1d:__ZN6il2cpp2vm13ComObjectBase17GetMarshalSizeMaxERK10Il2CppGuidPvjS5_jPj
pFf:_Int64_System_IConvertible_ToByte_m117535631_AdjustorThunk
$fc:__ZN9TransformC2E18MemLabelIdentifier18ObjectCreationMode
w8j:_truncate
tpb:__ZN9ShaderLab27SerializedShaderVectorValue8TransferI18StreamedBinaryReadILb0EEEEvRT_
hhf:_Array_InternalArray__Insert_TisTableRange_t153726422_m3447034543_gshared
c4a:__ZN8Renderer21RendererBecameVisibleEv
S7j:___stpncpy
X5:__ZN10MemoryPool16StaticInitializeEPv
Aga:__ZN11TypeManager21CleanupGlobalInstanceEv
eff:_Array_InternalArray__ICollection_Add_TisKeyValuePair_2_t1903739822_m266136531_gshared
LVe:_Convert_ToBoolean_m1110972637
N:Math_atan
tGd:__ZNSt3__212basic_stringIcNS_11char_traitsIcEENS_9allocatorIcEEE6__initIPKcEENS_9enable_ifIXsr21__is_forward_iteratorIT_EE5valueEvE4typeESA_SA_
xtg:_Context_StartSwitchingSecurityParameters_m2490488470
EO:__ZNK10SampleClip11GetResourceEv
jja:__ZN9GfxDevice15GetStereoMatrixE21MonoOrStereoscopicEye24BuiltinShaderMatrixParamR10Matrix4x4f
mKa:__ZN4core12basic_stringIcNS_20StringStorageDefaultIcEEE6resizeEj
bSg:_CodeAccessPermission_Equals_m2358574133
lBc:__Z43Register_UnityEngine_Event_set_displayIndexv
hsf:_PrimeGeneratorBase_get_PrimalityTest_m1274580554
jZc:__GLOBAL__sub_I_CmEventProfiler_cpp
yJf:_FileStream_BeginWrite_m162691677
gzi:_Dictionary_2_Remove_m2064469458_gshared
Fsg:_Context_set_MasterSecret_m3844595886
sMa:__ZN17GlobalGameManager23VirtualRedirectTransferER24GenerateTypeTreeTransfer
Snd:__ZN19UnityConnectServiceD0Ev
aV:__ZN16BaseVideoTextureD2Ev
pJh:__ZL78MaskableGraphic_t1903706180_CustomAttributesCacheGenerator_m_ShouldRecalculateP21CustomAttributesCache
Bwi:_Enumerator_MoveNext_m938145279_AdjustorThunk
aSb:__ZZ23InitPlayerLoopCallbacksvEN46EarlyUpdateUpdateAllUnityWebStreamsRegistrator7ForwardEv
YSa:__ZNSt3__26vectorIfNS_9allocatorIfEEE8__appendEjRKf
o9e:_Array_InternalArray__ICollection_Contains_TisRaycastResult_t3692659608_m2341314544_gshared
iEf:_Int16_ToString_m2978378238
amd:__ZN11UnityEngine15PlatformWrapper21GetCopyTextureSupportEv
Bbi:__Z80RuntimeInvoker_Void_t3431959231_RuntimeObject_Int32_t497012075_SByte_t1872536467PFvvEPK10MethodInfoPvPS4_
qQj:_AesTransform_ECB_m1751865513
bFf:_Int32_TryParse_m644111448
ZEe:_InputField_get_clipboard_m3661052857
fW:__ZN11AudioModule27IsFormatSupportedByPlatformEPKc
V$c:_UNITY_FT_Render_Glyph
HMj:_Event_get_rawType_m2545911516
BIf:_StreamReader__ctor_m752092603
ZNa:__ZNSt3__26vectorI17SortingLayerEntryNS_9allocatorIS1_EEE6assignINS_11__wrap_iterIPS1_EEEENS_9enable_ifIXaasr21__is_forward_iteratorIT_EE5valuesr16is_constructibleIS1_NS_15iterator_traitsISA_E9referenceEEE5valueEvE4typeESA_SA_
sVc:__Z14b2PairLessThanRK6b2PairS1_
xaa:__ZN14SerializedFile14SerializedTypeD2Ev
lUj:_AudioSettings_InvokeOnAudioConfigurationChanged_m3261422079
rJc:__Z19TransferField_ArrayI8JSONRead16Converter_StringEvRK23StaticTransferFieldInfoR31RuntimeSerializationCommandInfoRT0_
ipg:_ContentInfo__ctor_m1650220896
jte:_StandaloneInputModule_SendSubmitEventToSelectedObject_m758251382
bMc:__ZN15b2WheelJointDef10InitializeEP6b2BodyS1_RK6b2Vec2S4_
N0b:__Z19SetupShadowCullDataRK27ScriptableCullingParametersRK17ShaderReplaceDataPK22SceneCullingParametersf16ShadowProjectionR14ShadowCullData
khg:_ReadOnlyCollection_1_System_Collections_Generic_ICollectionU3CTU3E_Add_m3498308749_gshared
oGa:__ZNK25ThreadsafeLinearAllocator22GetAllocatedMemorySizeEv
j7c:_cff_size_request
Q$a:__ZN15DirectorManager14ConnectionPool12SwitchBucketEP14ConnectionList
Wxf:_X509Extension_Equals_m76348285
LXf:_List_1_System_Collections_IList_Add_m216092_gshared
OVe:_Decimal_op_GreaterThan_m2867014869
oZf:_List_1_RemoveAt_m2742660421_gshared
Edd:__ZN2UI11CompareFuncEPNS_6CanvasES1_
hui:_Enumerator_System_Collections_IDictionaryEnumerator_get_Key_m87389092_AdjustorThunk
QQ:__ZN4FMOD7Channel11set3DSpreadEf
Q8d:__ZN6il2cpp2os6Memory14AlignedReAllocEPvjj
W:Math_fround
X0a:__ZN24GenerateTypeTreeTransfer16TransferTypelessEPjPKc17TransferMetaFlags
Jva:__ZL18ProgramUniform4uivPK7ApiGLESjiihPKv
W0f:_List_1_GetEnumerator_m2702659045_gshared
FTj:_AudioSource_INTERNAL_CALL_ClearExtensionProperties_m4280681942
Rff:_Array_InternalArray__ICollection_Add_TisRaycastHit_t2952049248_m2052964486_gshared
VWa:__ZN10builtintex21GetAttenuationTextureEv
An:FUNCTION_TABLE_viiiiiiiiiiiiiii
uye:_Dropdown_set_value_m3421375123
ZZh:_MonoProperty_get_Attributes_m901364315
ilc:__ZNK4Mesh19CanAccessFromScriptEv
H5:__Z15GetGraphicsCapsv
vna:__ZN7ApiGLES15BindVertexArrayEN2gl6HandleILNS0_10ObjectTypeE3EEE
O0g:_UInt16_System_IConvertible_ToInt16_m3050697616
NCj:_X509Store_LoadCrl_m403464023
Ykc:__ZN24CompressedAnimationCurve17CompressQuatCurveERN13AnimationClip15QuaternionCurveE
Bz:__ZN17AnimationPlayable17GetAnimationClipsER13dynamic_arrayIP13AnimationClipLj4EE
AGb:__Z18Transfer_BlittableI18StreamedBinaryReadILb1EELb1ExEvRK29SerializationCommandArgumentsR31RuntimeSerializationCommandInfo
VKd:__ZN30dense_hashtable_const_iteratorINSt3__24pairIK10KeyWrapperINS1_IPK9EventInfoP11Il2CppClassEEEjEES9_17ReflectionMapHashIS8_EN14dense_hash_mapIS9_jSD_NS9_14EqualsComparerINS0_8equal_toIS8_EEEENS0_9allocatorISB_EEE9SelectKeyESI_SK_EppEv
Dbc:__ZN18BackgroundJobQueue29ScheduleMainThreadJobInternalEPFvPvES0_
Vdd:__ZN2UI11CanvasGroup23VirtualRedirectTransferER24GenerateTypeTreeTransfer
cPg:_ObjectReader_ReadRefTypeObjectInstance_m2671255834
hwb:__Z18Transfer_BlittableI14SafeBinaryReadLb1EhEvRK29SerializationCommandArgumentsR31RuntimeSerializationCommandInfo
Gha:__ZNSt3__224__buffered_inplace_mergeIRNS_4lessIN4core12basic_stringIcNS2_20StringStorageDefaultIcEEEEEENS_11__wrap_iterIPS6_EEEEvT0_SC_SC_T_NS_15iterator_traitsISC_E15difference_typeESG_PNSF_10value_typeE
_7i:_SynchronizationAttribute_ExitContext_m1329620699
Fxh:__ZL69PersistentCall_t1134781144_CustomAttributesCacheGenerator_m_ArgumentsP21CustomAttributesCache
Aqf:_Escape_t4177099005_marshal_pinvoke
jc:invoke_viifff
Q7:__Z22DestroyObjectHighLevelP6Objectb
XNc:__ZNK12b2MouseJoint10GetAnchorBEv
hXb:__Z26BeginRenderQueueExtractionR15RenderNodeQueuePK16RendererCullDataRK13CullingOutputPK12LODDataArray15ExtractionFlagsP18JobBatchDispatcher
c$c:__ZNK13TextRendering4Font10GetTextureEv
bse:_PointerInputModule_GetTouchPointerEventData_m1812367973
Aj:_emscripten_glVertexAttrib3fv
nJi:_Raycast2DCallback_EndInvoke_m2780546665
RQd:__ZN6il2cpp6icalls8mscorlib6System9Threading6Thread16SetName_internalEP12Il2CppThreadP12Il2CppString
Ej:_glBeginTransformFeedback
mEj:_U3CDoStopU3Ec__Iterator0_MoveNext_m106427444
NTa:__ZN18JobBatchDispatcherC2E11JobPriorityi
Zbb:__ZThn32_N14SpriteRendererD0Ev
BLc:__ZN23ColliderTilingExtension10IsTilingOnEv
jzc:__ZN8GUIStyle14GetBuiltinFontEv
Qla:__ZN9GfxDevice13EndFrameStatsEv
xfc:__Z7Empty2DP9Texture2DPhiiii
eZf:_List_1_CheckMatch_m1932186979_gshared
Dtj:_Renderer_get_sortingOrder_m2555972779
UPd:__ZN6il2cpp6icalls8mscorlib6System7Runtime15InteropServices7Marshal19copy_from_unmanagedEiiP11Il2CppArrayi
CNi:_Slider_get_maxValue_m4049914880
UO:__ZL34StaticDestroyAudioCustomFilterRootPv
n1g:_UInt32_Parse_m4014336443
TPc:__ZN15dense_hashtableINSt3__24pairIKiiEEi21InstanceIDHashFunctorN14dense_hash_mapIiiS4_NS0_8equal_toIiEE13stl_allocatorIS3_L18MemLabelIdentifier37ELi16EEE9SelectKeyES7_SA_E12maybe_shrinkEv
mza:__ZN19ComputeShaderKernelD2Ev
vUg:_Encoding_get_UTF7_m2531103050
a9b:__ZN10systeminfo21GetTemporaryCachePathEv
x5e:_Enum_FindName_m1792295479
C2d:__ZN6il2cpp2os4Time29GetTicksMillisecondsMonotonicEv
nHe:_U3CDelayedSetDirtyU3Ec__Iterator0_MoveNext_m111094377
mej:_Uri__ctor_m2342611153
DTg:_EncoderExceptionFallbackBuffer_Fallback_m1735647866
yrb:__ZN12ScriptMapper8TransferI14SafeBinaryReadEEvRT_
uc:invoke_viifffi
zCb:__Z18Transfer_BlittableI24GenerateTypeTreeTransferLb1E10Matrix4x4fEvRK29SerializationCommandArgumentsR31RuntimeSerializationCommandInfo
daj:_PatternCompiler_EmitIn_m4094710585
Nfi:__Z69RuntimeInvoker_Boolean_t1367519524_Rect_t2422168440_SByte_t1872536467PFvvEPK10MethodInfoPvPS4_
OFc:__ZN9JSONWrite8TransferI10Matrix4x4fEEvRT_PKc17TransferMetaFlags
B8c:_cf2_hintmap_map
blf:_Array_Sort_TisVector3_t831627742_m1356004644_gshared
kzb:__ZN15SerializeTraitsI5RectTIfEE8TransferI14SafeBinaryReadEEvRS1_RT_
JGa:__ZNK14SerializedFile15GetTypeIfExistsEx
Iwc:__Z41Register_UnityEngine_Texture_get_wrapModev
bkk:_glDeleteShader__wrapper
P0c:_UNITY_FT_Raccess_Get_DataOffsets
Vic:__ZN14PlayableOutputC2EjP13PlayableGraph
q4a:__ZThn32_NK8Renderer11GetMaterialEi
Epb:__ZN9ShaderLab20SerializedSubProgram8TransferI19StreamedBinaryWriteILb0EEEEvRT_
Ojd:__Z13RegisterClassI21UnityAnalyticsManagerEvv
$0g:_UInt16_System_IConvertible_ToUInt32_m2914055688
K2d:__ZN6il2cpp6icalls8mscorlib6System7Runtime15InteropServices8GCHandle15GetTargetHandleEP12Il2CppObjectii
Rte:_UIBehaviour_IsDestroyed_m4214766330
Web:__ZN9InputAxis8TransferI18StreamedBinaryReadILb0EEEEvRT_
gij:_CullingGroup_t2380488271_marshal_pinvoke_back
Oia:__ZN9GfxDevice29GetMinimumNodesPerGraphicsJobEv
kab:__ZN17BlendShapeChannel8TransferI24GenerateTypeTreeTransferEEvRT_
eSi:_InternalEnumerator_1_System_Collections_IEnumerator_get_Current_m2564616820_gshared
ate:_StandaloneInputModule_ShouldIgnoreEventsOnNoFocus_m3413418025
TSf:_Enumerator_System_Collections_IEnumerator_get_Current_m4092570602_AdjustorThunk
sti:_Enumerator_get_CurrentKey_m3462900377_AdjustorThunk
xpg:_Alert_get_Description_m3589703464
c1j:_CanvasRenderer_set_cull_m3266682339
Qfa:__ZN15DirectorManager17OnSampleFixedTimeEv
d2b:__ZNK13RendererScene21GetDynamicObjectCountEv
lCd:__ZN6il2cpp6icalls8mscorlib6SystemL8IsPublicEPK12PropertyInfo
c3d:_GC_is_black_listed
K6i:_Context_get_DefaultContext_m3633374975
lib:__ZNSt3__26vectorIN30RuntimeInitializeOnLoadManager9ClassInfoE13stl_allocatorIS2_L18MemLabelIdentifier13ELi16EEE8__appendEj
Jkk:_emscripten_glDisable__wrapper
fDb:__ZN24GenerateTypeTreeTransfer32TransferSTLStyleArrayWithElementI23ManagedObjectTransfererEEvRT_17TransferMetaFlags
Edf:_Array_IndexOf_TisVector4_t3374053054_m3213614067_gshared
V2h:__Z113RuntimeInvoker_Void_t3431959231_RuntimeObject_Int64_t2229785298_RuntimeObject_Int64_t2229785298_Int64_t2229785298PFvvEPK10MethodInfoPvPS4_
y_d:__ZN6il2cpp6icalls8mscorlib6System11Environment12get_PlatformEv
QFe:_InputField_GenerateHightlight_m2278628676
a3e:_Decimal_op_Division_m2853039561
l2c:_UNITY_FT_Destroy_Class_tt_driver_class
B1i:_Comparer_1_System_Collections_IComparer_Compare_m2496686426_gshared
ovi:_Transform_1_Invoke_m1827459864_gshared
a9d:__ZN6il2cpp6icalls8mscorlib6System7Runtime8Remoting16RemotingServices16GetVirtualMethodEP20Il2CppReflectionTypeP22Il2CppReflectionMethod
Hae:_DSA_ZeroizePrivateKey_m1582454990
bqc:__Z42Register_UnityEngine_Behaviour_get_enabledv
vFd:__ZN6il2cpp2vm14TypeNameParser23ParseNestedTypeOptionalERi
M7e:_CultureInfo_Equals_m2708199929
WBg:_ServicePointManager_get_CertificatePolicy_m847903811
bud:__ZN6il2cpp2vm5Class11IsInterfaceEPK11Il2CppClass
iib:__ZN30RuntimeInitializeOnLoadManager9ClassInfo8TransferI14SafeBinaryReadEEvRT_
v_b:__ZL13RenderCastersiRK8Vector3fS1_RK13ShadowJobDataR17ShaderPassContextRKNSt3__26vectorI16ShadowCasterData13stl_allocatorIS9_L18MemLabelIdentifier2ELi16EEEERKNS8_I20ShadowCasterPartDataSA_ISG_LSB_2ELi16EEEERK15RenderNodeQueuebPKj
Al:_emscripten_glGetShaderInfoLog
Cwh:__ZL63RuntimePlatform_t1265094592_CustomAttributesCacheGenerator_NaClP21CustomAttributesCache
DMe:_Convert_ToSingle_m2117630188
Ajh:__ZL99Thread_t387895208_CustomAttributesCacheGenerator_Thread_t387895208____ExecutionContext_PropertyInfoP21CustomAttributesCache
e4c:_UNITY_ft_glyphslot_set_bitmap
hLc:__ZN14b2PolygonShape3SetEPK6b2Vec2i
sOj:_GUIStyle_get_padding_m2608736788
kQj:_AesManaged_get_KeySize_m36357188
Pl:_glUniform1i
Xyg:_HybridDictionary_CopyTo_m1235618718
i$d:__ZN6il2cpp2os6ThreadC2EPNS0_10ThreadImplE
Lpf:_SortKeyBuffer_GetResultAndReset_m1576164726
W9b:__ZN6prcoreL11inner_clearILj3EEEvPhjjj
IRe:_CollectionBase_System_Collections_IList_Contains_m414408666
PWg:_UTF7Encoding_GetChars_m1440664713
IQa:__Z29FindReflectionProbeFromAnchorP9TransformRK4AABBRS1_RsS5_
S3j:_UnityAnalyticsHandler_CustomEvent_m1817194219
tad:_Read_CVT_Stretched
sBf:_GuidParser_ParseOptChar_m983618101
aCd:__ZN6il2cpp6icalls8mscorlib6System18CollectTypeMethodsINS_5utils10functional10TrueFilterEEEvP11Il2CppClassPKS7_jRKT_RNSt3__26vectorIPK10MethodInfoNSE_9allocatorISI_EEEERA65535_b
HOb:__Z14SetPlayerPause11PlayerPauseb
yRe:_CaseInsensitiveHashCodeProvider_AreEqual_m261753550
SAi:_Dictionary_2_U3CCopyToU3Em__0_m2550306220_gshared
waj:_QuickSearch_GetChar_m2422042560
KIb:__ZN18StreamedBinaryReadILb1EE8TransferI13dynamic_arrayIfLj4EEEEvRT_PKc17TransferMetaFlags
NSe:_Enumerator__ctor_m3242497307
V6:__Z30scripting_stack_trace_info_for21ScriptingExceptionPtrR14StackTraceInfo
udk:_glCompressedTexSubImage3D__wrapper
qXa:__ZN18ShadowMapJobHeaderD0Ev
xvj:_StackTraceUtility__cctor_m3803427926
BIh:__ZL69InputField_t1180063600_CustomAttributesCacheGenerator_m_TextComponentP21CustomAttributesCache
fKd:__ZN15dense_hashtableINSt3__24pairIK10KeyWrapperINS1_IPK12PropertyInfoP11Il2CppClassEEEjEES9_17ReflectionMapHashIS8_EN14dense_hash_mapIS9_jSD_NS9_14EqualsComparerINS0_8equal_toIS8_EEEENS0_9allocatorISB_EEE9SelectKeyESI_SK_EC2ERKSN_j
vle:_String_Equals_m2665394222
nOb:__Z20scripting_gc_disablev
aje:__Z9NullCheckPv
C1g:_UInt32_System_IConvertible_ToByte_m3869313955_AdjustorThunk
wPf:_MonoType_GetMethods_m1276969189
kIj:_CachedInvokableCall_1__ctor_m2469203550_gshared
mLc:__ZNK14b2PolygonShape9TestPointERK11b2TransformRK6b2Vec2
Fhh:__ZL70CodeAccessSecurityAttribute_t2405610075_CustomAttributesCacheGeneratorP21CustomAttributesCache
vSc:__ZN22FindParticleCollisions22ProcessFoundCollisionsERKfRK13dynamic_arrayI15BatchedRaycastsLj4EERS2_I20BatchedRaycastResultLj4EERS2_I21BatchedColliderResultLj4EE
byj:_Vector3__ctor_m1170837165
LIb:__Z29Transfer_Blittable_ArrayFieldI18StreamedBinaryReadILb1EEfEvRT_R9ArrayInfoRK23StaticTransferFieldInfo
cva:__ZN6prcoreL26RemapGenericIntegerToFloatI17TexFormatARGB888818TexFormatARGBFloatEEvPKNS_9InnerInfoE
BRh:_ConstructorBuilder_GetCustomAttributes_m143929224
aVj:__ZL24UnresolvedVirtualCall_10P12Il2CppObjectPK10MethodInfo
iik:_emscripten_glCompressedTexSubImage2D__wrapper
CSf:_Enumerator_System_Collections_IEnumerator_Reset_m2721531265_gshared
tSg:_CryptoConfig_CreateFromName_m3941124508
Qxe:_InputField_EnforceTextHOverflow_m2206850219
B2d:__ZN6il2cpp6icalls8mscorlib6System7Runtime16CompilerServices14RuntimeHelpers15InitializeArrayEP11Il2CppArrayi
mpd:__ZZN18UnityConnectClient23RegisterGlobalCallbacksEvEN46EarlyUpdateUnityConnectClientUpdateRegistrator7ForwardEv
yhg:_ReadOnlyCollection_1_System_Collections_IList_Insert_m792472913_gshared
xdb:__ZN14SubstanceInput8TransferI14SafeBinaryReadEEvRT_
qTe:_Enumerator__cctor_m694067235
$Uc:__ZN16b2ContactManager7CollideEv
gBd:__ZN6il2cpp2vmL29SocketPollingThreadEntryPointEPv
yI:__ZN14SafeBinaryRead21TransferSTLStyleArrayI13dynamic_arrayI4PPtrI13MonoBehaviourELj4EEEEvRT_17TransferMetaFlags
GZi:_InternalEnumerator_1_get_Current_m2241033839_AdjustorThunk
uNg:_RemotingConfiguration_RegisterTypes_m2904494595
yBj:_X509Certificate_VerifySignature_m4057883099
aJg:_IntervalCollection_Optimize_m5611563
lrj:_Rect__ctor_m2464867295
tab:__ZN10Matrix4x4f8TransferI18StreamedBinaryReadILb0EEEEvRT_
bhj:_Camera_FireOnPostRender_m448516521
WT:__ZN4FMOD7Channel19getReverbPropertiesEP29FMOD_REVERB_CHANNELPROPERTIES
ESe:_Hashtable__ctor_m3078106129
h_f:_List_1_Insert_m106148501_gshared
v1e:_DBNull_System_IConvertible_ToInt16_m915521941
q1b:__ZL23NormalizeRobustInternalRK8Vector3fRfS2_f
zQh:_CustomAttributeNamedArgument_ToString_m3528885114
Vxa:__ZNSt3__26vectorINS_4pairIyP17VertexDeclarationEENS_9allocatorIS4_EEE6insertENS_11__wrap_iterIPKS4_EERS9_
VZc:__GLOBAL__sub_I_modules_terrain_public_2_cpp
oZj:_Font_remove_textureRebuilt_m1965668781
joc:__Z12CancelInvokeR13MonoBehaviourR11ICallString
meh:__ZL55_TypeBuilder_t1084941122_CustomAttributesCacheGeneratorP21CustomAttributesCache
SBd:__ZN6il2cpp6icalls8mscorlib6System8MonoType13GetInterfacesEP20Il2CppReflectionType
X$:__ZN11UnityEngine15CloudWebService25WebRequestDownloadHandler7OnAbortEv
xTb:__ZN6Camera12CustomRenderER11CullResultsR17ShaderPassContextPK21CameraRenderingParamsNS_10RenderFlagEPNS_21PerformRenderFunctionEPFvvE
JRb:__ZN23ManagedAttributeManager15InitializeClassEv
R_e:_DateTime_System_IConvertible_ToByte_m3282392497
w$d:__ZN6il2cpp2os6Thread22SetNativeThreadCleanupEPFvPvE
Dpc:__Z35Application_Get_Custom_PropPlatformv
BDd:_il2cpp_class_from_system_type
Dqc:__Z44Register_UnityEngine_Camera_get_orthographicv
eCb:__Z18Transfer_BlittableI24GenerateTypeTreeTransferLb1E10ColorRGBAfEvRK29SerializationCommandArgumentsR31RuntimeSerializationCommandInfo
cua:__ZN6prcoreL17RemapGenericFloatI18TexFormatRGBAFloat16TexFormatRGFloatEEvPKNS_9InnerInfoE
_6j:_fminf
rBd:__ZN6il2cpp6icalls8mscorlib6System8MonoType8get_NameEP20Il2CppReflectionType
Eyb:__ZNSt3__26vectorI10RectOffset13stl_allocatorIS1_L18MemLabelIdentifier1ELi16EEE8__appendEj
zeg:_ReadOnlyCollection_1_System_Collections_Generic_ICollectionU3CTU3E_Remove_m3759109299_gshared
heh:__ZL60_ParameterBuilder_t3569009217_CustomAttributesCacheGeneratorP21CustomAttributesCache
Ox:__ZN21AnimationClipPlayable22PrepareAnimationEventsEfR13dynamic_arrayI22AnimationClipEventInfoLj4EE
ngc:__ZN9ShaderLab33GenerateFastPropertyName28BitHashEPKc
Nif:_Array_InternalArray__set_Item_TisLabelFixup_t1745572545_m1305326522_gshared
DIa:__ZN15dense_hashtableINSt3__24pairIKN4core12basic_stringIcNS2_20StringStorageDefaultIcEEEEP20ArchiveStorageReaderEES6_20StringHash32FunctionIS6_EN14dense_hash_mapIS6_S9_SC_NS0_8equal_toIS6_EE13stl_allocatorISA_L18MemLabelIdentifier55ELi16EEE9SelectKeyESF_SI_E9copy_fromERKSL_j
afe:_SHA1_Create_m2882650955
qp:FUNCTION_TABLE_ff
sp:FUNCTION_TABLE_fi
I6i:_Context__cctor_m15050367
BDg:_X500DistinguishedName__ctor_m2216930995
e8g:__ZL61ParamArrayAttribute_t390221334_CustomAttributesCacheGeneratorP21CustomAttributesCache
J9d:__ZN6il2cpp2vm16GenericContainer19GetGenericParameterEPK22Il2CppGenericContainert
urg:_ClientRecordProtocol_GetMessage_m3386348468
k$i:_InternalEnumerator_1_System_Collections_IEnumerator_get_Current_m3953098838_AdjustorThunk
KJf:_MonoIO_SetLength_m1047666798
Cd:_emscripten_glGetAttribLocation
hSb:__ZZ23InitPlayerLoopCallbacksvEN39PostLateUpdateResetInputAxisRegistrator7ForwardEv
NS:__ZN4FMOD12ChannelGroup14getParentGroupEPPS0_
kDj:_destroyafter_destroyAfter_m3890071104
CJ:__ZN7mecanim12statemachine20StateMachineConstant8TransferI24GenerateTypeTreeTransferEEvRT_
Gd:_emscripten_set_blur_callback
ZAe:_Graphic_RegisterDirtyLayoutCallback_m1137564865
Hek:___cxa_pure_virtual__wrapper
Tra:__ZNK14ImageReference9ClipImageEiiii
pEg:_X509Chain_BuildChainFrom_m574624186
f$b:__ZN10Matrix4x4f30SetPositionAndOrthoNormalBasisERK8Vector3fS2_S2_S2_
LAi:_Dictionary_2_Remove_m3966459996_gshared
DFa:__ZN5RectTIfE8TransferI24GenerateTypeTreeTransferEEvRT_
QYd:__ZN6il2cpp6icalls8mscorlib6System4Enum8ToObjectEP20Il2CppReflectionTypeP12Il2CppObject
gVb:__ZN12FlareManager6UpdateEv
dfk:_glColorMask__wrapper
$Ze:_Convert_ToUInt32_m4069410496
uGj:_SGFEPlayer_Jump_m3381900051
Tti:_Enumerator_Reset_m3704245889_AdjustorThunk
zqj:_QualitySettings_get_activeColorSpace_m2216671824
Bdi:__Z90RuntimeInvoker_Void_t3431959231_Int32_t497012075_RuntimeObject_RuntimeObject_RuntimeObjectPFvvEPK10MethodInfoPvPS4_
Lwf:_DeriveBytes_DeriveIV_m548561411
_ta:__ZN6prcoreL17RemapGenericFloatI17TexFormatRGBFloat14TexFormatRHalfEEvPKNS_9InnerInfoE
$oe:_BaseInputModule_ShouldActivateModule_m681638003
xyg:_TlsStream_Write_m135415746
Rfb:__ZN27GenericSlowGarbageCollector16ProcessReferenceEi
gqc:__Z38Camera_Set_Custom_PropOrthographicSizeP12Il2CppObjectf
GDg:_X500DistinguishedName_AreEqual_m3344211809
Lkj:_GameObject_get_layer_m816613538
QAh:__ZL93AudioSource_t1299949758_CustomAttributesCacheGenerator_AudioSource_Play_m4286283522____delay0P21CustomAttributesCache
X6e:_CultureInfo__ctor_m1873428045
_Ve:_Convert_ToByte_m2534791033
I9b:__Z8heapFreePvS_
w_j:_Comparison_1_Invoke_m95536557_gshared
n6c:_ps_hints_close
k7j:_fopen
KWg:_UTF7Encoding_InternalGetBytes_m1609351329
v1c:__ZN20TextRenderingPrivate8FontImplD2Ev
G1:__ZN19CloudServiceHandler8SaveFileERKN4core12basic_stringIcNS0_20StringStorageDefaultIcEEEEPKvj
XRd:__ZN6il2cpp2vm9Exception5RaiseEib
Zfk:_glFramebufferTexture2D__wrapper
Q9d:__ZN6il2cpp6icalls8mscorlib6System7Runtime8Remoting7Proxies9RealProxy27InternalGetTransparentProxyEP12Il2CppObjectP12Il2CppString
KZd:__ZN6il2cpp2vm6Method10IsInflatedEPK10MethodInfo
sDe:_InputField_get_compositionString_m2116481276
B3d:_GC_remove_header
aib:__ZNSt3__26vectorIi13stl_allocatorIiL18MemLabelIdentifier13ELi16EEE8__appendEj
m$e:_DateTimeUtils_CountRepeat_m4140580771
eJe:_ArrayTypeMismatchException__ctor_m579619332
K_e:_DateTime__ctor_m1581736926_AdjustorThunk
b0g:_Type_IsMarshalByRefImpl_m150374987
X_g:_TimeZone_ToLocalTime_m287307368
gYd:__ZN6il2cpp2vm6Object6IsInstEP12Il2CppObjectP11Il2CppClass
YNa:__ZNSt3__26vectorI17SortingLayerEntryNS_9allocatorIS1_EEE7reserveEj
Kte:_UIBehaviour_IsActive_m3400441171
bpd:__ZN11UnityEngine7Connect13ConfigHandler7ReleaseEv
qFb:__Z19TransferField_ArrayI19StreamedBinaryWriteILb0EE27Converter_UnityEngineObjectEvRK23StaticTransferFieldInfoR31RuntimeSerializationCommandInfoRT0_
lPc:__ZN10ClipperLib7Clipper15AddLocalMinPolyEPNS_5TEdgeES2_RKNS_8IntPointE
Goa:__Z16GetMSAALevelDesc9MSAALevel
MTb:__ZN8Renderer27EnsureTransformInfoUpToDateEv
_ga:__ZN15dense_hashtableINSt3__24pairIKN4core12basic_stringIcNS2_20StringStorageDefaultIcEEEEP11AssetBundleEES6_20StringHash32FunctionIS6_EN14dense_hash_mapIS6_S9_SC_NS0_8equal_toIS6_EENS0_9allocatorISA_EEE9SelectKeyESF_SH_E9copy_fromERKSK_j
Kkk:_emscripten_glFrontFace__wrapper
Oa:invoke_fiffi
g8d:__ZN6il2cpp5utils6Memory6CallocEjj
Xri:__Z51RuntimeInvoker_RuntimeObject_FloatTween_t3942154480PFvvEPK10MethodInfoPvPS4_
Paa:__ZN14SerializedFile14SerializedType8ReadTypeILb1EEEbibRPKhS3_Pi
r9f:_Collection_1_Remove_m2967875474_gshared
Q2g:_UInt64_System_IConvertible_ToUInt16_m1695731441
Ufk:_emscripten_glRenderbufferStorage__wrapper
E$a:__ZN8Playable7SetTimeEd
E6:__ZN13RuntimeStaticI12GraphicsCapsLb0EE16StaticInitializeEPv
$Gc:__Z18Transfer_BlittableI8JSONReadLb1E8Vector4fEvRK29SerializationCommandArgumentsR31RuntimeSerializationCommandInfo
F4c:_tt_cmap2_validate
o9c:_cff_cmap_unicode_done
mnj:_Mathf_InverseLerp_m1440532496
Xv:__ZN7mecanim5human9HumanGoal8TransferI19StreamedBinaryWriteILb0EEEEvRT_
dOb:__ZN9Scripting20SendScriptingMessageER10GameObjectPKc18ScriptingObjectPtr
DOb:__Z26IsSplashScreenFadeCompletev
JVa:__Z17SendMessageDirectR6ObjectRK17MessageIdentifierR11MessageData
Lqc:__Z42Register_UnityEngine_Camera_get_clearFlagsv
bWf:_List_1_System_Collections_IList_set_Item_m105644756_gshared
zSg:_CryptographicException__ctor_m4079276506
UBd:__ZNSt3__26__treeIP11Il2CppClassNS_4lessIS2_EENS_9allocatorIS2_EEED2Ev
gNh:__ZL51Kickback_t1633073222_CustomAttributesCacheGeneratorP21CustomAttributesCache
CTf:_Enumerator_MoveNext_m1916828477_AdjustorThunk
fDf:_NumberFormatter_Append_m1878351254
n3f:_List_1_System_Collections_IList_Add_m127959198_gshared
u5b:__ZN13RenderManager27UpdatePreviousFrameMatricesEv
BGb:__Z35Transfer_Blittable_FixedBufferFieldI18StreamedBinaryReadILb1EExEvRK29SerializationCommandArgumentsR31RuntimeSerializationCommandInfo
GSg:_CspParameters__ctor_m2702516343
kK:__ZN18StreamedBinaryReadILb0EE21TransferSTLStyleArrayI22OffsetPtrArrayTransferI9OffsetPtrIN7mecanim9animation17BlendTreeConstantEEEEEvRT_17TransferMetaFlags
Ica:__Z22SetManagerPtrInContextiP6Object
mTh:_TypeBuilder_GetMethods_m3468874189
Mgb:__ZN14PlayerSettings8TransferI19StreamedBinaryWriteILb0EEEEvRT_
LGc:__Z18Transfer_BlittableI8JSONReadLb0E10ColorRGBAfEvRK29SerializationCommandArgumentsR31RuntimeSerializationCommandInfo
U4f:_Enumerator__ctor_m2783678502_AdjustorThunk
hOj:_GUIStyle_get_fixedHeight_m470442398
dyd:__ZN15dense_hashtableINSt3__24pairIK10KeyWrapperIN6il2cpp5utils13dynamic_arrayIPK10Il2CppTypeLj4EEEEPFvvEEESA_NS3_8metadata19Il2CppSignatureHashEN14dense_hash_mapISA_SD_SG_NSA_14EqualsComparerINSF_22Il2CppSignatureCompareEEENS0_9allocatorISE_EEE9SelectKeyESK_SM_E14squash_deletedEv
Nea:__ZN15DirectorManagerD2Ev
ZId:__ZN15dense_hashtableINSt3__24pairIK10KeyWrapperINS1_IPK10MethodInfoP11Il2CppClassEEEjEES9_17ReflectionMapHashIS8_EN14dense_hash_mapIS9_jSD_NS9_14EqualsComparerINS0_8equal_toIS8_EEEENS0_9allocatorISB_EEE9SelectKeyESI_SK_E9copy_fromERKSN_j
Dec:__ZNK30SpriteRendererAnimationBinding15GenerateBindingERKN4core12basic_stringIcNS0_20StringStorageDefaultIcEEEEbRN11UnityEngine9Animation14GenericBindingE
Ije:_SecurityManager_Decode_m2965242307
E9h:__Z70RuntimeInvoker_Void_t3431959231_SByte_t1872536467_TimeSpan_t1710996894PFvvEPK10MethodInfoPvPS4_
CRh:_ConstructorBuilder_GetCustomAttributes_m585320593
t2e:_Decimal_decimalIncr_m113473288
Dkg:_Comparison_1_BeginInvoke_m3974960296_gshared
hUd:__ZN6il2cpp6icalls8mscorlib6System13Globalization11CultureInfo45construct_internal_locale_from_current_localeEP17Il2CppCultureInfo
Gza:__ZN15TextureTFMethod16BindForRenderingEj
rde:_RijndaelManaged_CreateDecryptor_m408843604
_Ig:_IntervalCollection_Normalize_m2725574625
uSg:_CryptoConfig_CreateFromName_m2877935073
AUd:__ZN15dense_hashtableINSt3__24pairIK10KeyWrapperINS1_IPKcS4_EEEiEES6_24NamespaceAndNamePairHashN14dense_hash_mapIS6_iS9_NS6_14EqualsComparerI26NamespaceAndNamePairEqualsEENS0_9allocatorIS8_EEE9SelectKeyESD_SF_E4findERS7_
sKc:__ZN11UnityEngine9Analytics33PerformanceReportingRenderingInfoC2Ei
cfg:_ReadOnlyCollection_1_System_Collections_Generic_IListU3CTU3E_RemoveAt_m4150694209_gshared
cgf:_Array_InternalArray__ICollection_CopyTo_TisClientCertificateType_t1274654507_m862941448_gshared
__c:__ZN20TextRenderingPrivate8FontImpl13CharacterInfo8TransferI19StreamedBinaryWriteILb0EEEEvRT_
Gne:_ASCIIEncoding_GetDecoder_m3269476131
lAd:__ZN6il2cpp2os19SocketHandleWrapper7ReleaseEv
hRe:_BitArray_GetEnumerator_m4188065547
pIi:_Outline_ModifyMesh_m3787521009
Dfb:__ZNSt3__27__sort4IRNS_6__lessINS_4pairIPKN5Unity4TypeE7Hash128EES8_EEPS8_EEjT0_SC_SC_SC_T_
UFa:__ZNK11NamedObject22GetTypeVirtualInternalEv
Hna:__ZN16RenderTextureMap5QueryEPK17RenderSurfaceBase
pgi:__Z79RuntimeInvoker_RaycastHit2D_t2925993810_Vector2_t1132184324_Vector2_t1132184324PFvvEPK10MethodInfoPvPS4_
XBf:_IndexOutOfRangeException__ctor_m3350900575
OI:__ZN14SafeBinaryRead21TransferSTLStyleArrayI22OffsetPtrArrayTransferIKN4math7_float3EEEEvRT_17TransferMetaFlags
LBj:_X509CertificateCollection_Remove_m4169913836
oai:__Z228RuntimeInvoker_Void_t3431959231_Int32_t497012075_Int16_t1836794551_Int16_t1836794551_SByte_t1872536467_SByte_t1872536467_SByte_t1872536467_SByte_t1872536467_SByte_t1872536467_SByte_t1872536467_SByte_t1872536467_SByte_t1872536467PFvvEPK10MethodInfoPvPS4_
W$i:_InternalEnumerator_1_System_Collections_IEnumerator_get_Current_m3503311861_gshared
VVh:_OpCode_Equals_m2454270957
uLe:_Boolean_System_IConvertible_ToSByte_m4219392145_AdjustorThunk
XQe:_BitArray__ctor_m1510737883
tHj:_StaticProfile_OnEnable_m1487016210
lFj:_OLDTVTube_add_WantRepaint_m768469271
OAc:__ZN11IMGUIModule21QueryGUIDisplayTargetE17ScriptingClassPtr
Onc:__ZN11UTF16StringC2ERKS_18MemLabelIdentifier
dej:_Uri_CheckHostName_m602462444
gxd:__ZNSt3__27__sort4IRN6il2cpp5utils11collections13ArrayValueMapIPK10Il2CppType17Il2CppInteropData26InteropDataToTypeConverterNS1_8metadata14Il2CppTypeLessENSA_26Il2CppTypeEqualityComparerEE12SortComparerEPS8_EEjT0_SH_SH_SH_T_
Rak:dynCall_vidi
d8e:_CultureInfo_GetCultureInfo_m3464125170
JJe:_Array_obj_swapper_m3163926432
xek:_glVertexAttribPointer__wrapper
dBj:_X509Certificate_set_DSA_m1463587046
xTj:_AudioExtensionManager_RegisterBuiltinDefinitions_m2000981909
Cak:___udivdi3
Hnc:__ZN11PlayerPrefs9SetStringERKN4core12basic_stringIcNS0_20StringStorageDefaultIcEEEES6_
odf:_Array_FindLastIndex_TisRuntimeObject_m1471652506_gshared
r6d:__ZN6il2cpp6icalls8mscorlib6System8Delegate18SetMulticastInvokeEP14Il2CppDelegate
dTc:__ZL18b2FindIncidentEdgeP12b2ClipVertexPK14b2PolygonShapeRK11b2TransformiS3_S6_
H$:__ZN11UnityEngine15CloudWebService20WebRequestRestClient5BeginEv
y7j:_fseek
OTj:_AudioSource_ClearExtensionProperties_m2311063406
BBb:__Z22TransferField_NonArrayI17RemapPPtrTransfer27Converter_SimpleNativeClassI10RectOffsetEEvRK23StaticTransferFieldInfoR31RuntimeSerializationCommandInfoRT0_
tBf:_GuidParser__ctor_m1092447384
_T:__ZN20SoundChannelInstance11set3DSpreadEf
_D:__ZNSt3__26__sortIRN11UnityEngine9Animation11BindingSortEPNS_4pairINS2_14GenericBindingEPNS2_10BoundIndexEEEEEvT0_SB_T_
Cgb:__ZN24GenerateTypeTreeTransfer32TransferSTLStyleArrayWithElementI16SplashScreenLogoEEvRT_17TransferMetaFlags
Zzj:_PKCS12__ctor_m966754609
AHd:__ZN15dense_hashtableINSt3__24pairIK10KeyWrapperINS1_IPK9FieldInfoP11Il2CppClassEEEjEES9_17ReflectionMapHashIS8_EN14dense_hash_mapIS9_jSD_NS9_14EqualsComparerINS0_8equal_toIS8_EEEENS0_9allocatorISB_EEE9SelectKeyESI_SK_E6insertERKSB_
d0j:_Canvas_set_referencePixelsPerUnit_m3625159402
Pda:__Z37InitializeIntermediateRendererManagerPv
T2d:_GC_log_printf
jYd:__ZN6il2cpp2vm6Object5UnboxEP12Il2CppObject
Jmg:_PrimalityTests_RabinMillerTest_m430830412
Dee:_RSACryptoServiceProvider_Finalize_m3647839079
B6:__ZN23DefaultMeshVertexFormatC2E17ShaderChannelMask
WGb:__ZL26Transfer_SimpleNativeClassI18StreamedBinaryReadILb1EE8GradientLb1EEvRK29SerializationCommandArgumentsR31RuntimeSerializationCommandInfo
ss:__ZN13AnimationClip16DecompressCurvesERNSt3__26vectorI24CompressedAnimationCurve13stl_allocatorIS2_L18MemLabelIdentifier26ELi16EEEE
loa:__ZN7ApiGLES10InvalidateERK14GfxContextGLES
dBg:_IPv6Address_TryParse_m2086995523
u3g:_UnauthorizedAccessException__ctor_m1985693592
zbd:_UNITY_FT_Init_Class_tt_service_truetype_glyf
x8d:__ZN6il2cpp2os5Mutex7TryLockEjb
J5:__Z20IsVectorBuiltinParamPKcPi
IXd:__ZN6il2cpp2vm5Field8GetFlagsEP9FieldInfo
fog:_MD4Managed_HH_m688962231
B1g:_UInt32_System_IConvertible_ToByte_m3869313955
q3f:_List_1_System_Collections_IList_Insert_m3411268342_gshared
Yuc:__Z58Register_UnityEngine_SceneManagement_Scene_GetNameInternalv
oaa:__Z13IsFileCreatedRKN4core12basic_stringIcNS_20StringStorageDefaultIcEEEE
D7d:__ZN6il2cpp6icalls8mscorlib6System21CurrentSystemTimeZone15GetTimeZoneDataEiPP11Il2CppArrayS6_
i_e:_Convert_ToUInt64_m2765942175
j3a:__ZN16LightmapSettings18TransferDeprecatedI14SafeBinaryReadEEvRT_
_cb:__ZN8Renderer11SetMaterialE4PPtrI8MaterialEi
oBj:_X509Certificate_get_SerialNumber_m1366106099
tXd:__ZN15dense_hashtableINSt3__24pairIK10KeyWrapperIP12Il2CppObjectEN6il2cpp2gc9CachedCCWEEES5_NS7_5utils11PointerHashIS3_EEN14dense_hash_mapIS5_S9_SD_NS5_14EqualsComparerINS0_8equal_toIS4_EEEENS0_9allocatorISA_EEE9SelectKeyESI_SK_E5eraseE30dense_hashtable_const_iteratorISA_S5_SD_SM_SI_SK_E
Apg:_Alert_GetAlertMessage_m3836490640
Stf:_KeyPairPersistence_get_MachinePath_m1774493660
GPi:_Toggle_OnEnable_m2904743264
E3:__GLOBAL__sub_I_runtime_camera_renderloops_1_cpp
j6i:_ConfigHandler_ReadCustomProviderData_m723412856
Rrj:_Rect_get_size_m2383169409_AdjustorThunk
E0g:_UInt16_System_IConvertible_ToByte_m3405910951
wQg:_SerializationInfo_GetBoolean_m1274786120
K6e:_CCGregorianCalendar_month_from_fixed_m499483965
AV:__ZNK16BaseVideoTexture16ExtractImageImplEP14ImageReferenceNS0_8BlitModeEbi
WSa:__ZN12FlareManager9AddCameraER6Camera
J3j:_CustomEventData_AddInt32_m3299157892
RU:__ZN11AudioSource8TransferI14SafeBinaryReadEEvRT_
slc:__ZN4Mesh17SetIndicesComplexEPKvjj16GfxPrimitiveTypei
kz:__ZN7mecanim9animation23TransformDeltasFromClipEiiiRKNS0_18ClipMuscleConstantERKNS0_12ClipBindingsERKNS_14ValueArrayMaskERN4math4trsXESC_SC_
lfh:__ZL61SoapFieldAttribute_t2046219138_CustomAttributesCacheGeneratorP21CustomAttributesCache
KJb:__Z18Transfer_BlittableI18StreamedBinaryReadILb0EELb0E12PropertyNameEvRK29SerializationCommandArgumentsR31RuntimeSerializationCommandInfo
Ws:__ZN14SafeBinaryRead21TransferSTLStyleArrayI22OffsetPtrArrayTransferIfEEEvRT_17TransferMetaFlags
OOc:__ZTv0_n12_N10ClipperLib7ClipperD0Ev
Pxf:_X509CertificateCollection_get_Item_m3805416533
T0e:_DateTimeOffset_Equals_m2441125198
Xpb:__ZN9ShaderLab9IntShader26CreateFromSerializedShaderERKNS_16SerializedShaderERNSt3__26vectorI4PPtrI6ShaderENS4_9allocatorIS8_EEEEbPS7_
Imj:_Material_SetInt_m800591412
eUb:__ZN19ShaderPropertySheet16SetComputeBufferEN9ShaderLab16FastPropertyNameE15ComputeBufferIDNS_8SetFlagsE
Jle:_String_InternalAllocateStr_m2673508398
Cni:__Z56RuntimeInvoker_Void_t3431959231_RaycastHit2D_t2925993810PFvvEPK10MethodInfoPvPS4_
IKf:_MonoIO_get_PathSeparator_m1689912722
U$d:__ZNK15dense_hashtableINSt3__24pairIK10KeyWrapperIPK19Il2CppGenericMethodEP10MethodInfoEES6_N6il2cpp8metadata23Il2CppGenericMethodHashEN14dense_hash_mapIS6_S9_SD_NS6_14EqualsComparerINSC_26Il2CppGenericMethodCompareEEENS0_9allocatorISA_EEE9SelectKeyESH_SJ_E5beginEv
BHe:_LayoutRebuilder_Rebuild_m2658877881
oz:__ZN7mecanim21CreateFloatValueArrayEPKNS_18ValueArrayConstantERNS_6memory9AllocatorE
v2b:__ZL12CullGroupJobP20CullingGroupsJobDataj
Z3d:_GC_remove_dangling_disappearing_links
v0:__ZN11UnityEngine15CloudWebService14RestDownloader9IsAbortedEv
uC:__ZN7mecanim12statemachine28DestroyStateMachineWorkspaceEPNS0_21StateMachineWorkspaceERNS_6memory9AllocatorE
EBc:__Z30GUIStyle_CUSTOM_SetDefaultFontP12Il2CppObject
Fo:FUNCTION_TABLE_f
vp:FUNCTION_TABLE_i
ZUf:_List_1_System_Collections_IList_Insert_m849298125_gshared
Fga:__ZN11TypeManager12RegisterTypeERK20TypeRegistrationDesc
Vn:FUNCTION_TABLE_v
_9a:__ZNSt3__26vectorI17BlendShapeChannelNS_9allocatorIS1_EEE8__appendEj
wK:__ZN19StreamedBinaryWriteILb0EE19TransferSTLStyleMapINSt3__23mapIjN4core12basic_stringIcNS4_20StringStorageDefaultIcEEEENS2_4lessIjEENS2_9allocatorINS2_4pairIKjS8_EEEEEEEEvRT_17TransferMetaFlags
dq:__ZN18StreamedBinaryReadILb0EE21TransferSTLStyleArrayI13dynamic_arrayI8Vector3fLj4EEEEvRT_17TransferMetaFlags
nSb:__ZZ23InitPlayerLoopCallbacksvEN43PostLateUpdateUpdateAllRenderersRegistrator7ForwardEv
$2e:_Decimal_op_Multiply_m1074137562
Vjb:__ZN21LightProbeProxyVolume13GetRenderDataER27LightProbeProxyVolumeSample
jDd:__ZN6il2cpp2vm7Runtime30CallUnhandledExceptionDelegateEP12Il2CppDomainP14Il2CppDelegateP15Il2CppException
jfb:__ZN11TimeManager8TransferI24GenerateTypeTreeTransferEEvRT_
oRf:_OrdinalComparer_Equals_m371929878
Ar:__ZNK11UnityEngine9Animation28GenericAnimationBindingCache10BindCustomERKNS0_14GenericBindingER9TransformRNS0_10BoundCurveE
TFd:__ZN6il2cpp2vm17TypeNameParseInfoC2ERKS1_
Nnd:__ZN18UnityConnectClient17InitConnectClientEv
m$g:_Type_get_IsValueType_m1038091864
CV:__ZN16BaseVideoTexture18ReleaseVideoMemoryEv
FSf:_Enumerator_System_Collections_IEnumerator_get_Current_m2943198174_gshared
omd:__ZN11UnityEngine7Connect18ConnectSessionInfo8TransferER9JSONWrite
wY:__Z74Register_UnityEngine_AudioListener_INTERNAL_CALL_ReadExtensionPropertyNamev
cdb:__ZN9Scripting32GetCachedPtrFromScriptingWrapperE18ScriptingObjectPtr
xfd:__ZN2UI29ScheduleUIJobsForInstructionsERNS_7BatchesEjPKNS_13UIInstructionEfjjPNS_13CanvasJobDataE
FS:__ZN5audio5mixer22CreateAudioMixerMemoryERKNS0_18AudioMixerConstantEPN4FMOD6SystemERN7mecanim6memory9AllocatorEib
EMb:__ZL65EmitSerializationCommandsForLinearCollectionOfManagedObjectsFieldRK31TransferFunctionScriptingTraitsRK23TransferArrayField_InfoR20SerializationCommandR32SerializationCommandQueueBuilderRP20AllowNameConversions
gCf:_Int16_System_IConvertible_ToDecimal_m3422524305
Vck:dynCall_iiid
MYg:_Thread_ClrState_m930016441
mKf:_MemoryStream_get_Position_m4176229871
z9a:__ZN4Mesh23VirtualRedirectTransferER24GenerateTypeTreeTransfer
Vtc:__Z28Mesh_CUSTOM_SetTrianglesImplP12Il2CppObjectiP11Il2CppArrayih
HSg:_CspParameters__ctor_m1806604529
nQb:__ZL20ShaderWarmupFuncImplP6ShaderiPN9ShaderLab4PassERK16ShaderKeywordSetP10DynamicVBOPvR17ShaderPassContext
UUc:__ZN7b2World4StepEfii
sQf:_NullReferenceException__ctor_m2032840204
hgc:__ZNK32RendererMaterialAnimationBinding13SetFloatValueERKN11UnityEngine9Animation10BoundCurveEf
SGd:__ZN15dense_hashtableINSt3__24pairIK10KeyWrapperINS1_IPK14Il2CppAssemblyP11Il2CppClassEEEjEES9_17ReflectionMapHashIS8_EN14dense_hash_mapIS9_jSD_NS9_14EqualsComparerINS0_8equal_toIS8_EEEENS0_9allocatorISB_EEE9SelectKeyESI_SK_E3endEv
eKf:_MemoryStream__ctor_m2203264654
gaj:_PatternCompiler_NewLink_m3708815999
YAg:_ServicePoint_set_IdleSince_m2849862596
dqg:_CipherSuite_get_EffectiveKeyBits_m3106931553
vnd:__ZN11UnityEngine7Connect17DeviceStatusEventC2Ev
t4g:__ZL52Attribute_t2627949917_CustomAttributesCacheGeneratorP21CustomAttributesCache
gui:_Enumerator_get_CurrentKey_m1289602324_gshared
O$i:_InternalEnumerator_1_System_Collections_IEnumerator_get_Current_m3647933241_AdjustorThunk
n0c:__ZN20TextRenderingPrivate15DynamicFontData28GetFaceForFontRefFromOSFontsERKNS_7FontRefE
_cf:_Array_compare_TisUIVertex_t651853193_m1763833496_gshared
Jyf:_AppDomain_LoadAssembly_m1089551471
fHj:_OLDTVPreset__ctor_m3865389046
lYd:__ZN6il2cpp2vm12GenericClass12SetupMethodsEP11Il2CppClass
vub:__ZNK20LocalFileSystemPosix18GetApplicationPathEv
BMb:__ZN9Scripting30IsSystemCollectionsGenericListE17ScriptingClassPtr
_Wg:_UTF8Encoding__ctor_m3075053885
yHi:_MaskableGraphic_UpdateCull_m2200433613
zhg:_ReadOnlyCollection_1_System_Collections_IList_Remove_m3648226696_gshared
RMg:_ProxyAttribute_CreateProxy_m3251181344
Qfd:__ZN2UI23InitializeCanvasManagerEv
xMa:__ZN10GameObject16CheckConsistencyEv
SVi:_InternalEnumerator_1_System_Collections_IEnumerator_get_Current_m742150953_AdjustorThunk
Uec:__ZN14RenderSettings15InitializeClassEv
abh:__ZL61ConstructorBuilder_t3575446378_CustomAttributesCacheGeneratorP21CustomAttributesCache
Zvf:_SymmetricTransform_TransformBlock_m2366238891
j5e:_Enum_Format_m3627178226
LTf:_Enumerator_VerifyState_m1687466240_AdjustorThunk
Lrc:__Z46Register_UnityEngine_GameObject_get_activeSelfv
Tof:_MSCompatUnicodeTable__cctor_m3117324333
cfc:__ZL19OnLightProbesUpdatev
dCb:__Z18Transfer_BlittableI24GenerateTypeTreeTransferLb0E10ColorRGBAfEvRK29SerializationCommandArgumentsR31RuntimeSerializationCommandInfo
Kcj:_CapturingGroup_CompareTo_m1638096002
Qac:__ZN14SpriteRenderer13GetRenderDataEv
FIe:_Array_GetValue_m1312600351
O6h:__Z91RuntimeInvoker_Void_t3431959231_RuntimeObject_RuntimeObject_SByte_t1872536467_RuntimeObjectPFvvEPK10MethodInfoPvPS4_
wed:__ZN2UI16GetCanvasManagerEv
sle:_String_System_Collections_Generic_IEnumerableU3CcharU3E_GetEnumerator_m3393788607
Glc:__ZN15GUIEventManager8PopEventER10InputEvent
rsc:__Z31RectOffset_Get_Custom_PropRightP12Il2CppObject
Tcd:__Z54Register_UnityEngine_TextGenerator_GetVerticesInternalv
o_j:_Comparison_1_Invoke_m2008674379_gshared
oKj:_UnityEvent_1_FindMethod_Impl_m931785011_gshared
fde:__Z3BoxP11Il2CppClassPv
PHe:_ArithmeticException__ctor_m37920129
C8f:_Collection_1_IndexOf_m2390733029_gshared
Lza:__ZN21UniformBufferTFMethodD2Ev
poc:__ZL34GetComponentsImplementationRecurseILb1ELi1ELi2EEbR10GameObjectbRK17CompareParametersRK39GetComponentsImplementation_ReturnValue
qNd:__ZN15dense_hashtableINSt3__24pairIK10KeyWrapperINS1_IPK9FieldInfoP11Il2CppClassEEEjEES9_17ReflectionMapHashIS8_EN14dense_hash_mapIS9_jSD_NS9_14EqualsComparerINS0_8equal_toIS8_EEEENS0_9allocatorISB_EEE9SelectKeyESI_SK_E14squash_deletedEv
Xsa:__ZN6prcoreL12RemapGenericI15TexFormatRGB56515TexFormatRGB888EEvPKNS_9InnerInfoE
WPg:_SerializationCallbacks_RaiseOnDeserialized_m2219540413
Q6d:__ZN6il2cpp5utils10MemoryPool9AddRegionEj
Btg:_TlsClientCertificate_get_ClientCertificate_m1470161458
EKd:__ZN15dense_hashtableINSt3__24pairIK10KeyWrapperINS1_IPK9EventInfoP11Il2CppClassEEEjEES9_17ReflectionMapHashIS8_EN14dense_hash_mapIS9_jSD_NS9_14EqualsComparerINS0_8equal_toIS8_EEEENS0_9allocatorISB_EEE9SelectKeyESI_SK_E15insert_noresizeERKSB_
rHj:_ScanlineProfile_OnEnable_m1630774640
Xgd:__Z41CanvasGroup_Get_Custom_PropBlocksRaycastsP12Il2CppObject
HSa:__ZN22RenderingCommandBuffer20CleanupCommandBufferEv
lmb:__ZNSt3__26vectorIN9ShaderLab26SerializedShaderDependencyENS_9allocatorIS2_EEE8__appendEj
gca:__ZN32TransformHierarchyChangeDispatch26DispatchSelfAndAllChildrenE15TransformAccessNS_12InterestTypeE
EY:__Z46Register_UnityEngine_AudioSource_get_isPlayingv
dyg:_SslStreamBase_get_CanWrite_m1692162733
eda:__ZN13RuntimeStaticI22VirtualJoystickManagerLb0EE13StaticDestroyEPv
hP:__ZN13AudioListener12ApplyFiltersEv
t8d:__ZN6il2cpp8metadata27Il2CppGenericContextCompare7CompareEPK20Il2CppGenericContextS4_
Ubk:dynCall_viiii
pCe:_Image_get_overrideSprite_m1052327830
Z0j:_CanvasRenderer_SplitIndicesStreamsInternal_m282956580
XFd:__ZNSt3__214__split_bufferIN6il2cpp2vm17TypeNameParseInfoERNS_9allocatorIS3_EEED2Ev
Ahi:__Z66RuntimeInvoker_Boolean_t1367519524_RuntimeObject_Int64_t2229785298PFvvEPK10MethodInfoPvPS4_
Y5h:__Z118RuntimeInvoker_Void_t3431959231_RuntimeObject_RuntimeObject_Int32_t497012075_RuntimeObject_RuntimeObject_RuntimeObjectPFvvEPK10MethodInfoPvPS4_
T$e:_DateTime_AddMilliseconds_m513844602_AdjustorThunk
Xme:_String_CreateString_m1013442331
DWh:_TypeBuilder_setup_internal_class_m1292096496
Tfa:__ZN15DirectorManager14ConnectionPool16GrowEmptyBucketsEv
Mjg:_ReadOnlyCollection_1_System_Collections_IList_RemoveAt_m3958207101_gshared
Z7:__ZN17PersistentManager32CopyToAwakeFromLoadQueueInternalER18AwakeFromLoadQueue
jhe:_X509Certificate_GetExpirationDateString_m2059504896
vQc:__ZN10Collider2D23VirtualRedirectTransferER24GenerateTypeTreeTransfer
RXb:__ZNK6Camera16SetActiveVRUsageEv
pHc:__ZL26Transfer_SimpleNativeClassI8JSONRead8GradientLb1EEvRK29SerializationCommandArgumentsR31RuntimeSerializationCommandInfo
B6j:_open
wPj:_KeyBuilder_Key_m3982443954
IWc:__ZN6b2Body7SetTypeE10b2BodyType
Exc:__Z35Transform_Get_Custom_PropChildCountP12Il2CppObject
B5b:__Z30GetPlayerShouldRunInBackgroundv
hgd:__Z13RegisterClassIN2UI6CanvasEEvv
Rsa:__ZN6prcoreL12RemapGenericI11TexFormatI815TexFormatRGB565EEvPKNS_9InnerInfoE
gpj:_Object_Instantiate_m163709486
roa:__ZNK13TranslateGLES17FramebufferTargetEN2gl17FramebufferTargetE
A_d:__ZL11on_gc_event11GCEventType
SOd:__ZNSt3__214__split_bufferIN6il2cpp8metadata18GenericArrayMethodERNS_9allocatorIS3_EEED2Ev
aNg:_RemotingProxy_Finalize_m2620193060
zhj:_Color_get_white_m1058034313
dbe:_DSAParameters_t3978127580_marshal_pinvoke_cleanup
gUc:__ZNSt3__27__sort5IR31RayHitsByInverseDepthComparitorP12RaycastHit2DEEjT0_S5_S5_S5_S5_T_
mke:_Single_System_IConvertible_ToInt32_m1172807203_AdjustorThunk
d4f:_List_1_set_Item_m744965354_gshared
RRj:_GenericEqualityComparer_1_Equals_m1691855651_gshared
Yek:b61
Xek:b60
ngk:b67
mgk:b66
Yfk:b65
$ek:b64
rgk:b69
x9b:__ZL10SweepEventP14TESStesselatorP10TESSvertex
pSa:__ZNSt3__26__treeINS_12__value_typeIi17ShadowCachingDataEENS_19__map_value_compareIiS3_NS_4lessIiEELb1EEE13stl_allocatorIS3_L18MemLabelIdentifier66ELi16EEE7destroyEPNS_11__tree_nodeIS3_PvEE
__g:_TimeZone_GetLocalTimeDiff_m895305547
U2e:_Decimal_ToString_m3913190172
BRj:_GenericComparer_1_Compare_m69887041_gshared
Uuf:_MACAlgorithm_Final_m2097515383
bif:_Array_InternalArray__Insert_TisRaycastHit_t2952049248_m3029602720_gshared
Wbk:dynCall_iifffi
Zlc:__Z9SetIIMGUIP6IIMGUI
X4c:_tt_cmap10_get_info
cPb:__Z28SetupPixelCorrectCoordinatesi
tjc:__ZNSt3__218__insertion_sort_3IRN10vector_mapIiiNS_4lessIiEE13stl_allocatorINS_4pairIiiEEL18MemLabelIdentifier1ELi16EEE13value_compareEPS6_EEvT0_SD_T_
Loa:__Z5SplitRKN4core12basic_stringIcNS_20StringStorageDefaultIcEEEEcRNSt3__26vectorIS3_NS6_9allocatorIS3_EEEEi
fze:_Dropdown__cctor_m869532938
XQh:_AssemblyBuilder_get_IsCompilerContext_m892470676
Sic:__ZN13PlayableGraph16DestroyRecursiveEP8Playable
Tge:_TripleDESCryptoServiceProvider__ctor_m596071843
PEg:_X509Chain_GetSubjectKeyIdentifier_m3448067214
nK:__ZN15SerializeTraitsI9OffsetPtrIN7mecanim9animation19Blend1dDataConstantEEE8TransferI18StreamedBinaryReadILb0EEEEvRS4_RT_
Kyc:__ZNK19RectangleCellLayout11CellToLocalERKN4Grid9GridStateERKN4math7_float3E
AXi:_InternalEnumerator_1_System_Collections_IEnumerator_get_Current_m2145448657_AdjustorThunk
sP:__ZN12AudioManagerD0Ev
DZj:_TextGenerationSettings_CompareVector2_m4114311371_AdjustorThunk
f6j:___fwritex
_b:invoke_viiififii
k6h:__Z118RuntimeInvoker_Void_t3431959231_RuntimeObject_RuntimeObject_RuntimeObject_RuntimeObject_Int32_t497012075_RuntimeObjectPFvvEPK10MethodInfoPvPS4_
Spf:_SimpleCollator_FillSurrogateSortKeyRaw_m1486200003
Tfb:__ZNK22GenericPropertyBinding13SetFloatValueERKN11UnityEngine9Animation10BoundCurveEf
N8i:_ConstructionCall_InitMethodProperty_m3274003408
EHa:__ZN14AsyncOperationD0Ev
d6f:_Collection_1_System_Collections_IList_IndexOf_m1283554050_gshared
Lec:__ZN6ShaderC2E18MemLabelIdentifier18ObjectCreationMode
Lbd:_raccess_guess_darwin_ufs_export
KNe:_Char_System_IConvertible_ToUInt16_m1750116655
GRb:__ZN11TypeManager18InitializeAllTypesEv
Yhj:_Coroutine_Finalize_m2344837963
z5g:__ZL58Decimal_t407386666_CustomAttributesCacheGenerator_MaxValueP21CustomAttributesCache
f5e:_Enum_System_IConvertible_ToSingle_m779846259
pN:__ZN9AudioClipD0Ev
GDd:_il2cpp_class_from_name
vgi:__Z131RuntimeInvoker_Int32_t497012075_Vector2_t1132184324_Vector2_t1132184324_Single_t209704323_ContactFilter2D_t1726620777_RuntimeObjectPFvvEPK10MethodInfoPvPS4_
bB:__ZN27AnimationLayerMixerPlayable26ProcessAnimationLayerBeginEP35AnimationPlayableEvaluationConstantP32AnimationPlayableEvaluationInputP33AnimationPlayableEvaluationOutput
Ajj:_Object_IsNativeObjectAlive_m2925025285
ccc:__Z13RegisterClassI8GUILayerEvv
L3j:_CustomEventData_AddInt64_m3492619712
B2e:_Decimal_IsZero_m2612592545
Yuf:_PKCS1_OS2IP_m285895865
Swa:__ZN14GfxContextGLES11MakeCurrentER7ApiGLESN2gl13ContextHandleE
mad:_UNITY_tt_glyphzone_new
gfi:__Z66RuntimeInvoker_Void_t3431959231_Scene_t1129258209_Int32_t497012075PFvvEPK10MethodInfoPvPS4_
UXe:_Convert_ToDecimal_m3015978222
ndk:dynCall_viffffi
wTj:_AudioSource_get_spatializeInternal_m2893397444
lQb:__ZN16GraphicsSettings22WarmupPreloadedShadersEv
iid:__Z34Canvas_Set_Custom_PropSortingOrderP12Il2CppObjecti
uvf:_RSAManaged__ctor_m3725426886
sif:_Array_InternalArray__set_Item_TisDictionaryEntry_t790271503_m1672217959_gshared
sXe:_Convert_ToDateTime_m2186647453
CKb:__ZN18StreamedBinaryReadILb0EE8TransferI13dynamic_arrayI12PropertyNameLj4EEEEvRT_PKc17TransferMetaFlags
gie:_StrongNamePublicKeyBlob_ToString_m2934653863
oqb:__ZN9ShaderLab4Pass6RetainEv
db:invoke_iiiiiiffiiiiiiiiiffffiii
lNf:_UnexceptionalStreamWriter_Write_m1061524980
vdd:__ZN2UI6Canvas8TransferI14SafeBinaryReadEEvRT_
xI:__ZN38StateMachineBehaviourVectorDescription8TransferI14SafeBinaryReadEEvRT_
kFe:_InputField_OnDrag_m3753178670
oKc:__ZN11UnityEngine9Analytics18RenderingInfoEvent12ToJsonStringER9JSONWrite
aId:__ZN6il2cpp2gc19AppendOnlyGCHashMapIPK10Il2CppTypeP20Il2CppReflectionTypeNS_8metadata14Il2CppTypeHashENS7_26Il2CppTypeEqualityComparerEE3AddERKS4_S6_
Vfe:_SHA512Managed__ctor_m636274767
BZ:__ZN11UnityEngine15CloudWebService17CloudJobScheduler11ScheduleJobEPFvPvES2_
Qbi:__Z106RuntimeInvoker_OpFlags_t2403795413_SByte_t1872536467_SByte_t1872536467_SByte_t1872536467_SByte_t1872536467PFvvEPK10MethodInfoPvPS4_
Mej:_Uri_Unescape_m2782795866
K_:__ZN11UnityEngine15CloudWebService17CloudServiceEvent12ToJsonStringER9JSONWrite
Hda:__ZNK18VertexChannelsInfoltERKS_
sze:_FontData_get_defaultFontData_m2506834261
oDc:__ZN9JSONWrite8TransferIfEEvRT_PKc17TransferMetaFlags
EKa:__ZN10MemoryFileD0Ev
_nc:__ZN10MonoScript27InitializeAndRegisterScriptERKN4core12basic_stringIcNS0_20StringStorageDefaultIcEEEES6_S6_S6_b
eVf:_List_1_System_Collections_IList_get_Item_m948182345_gshared
ZGi:_Mask_get_rectTransform_m2688481760
Mkc:__ZNSt3__26vectorI4PPtrI17ProceduralTextureE13stl_allocatorIS3_L18MemLabelIdentifier79ELi16EEE6assignIPS3_EENS_9enable_ifIXaasr21__is_forward_iteratorIT_EE5valuesr16is_constructibleIS3_NS_15iterator_traitsISB_E9referenceEEE5valueEvE4typeESB_SB_
eyb:__ZN13GUIStyleState8TransferI14SafeBinaryReadEEvRT_
$Cd:__ZN6il2cpp2vm7Runtime47RaiseExecutionEngineExceptionIfMethodIsNotFoundEPK10MethodInfo
Xd:_glDrawArrays
Q_j:_Func_2_Invoke_m3978400700_gshared
RJf:_DelegatePInvokeWrapper_ReadDelegate_t131727591
jL:__ZN23AnimatedPropertyBuilder5BuildEP13AnimationClip18ScriptingObjectPtr
z7e:_CultureInfo_ConstructInternalLocaleFromName_m3970815313
oab:__ZN14BlendShapeData8TransferI18StreamedBinaryReadILb0EEEEvRT_
O9g:__ZL69DebuggerBrowsableAttribute_t3912826592_CustomAttributesCacheGeneratorP21CustomAttributesCache
wUb:__ZN13sorted_vectorINSt3__24pairIiN17InstancedPropInfo12PropertyTypeEEEN10vector_mapIiS3_NS0_4lessIiEE13stl_allocatorIS4_L18MemLabelIdentifier1ELi16EEE13value_compareESA_E21sort_clear_duplicatesEv
Aad:_Round_To_Grid
v0c:_UNITY_FT_Stream_Close
Ymj:_Mathf_Max_m586822566
yha:__ZL20FormatOrderedProcessPKcP17FormatOrderedDataPc
mI:__ZNK18AnimatorController13GetBehavioursEv
frc:__Z35DebugLogHandler_CUSTOM_Internal_Log7LogTypeP12Il2CppStringP12Il2CppObject
yxi:_ValueCollection_System_Collections_Generic_ICollectionU3CTValueU3E_Add_m3768453906_gshared
msi:_Enumerator_get_CurrentKey_m1138058000_gshared
kgk:_emscripten_glShaderBinary__wrapper
Mva:__ZL17ProgramUniform3ivPK7ApiGLESjiihPKv
Cka:__ZN9GfxDevice25GetBackBufferColorSurfaceEv
XKa:__ZN25SingleBlockMemoryFileData9SetLengthEy
Fjc:__Z29AwakeAndActivateClonedObjectsPP6ObjectRK10vector_mapIiiNSt3__24lessIiEE13stl_allocatorINS3_4pairIiiEEL18MemLabelIdentifier1ELi16EEE
MMd:__ZN15dense_hashtableINSt3__24pairIK10KeyWrapperINS1_IPK10MethodInfoP11Il2CppClassEEEjEES9_17ReflectionMapHashIS8_EN14dense_hash_mapIS9_jSD_NS9_14EqualsComparerINS0_8equal_toIS8_EEEENS0_9allocatorISB_EEE9SelectKeyESI_SK_E14squash_deletedEv
tcc:__Z13RegisterClassI6ShaderEvv
rdi:__Z52RuntimeInvoker_Vector3_t831627742_Vector3_t831627742PFvvEPK10MethodInfoPvPS4_
Jrd:__ZN13RuntimeStaticI11WindManagerLb0EE13StaticDestroyEPv
JEc:__Z18Transfer_BlittableI9JSONWriteLb1EaEvRK29SerializationCommandArgumentsR31RuntimeSerializationCommandInfo
HMd:__ZN13Il2CppHashMapINSt3__24pairIPK10MethodInfoP11Il2CppClassEEj17ReflectionMapHashIS7_ENS0_8equal_toIS7_EENS0_9allocatorINS1_IK10KeyWrapperIS7_EjEEEEEC2EjRKS9_RKSB_
PXb:__ZN11HaloManager11HasAnyHalosEPK11CullResults
Q8a:__ZN9Texture3D23VirtualRedirectTransferER19StreamedBinaryWriteILb0EE
YCc:__ZN5Unity9rapidjson8internal8PrettifyEPcii
sgj:_Bounds_op_Equality_m654560196
XW:__Z13RegisterClassI10SampleClipEvv
bTc:__Z23b2CollideRadialPolygonsP10b2ManifoldPK14b2PolygonShapeRK11b2TransformS3_S6_
K_b:__ZNK23ForwardShaderRenderLoop18RenderObjectSorterILb1EEclERK21ForwardRenderPassDataS4_
fKe:_Attribute_CheckParameters_m516811717
zyd:__ZN15dense_hashtableI10KeyWrapperIPK19Il2CppGenericMethodES4_N6il2cpp8metadata23Il2CppGenericMethodHashEN14dense_hash_setIS4_S7_NS4_14EqualsComparerINS6_26Il2CppGenericMethodCompareEEENSt3__29allocatorIS4_EEE8IdentityESB_SE_E12maybe_shrinkEv
CAa:__ZN10BufferGLES10BeginWriteEjj
yyd:__ZNK15dense_hashtableI10KeyWrapperIPK19Il2CppGenericMethodES4_N6il2cpp8metadata23Il2CppGenericMethodHashEN14dense_hash_setIS4_S7_NS4_14EqualsComparerINS6_26Il2CppGenericMethodCompareEEENSt3__29allocatorIS4_EEE8IdentityESB_SE_E12test_deletedEj
rF:__ZN7mecanim12statemachine18StateMachineMemory8TransferI9BlobWriteEEvRT_
Tnb:__ZN9ShaderLab20SerializedSubProgramaSERKS0_
NTg:_EncoderFallbackException__ctor_m3649251147
_yj:_Vector4_op_Equality_m3062904519
BAa:__ZN7ApiGLES11FlushBufferEjN2gl12BufferTargetEll
azb:__ZN14SafeBinaryRead21TransferSTLStyleArrayI13dynamic_arrayI8BitFieldLj4EEEEvRT_17TransferMetaFlags
ixa:__ZN12_GLOBAL__N_127PrepareReadback_ResolveMSAAER18GfxFramebufferGLESR7ApiGLESP17RenderSurfaceGLESS5_
GMj:_Event_Cleanup_m2146350440
wSh:_DerivedType_GetCustomAttributes_m1235456017
gih:__ZL68SecurityCriticalAttribute_t2925921207_CustomAttributesCacheGeneratorP21CustomAttributesCache
xgc:__ZNK24RendererAnimationBinding9BindValueER6ObjectRKN11UnityEngine9Animation14GenericBindingERNS3_10BoundCurveE
Ye:_glBindBuffer
nKb:__ZN8GUIStyle8TransferI18StreamedBinaryReadILb0EEEEvRT_
Sdg:_Collection_1_IsFixedSize_m2921782326_gshared
pea:__ZNSt3__213__stable_sortIRN10vector_mapIijNS_4lessIiEENS_9allocatorINS_4pairIijEEEEE13value_compareENS_11__wrap_iterIPS6_EEEEvT0_SE_T_NS_15iterator_traitsISE_E15difference_typeEPNSH_10value_typeEi
Ydj:_Uri_ParseAsWindowsUNC_m630064982
idg:_Collection_1_System_Collections_ICollection_CopyTo_m3424392571_gshared
Kgb:__ZN10VRSettings8Daydream8TransferI18StreamedBinaryReadILb0EEEEvRT_
Prb:__ZNSt3__218__insertion_sort_3IRNS_6__lessIN4core12basic_stringIcNS2_20StringStorageDefaultIcEEEES6_EEPS6_EEvT0_SA_T_
PQ:__ZN4FMOD7Channel13set3DPanLevelEf
YZa:__ZNSt3__26__treeINS_12__value_typeIN9ShaderLab16FastPropertyNameEN18UnityPropertySheet11UnityTexEnvEEENS_19__map_value_compareIS3_S6_NS_4lessIS3_EELb1EEENS_9allocatorIS6_EEE7destroyEPNS_11__tree_nodeIS6_PvEE
Wr:__ZN13AnimationClip17MainThreadCleanupEv
Kzd:__ZN6il2cpp2vm13MetadataCache24GetExportedTypeFromIndexEi
Sw:__ZN8Animator15SetPrepareStageEv
TCc:__ZN5Unity9rapidjson6WriterI16TempBufferWriterNS0_4UTF8IcEES4_13JSONAllocatorE9WriteUintEj
s8j:_getuid
WL:__ZN7mecanim5human8BoneNameEj
Jcc:__Z13RegisterClassI10MonoScriptEvv
DRe:_CollectionBase_get_InnerList_m1718459694
lsj:_Rect_Equals_m3502505640
T_c:__ZN20TextRenderingPrivate8FontImpl8TransferI18StreamedBinaryReadILb0EEEEvRT_
rRe:_CaseInsensitiveComparer_get_DefaultInvariant_m3503372197
pBd:__ZN6il2cpp6icalls8mscorlib6System8MonoType22get_IsGenericParameterEP20Il2CppReflectionType
zy:__ZN7mecanim5human14HumanPoseClearERNS0_9HumanPoseE
ikg:_ReadOnlyCollection_1_System_Collections_IList_Add_m3060912179_gshared
A_a:__ZN18StreamedBinaryReadILb0EE19TransferSTLStyleMapINSt3__23mapIN9ShaderLab16FastPropertyNameE10ColorRGBAfNS2_4lessIS5_EENS2_9allocatorINS2_4pairIKS5_S6_EEEEEEEEvRT_17TransferMetaFlags
wse:_MouseButtonEventData_PressedThisFrame_m1654429022
k_f:_List_1_RemoveAll_m4088362920_gshared
rnj:_Matrix4x4_GetHashCode_m3828009593_AdjustorThunk
Au:__ZN24GenerateTypeTreeTransfer21TransferSTLStyleArrayINSt3__26vectorIN13AnimationClip9PPtrCurveE13stl_allocatorIS4_L18MemLabelIdentifier26ELi16EEEEEEvRT_17TransferMetaFlags
Uee:_RSAPKCS1SignatureDeformatter_SetHashAlgorithm_m764671354
$Bf:_Int16_System_IConvertible_ToBoolean_m2511023456_AdjustorThunk
t5b:__ZN13RenderManager28AreCamerasUsingMotionVectorsEv
sda:__Z25InitializeLODGroupManagerPv
D_h:_ParameterInfo_ToString_m3750793881
Oma:__ZN13GfxDeviceGLES12EndStereoEyeE15StereoscopicEye
edj:_Group_GetWidth_m147724005
OUb:__ZNK12ImageFilters28ApplyAfterTransparentFiltersEv
Eug:_TlsStream_ReadInt16_m2750311028
fnd:__ZN11UnityEngine7Connect15AppRunningEvent12ToJsonStringER9JSONWrite
i$a:__ZN19ShaderPropertySheet5ClearEb
mVb:__ZNK6Camera11GetPositionEv
Vw:__ZN8Animator19CreatePlayableGraphEv
P$g:_Type_GetHashCode_m960600438
tLi:_ScrollRect_get_viewRect_m4015980824
Yub:__ZNK16MemoryFileSystem8FilenameERK13FileEntryData
bg:_glUniform1fv
tei:__Z69RuntimeInvoker_Void_t3431959231_Vector3_t831627742_Vector3_t831627742PFvvEPK10MethodInfoPvPS4_
fg:_JS_FileSystem_Sync
wna:__ZNSt3__26__treeINS_12__value_typeI21GLESRenderTargetSetupN2gl6HandleILNS3_10ObjectTypeE9EEEEENS_19__map_value_compareIS2_S7_NS_4lessIS2_EELb1EEENS_9allocatorIS7_EEE7destroyEPNS_11__tree_nodeIS7_PvEE
DYc:__ZN11Rigidbody2D11SetVelocityERK8Vector2f
mxa:__ZN4gles15BlitFramebufferERNS_23BlitFramebufferDrawQuadER9GfxDeviceii9TextureIDiiiiiiii
ng:__emscripten_sample_gamepad_data
Udc:__Z22DelayedDestroyCallbackP6ObjectPv
b4i:_GCHandle__ctor_m3219313245_AdjustorThunk
qKf:_MemoryStream_Read_m1380858875
fXc:__ZN15b2ContactFilter13ShouldCollideEP9b2FixtureS1_
G3d:_get_index
Dnd:__ZN11UnityEngine7Connect20BasePersistentValues13RestoreValuesER8JSONRead
mqg:_Context_get_Negotiating_m2811863819
_eb:__ZN11TimeManagerD0Ev
bT:__ZN12AudioManager33GetAudioEffectInternalDefinitionsEv
g2a:__ZN9Texture2D16DeleteGfxTextureEv
Stb:__ZN20LocalFileSystemPosix4OpenER13FileEntryData14FilePermission16FileAutoBehavior
q7e:_CompareInfo_IndexOf_m2140355338
h2e:_Decimal_System_IConvertible_ToSByte_m3803093920
Ixd:__ZN15dense_hashtableINSt3__24pairIK10KeyWrapperIN6il2cpp5utils13dynamic_arrayIPK10Il2CppTypeLj4EEEEPFvvEEESA_NS3_8metadata19Il2CppSignatureHashEN14dense_hash_mapISA_SD_SG_NSA_14EqualsComparerINSF_22Il2CppSignatureCompareEEENS0_9allocatorISE_EEE9SelectKeyESK_SM_ED2Ev
kdd:__ZN2UI6Canvas12AddToManagerEv
N3c:_UNITY_tt_face_load_sbit
ljc:__Z37GetTransformFromComponentOrGameObjectP6Object
y8c:_cf2_hint_isTop
w4b:__ZN23ManagedAttributeManager21GetRequiredComponentsE17ScriptingClassPtr
m6b:__Z23InitializeStdConvertersv
Ft:__ZNSt3__26vectorIN13AnimationClip10FloatCurveE13stl_allocatorIS2_L18MemLabelIdentifier26ELi16EEE7reserveEj
KZb:__ZN19ShaderPropertySheet17UpdateTextureInfoEiRK23FastTexturePropertyNamePK10TextureRef
R6c:_ps_unicodes_init
i$f:_List_1_RemoveAt_m2622328626_gshared
gSb:__ZZ23InitPlayerLoopCallbacksvEN38PreUpdateCheckTexFieldInputRegistrator7ForwardEv
IOh:_OverflowException__ctor_m893351281
FUd:__ZNK10KeyWrapperINSt3__24pairIPKcS3_EEE14EqualsComparerI26NamespaceAndNamePairEqualsEclERKS5_SA_
Qda:__Z34CleanupIntermediateRendererManagerPv
nsj:_Rect_ToString_m1759462849
k9b:__Z15tessMeshNewMeshP9TESSalloc
mSd:__ZN6il2cpp2vm9Exception27GetExecutionEngineExceptionEPKc
umj:_Material_SetFloatImpl_m2245707436
TM:__Z43Register_UnityEngine_Animator_SetBoolStringv
th:_JS_WebRequest_GetResponseHeaders
INb:__ZNSt3__26__treeINS_12__value_typeI26SerializedObjectIdentifieriEENS_19__map_value_compareIS2_S3_NS_4lessIS2_EELb1EEENS_9allocatorIS3_EEE7destroyEPNS_11__tree_nodeIS3_PvEE
l3c:_UNITY_FT_Create_Class_tt_cmap_classes
Bte:_TouchInputModule_Process_m2253405575
Tnc:__ZN9Scripting18RaiseNullExceptionEPKcz
dga:__ZN13RuntimeStaticI13RendererSceneLb0EE16StaticInitializeEPv
AXc:__ZZN10Collider2D15InitializeClassEvEN28FunctorImpl_100kSetPolygon2D4CallEPviR11MessageData
Eh:_glCreateProgram
j_j:_TextGenerator_get_verts_m4228423366
hEg:_X509Certificate2_Import_m3026211277
Mui:_ShimEnumerator_get_Value_m3702372053_gshared
u$g:_Type_get_IsSealed_m1717811314
eOa:__ZN24GenerateTypeTreeTransfer32TransferSTLStyleArrayWithElementI17SortingLayerEntryEEvRT_17TransferMetaFlags
qfk:_glUniformMatrix3fv__wrapper
J0i:_DefaultComparer_Compare_m3635900100_gshared
SGb:__Z18Transfer_BlittableI18StreamedBinaryReadILb1EELb1E12PropertyNameEvRK29SerializationCommandArgumentsR31RuntimeSerializationCommandInfo
SCj:_BetterJump_Update_m4271294216
hMd:__ZN15dense_hashtableINSt3__24pairIK10KeyWrapperIPK22Il2CppGenericParameterEPK24MonoGenericParameterInfoEES6_N6il2cpp5utils11PointerHashIS4_EEN14dense_hash_mapIS6_SA_SF_NS6_14EqualsComparerINS0_8equal_toIS5_EEEENS0_9allocatorISB_EEE9SelectKeyESK_SM_EC2ERKSP_j
zXi:_InternalEnumerator_1_get_Current_m2530025661_gshared
b6:__ZN23TransformChangeDispatch12CleanupClassEPv
_mc:__ZN8UserList11SendMessageERK17MessageIdentifier
$hd:__Z33Canvas_Get_Custom_PropScaleFactorP12Il2CppObject
LG:__ZNK26AnimatorControllerPlayable21GetStateMachineMemoryEi
r0j:_Canvas_remove_willRenderCanvases_m3517806269
Sjf:_Array_Resize_TisInt32_t497012075_m3890327934_gshared
bIj:_CachedInvokableCall_1__ctor_m1438820654_gshared
X0b:__Z15CullLocalLightsR8JobFenceS0_RK22SceneCullingParametersiPK8Vector4fRK13dynamic_arrayIhLj1EER9IndexListSC_PfP5RectTIfEP13TargetEyeMaskPPK5LightRK14ShadowCullData
oRa:__ZNK6Camera16GetTargetTextureEv
Cne:_ASCIIEncoding_GetMaxCharCount_m4063341045
wFg:_X509Certificate2Enumerator_System_Collections_IEnumerator_get_Current_m725293098
gsi:_Enumerator_System_Collections_IEnumerator_Reset_m2531314944_gshared
Hqd:__ZNK20UnityWebRequestProtoI24UnityWebRequestTransport16AtomicRefCounter14RedirectHelper14ResponseHelper15DownloadHandler13UploadHandler12HeaderHelper14AsyncOperationE17GetUploadProgressEv
spg:_EncryptedData_get_EncryptedContent_m2363781512
tyb:__Z35Transfer_Blittable_SingleValueFieldI14SafeBinaryReadyEvRT_R17GeneralMonoObjectRK23StaticTransferFieldInfo
O$a:__ZN8Playable20ClearInputConnectionEi
pWb:__ZN13BatchRenderer12EndLoopFlushEv
B0g:_TypeLoadException_get_Message_m949107303
Skc:__ZNK6Sprite11GetInnerUVsE20SpriteRenderDataMode
rH:__ZN11UnityEngine9Animation28DestroyAvatarBindingConstantEPNS0_21AvatarBindingConstantERN7mecanim6memory9AllocatorE
Hdf:_Array_InternalArray__IndexOf_TisBoolean_t1367519524_m889428687_gshared
Gdc:__ZN16MessageForwarder23RegisterMessageCallbackEiPFvPviR11MessageDataEPKN5Unity4TypeE
E8c:_cff_get_glyph_data
OIi:_RectMask2D__ctor_m3230261046
nVa:__ZN4Mesh30AcquireSharedMeshRenderingDataEv
oi:_gmtime
vi:_emscripten_glUniform3i
foa:__ZNK7ApiGLES10GetContextEv
Qwb:__Z18Transfer_BlittableI14SafeBinaryReadLb1E5RectTIfEEvRK29SerializationCommandArgumentsR31RuntimeSerializationCommandInfo
Nsc:__Z25Input_CUSTOM_GetKeyStringP12Il2CppString
Z5a:__ZN15TextureSettings14SetAnisoLimitsEii
rDb:__Z19TransferField_ArrayI24GenerateTypeTreeTransfer27Converter_SimpleNativeClassI10RectOffsetEEvRK23StaticTransferFieldInfoR31RuntimeSerializationCommandInfoRT0_
nua:__ZN6prcoreL17RemapGenericFloatI18TexFormatARGBFloat15TexFormatRGHalfEEvPKNS_9InnerInfoE
dwf:_SymmetricTransform_FinalDecrypt_m2432083800
Tdj:_Uri_IsHexEncoding_m3969455329
Ovb:__ZNSt3__26vectorI4PPtrI10MonoScriptE13stl_allocatorIS3_L18MemLabelIdentifier78ELi16EEE8__appendEj
M5i:_CrossAppDomainChannel_CreateMessageSink_m899406300
Wrf:_BigInteger_op_Addition_m3519025667
cXf:_List_1_AddEnumerable_m41459219_gshared
nlk:_emscripten_glIsProgram__wrapper
Lgc:__ZL22PrepareMeshRenderNodesILb1EEvR35RenderNodeQueuePrepareThreadContext
tub:__ZN20LocalFileSystemPosix5TouchER13FileEntryData
VFc:__ZN9JSONWrite8TransferI13dynamic_arrayItLj2EEEEvRT_PKc17TransferMetaFlags
IGi:_LayoutUtility_GetLayoutProperty_m1738605942
Li:_emscripten_glDrawElements
Sha:__ZN15dense_hashtableINSt3__24pairIKN4core12basic_stringIcNS2_20StringStorageDefaultIcEEEE13dynamic_arrayI4PPtrI6SpriteELj4EEEES6_20StringHash32FunctionIS6_EN14dense_hash_mapIS6_SC_SF_NS0_8equal_toIS6_EE13stl_allocatorISD_L18MemLabelIdentifier81ELi16EEE9SelectKeyESI_SL_ED2Ev
tSf:_Enumerator_System_Collections_IEnumerator_Reset_m1047545149_AdjustorThunk
xkj:_RenderPipelineManager_PrepareRenderPipeline_m1602686256
uZg:_Scheduler_ShrinkIfNeeded_m3466473238
ZPc:__ZN20SpriteTilingProperty8TransferI14SafeBinaryReadEEvRT_
$u:__ZN13AnimationClip8TransferI18StreamedBinaryReadILb0EEEEvRT_
PE:__ZN9BlobWriteD2Ev
Iac:__Z33GetMinimumTextureMipSizeForFormat13TextureFormat
bxb:__ZL26Transfer_SimpleNativeClassI14SafeBinaryRead8GradientLb0EEvRK29SerializationCommandArgumentsR31RuntimeSerializationCommandInfo
d2j:_Physics2D_INTERNAL_CALL_GetRayIntersectionAll_m1051907682
Bkk:_emscripten_glClientActiveTexture__wrapper
Wyd:__ZNK15dense_hashtableI10KeyWrapperIPK17Il2CppGenericInstES4_N6il2cpp8metadata21Il2CppGenericInstHashEN14dense_hash_setIS4_S7_NS4_14EqualsComparerINS6_24Il2CppGenericInstCompareEEENSt3__29allocatorIS4_EEE8IdentityESB_SE_E4findERKS4_
Aje:_SecurityException_ToString_m1296733206
Nye:_Dropdown_AlphaFadeList_m1411837554
Bvd:__ZNK15dense_hashtableINSt3__24pairIK10KeyWrapperIPKcEP11Il2CppClassEES5_N6il2cpp5utils11StringUtils12StringHasherIS4_EEN14dense_hash_mapIS5_S8_SE_NS5_14EqualsComparerINSB_13VmStringUtils21CaseSensitiveComparerEEENS0_9allocatorIS9_EEE9SelectKeyESJ_SL_E10test_emptyEj
zxg:_SslStreamBase_get_CipherStrength_m2022843577
gJg:_IntervalCollection_GetEnumerator_m311774193
PYg:_Thread_Start_m1103190975
p0f:_List_1_set_Item_m3900986417_gshared
FYh:_MonoEvent_get_Attributes_m1878892442
_Xa:__ZN13RenderTexture23VirtualRedirectTransferER18StreamedBinaryReadILb0EE
UWg:_UTF7Encoding_GetByteCount_m776564546
l4c:_UNITY_tt_face_lookup_table
dFe:_InputField_AssignPositioningIfNeeded_m1860787015
ECc:__ZN5Unity9rapidjson13GenericReaderINS0_4UTF8IcEES3_13JSONAllocatorE9ParseHex4INS0_25GenericInsituStringStreamIS3_EEEEjRT_
Mya:__Z17ComputeMipmapSizeiii14GraphicsFormat
ora:__ZN4crnd12crn_unpacker12unpack_dxt5aEPPhjjjjjj
YNd:__ZNK15dense_hashtableINSt3__24pairIK10KeyWrapperINS1_IP11Il2CppClassjEEES4_EES6_N6il2cpp8metadata14ArrayClassHashEN14dense_hash_mapIS6_S4_SB_NS6_14EqualsComparerINSA_17ArrayClassCompareEEENS0_9allocatorIS8_EEE9SelectKeyESF_SH_E3endEv
bOe:_Char_IsDigit_m3447450236
z0j:_CanvasGroup_get_alpha_m3551906795
BVe:_Convert_ToBoolean_m2566636535
EIb:__Z29Transfer_Blittable_ArrayFieldI18StreamedBinaryReadILb1EE8Vector2fEvRT_R9ArrayInfoRK23StaticTransferFieldInfo
shd:__Z50CanvasRenderer_CUSTOM_CreateUIVertexStreamInternalP12Il2CppObjectS0_S0_S0_S0_S0_S0_S0_S0_S0_
Sea:__ZN14PlayableOutput15PrepareTraverseERK9FrameData
VSd:__ZN6il2cpp2vm13LivenessState25FieldCanContainReferencesEP9FieldInfo
nfj:_Application_get_isEditor_m835330696
qLb:__ZL19RequireCorLibMethodPKcS0_S0_
WEa:__ZNK5Unity9Component22GetTypeVirtualInternalEv
nm:_emscripten_get_fullscreen_status
ava:__ZN6prcoreL26RemapGenericIntegerToFloatI17TexFormatARGB888817TexFormatRGBFloatEEvPKNS_9InnerInfoE
wFd:__ZN6il2cpp2vm14TypeNameParser26ParseTypeArgumentsOptionalERi
i2b:__ZN15LODGroupManager27GarbageCollectCameraLODDataEv
oIa:__ZN11NamedObjectC2E18MemLabelIdentifier18ObjectCreationMode
ONg:_SoapServices_GetNameKey_m2748694512
x5b:__ZN13ScreenManagerC2Ev
jmj:_Material__ctor_m905509273
FA:__ZN7mecanim20ValueArrayBlendBeginILb1EEEvRNS_14ValueArrayMaskE
rzc:__ZN12GUIClipState20CalculateMouseValuesER10InputEvent
ECb:__Z18Transfer_BlittableI24GenerateTypeTreeTransferLb0E12PropertyNameEvRK29SerializationCommandArgumentsR31RuntimeSerializationCommandInfo
boa:__ZN7ApiGLES4InitERK14GfxContextGLESR16GfxDeviceLevelGL
bkd:__Z31CustomEventData_CUSTOM_AddSByteP12Il2CppObjectP12Il2CppStringa
NQa:__ZNK11LightProbes14LightProbeData33GetLightProbeInterpolationWeightsERK8Vector3fRiR8Vector4fRf
mpf:_MSCompatUnicodeTable_FillCJK_m1045815700
l6e:_Exception_GetType_m3525609598
V1:__ZN21UnityDefaultAllocatorI17LowLevelAllocatorED0Ev
k4a:__ZN8Renderer15SetIsRenderableEb
_3h:__Z148RuntimeInvoker_Boolean_t1367519524_Int32_t497012075_RuntimeObject_Int32_t497012075_Int32_t497012075_RuntimeObject_Int32_t497012075_SByte_t1872536467PFvvEPK10MethodInfoPvPS4_
oce:_HMACSHA512__cctor_m328475633
ova:__Z14DecodeBC7BlockP9HDRColorAPKh
vgc:__ZNK24RendererAnimationBinding12GetPPtrValueERKN11UnityEngine9Animation10BoundCurveE
Y1i:_Comparer_1__cctor_m3770186986_gshared
aPg:_ObjectRecord_UnchainFixup_m1090187451
M5d:_GC_new_proc_inner
rc:invoke_fiiffi
HXa:__ZN19RenderBufferManager13GetTempBufferE17RenderTextureDesc
h9c:_UNITY_FT_Init_Class_cff_service_glyph_dict
vsj:_RectOffset_Cleanup_m1759327848
eI:__ZN18AnimatorController23VirtualRedirectTransferER18StreamedBinaryReadILb0EE
fwb:__Z35Transfer_Blittable_FixedBufferFieldI14SafeBinaryReadiEvRK29SerializationCommandArgumentsR31RuntimeSerializationCommandInfo
J2g:_UInt64_System_IConvertible_ToInt64_m2756490233_AdjustorThunk
TUb:__ZNK25CameraStackRenderingState21IsRenderingLastCameraEv
Asa:__ZL24stbir__filter_catmullromff
K0e:_DateTimeOffset__ctor_m2759792537_AdjustorThunk
ePc:__ZN10ClipperLib7Clipper8AddOutPtEPNS_5TEdgeERKNS_8IntPointE
D$c:__ZN20TextRenderingPrivate15GetFormatStringER11UTF16StringR13dynamic_arrayINS_16TextFormatChangeELj4EE
oGe:_U3CMouseDragOutsideRectU3Ec__Iterator1_MoveNext_m1729113063
_sf:_BlockProcessor_Initialize_m2244541082
zCd:__ZN6il2cpp6icalls8mscorlib6SystemL16CheckMemberMatchI9EventInfoNS_5utils10functional6FilterINSt3__212basic_stringIcNS8_11char_traitsIcEENS8_9allocatorIcEEEENS5_13VmStringUtils21CaseSensitiveComparerEEEEEbPKT_PK11Il2CppClassSN_iRKT0_
s4b:__Z23ValidateScriptComponentP10MonoScriptPN4core12basic_stringIcNS1_20StringStorageDefaultIcEEEE
uy:__ZN7mecanim9animation12GetHumanPoseIfEEvRKNS0_18ClipMuscleConstantEPKT_RNS_5human9HumanPoseE
c8a:__ZNSt3__215__inplace_mergeIRNS_4lessI4PPtrI11SpriteAtlasEEENS_11__wrap_iterIPS4_EEEEvT0_SA_SA_T_NS_15iterator_traitsISA_E15difference_typeESE_PNSD_10value_typeEi
k:ABORT
YSi:_InternalEnumerator_1_get_Current_m3490837414_AdjustorThunk
QBf:_Guid_ToString_m3188456215
eRb:__ZN26SinglePassStereoSupportExt27InitSinglePassStereoSupportEP21ISinglePassStereoImplP9GfxDevice
_1c:_UNITY_FT_Init_Class_ft_outline_glyph_class
